
tis_microc.elf:     file format elf32-littlenios2
tis_microc.elf
architecture: nios2:r1, flags 0x00000112:
EXEC_P, HAS_SYMS, D_PAGED
start address 0x001001c0

Program Header:
    LOAD off    0x00001000 vaddr 0x00100000 paddr 0x00100000 align 2**12
         filesz 0x00000020 memsz 0x00000020 flags r-x
    LOAD off    0x00001020 vaddr 0x00100020 paddr 0x00100020 align 2**12
         filesz 0x00023a74 memsz 0x00023a74 flags r-x
    LOAD off    0x00024a94 vaddr 0x00123a94 paddr 0x00125674 align 2**12
         filesz 0x00001be0 memsz 0x00001be0 flags rw-
    LOAD off    0x00027254 vaddr 0x00127254 paddr 0x00127254 align 2**12
         filesz 0x00000000 memsz 0x000073f4 flags rw-

Sections:
Idx Name          Size      VMA       LMA       File off  Algn
  0 .entry        00000020  00100000  00100000  00001000  2**5
                  CONTENTS, ALLOC, LOAD, READONLY, CODE
  1 .exceptions   000001a0  00100020  00100020  00001020  2**2
                  CONTENTS, ALLOC, LOAD, READONLY, CODE
  2 .text         00022cdc  001001c0  001001c0  000011c0  2**2
                  CONTENTS, ALLOC, LOAD, READONLY, CODE
  3 .rodata       00000bf8  00122e9c  00122e9c  00023e9c  2**2
                  CONTENTS, ALLOC, LOAD, READONLY, DATA
  4 .rwdata       00001be0  00123a94  00125674  00024a94  2**2
                  CONTENTS, ALLOC, LOAD, DATA, SMALL_DATA
  5 .bss          000073f4  00127254  00127254  00027254  2**2
                  ALLOC, SMALL_DATA
  6 .onchip_memory2_0 00000000  0012e648  0012e648  00026674  2**0
                  CONTENTS
  7 .comment      00000023  00000000  00000000  00026674  2**0
                  CONTENTS, READONLY
  8 .debug_aranges 00001430  00000000  00000000  00026698  2**3
                  CONTENTS, READONLY, DEBUGGING
  9 .debug_info   0003ab7a  00000000  00000000  00027ac8  2**0
                  CONTENTS, READONLY, DEBUGGING
 10 .debug_abbrev 0000dc62  00000000  00000000  00062642  2**0
                  CONTENTS, READONLY, DEBUGGING
 11 .debug_line   0001307a  00000000  00000000  000702a4  2**0
                  CONTENTS, READONLY, DEBUGGING
 12 .debug_frame  00003b0c  00000000  00000000  00083320  2**2
                  CONTENTS, READONLY, DEBUGGING
 13 .debug_str    000052a5  00000000  00000000  00086e2c  2**0
                  CONTENTS, READONLY, DEBUGGING
 14 .debug_loc    00025bee  00000000  00000000  0008c0d1  2**0
                  CONTENTS, READONLY, DEBUGGING
 15 .debug_alt_sim_info 00000010  00000000  00000000  000b1cc0  2**2
                  CONTENTS, READONLY, DEBUGGING
 16 .debug_ranges 00002180  00000000  00000000  000b1cd0  2**3
                  CONTENTS, READONLY, DEBUGGING
 17 .thread_model 00000006  00000000  00000000  000b9176  2**0
                  CONTENTS, READONLY
 18 .cpu          0000000c  00000000  00000000  000b917c  2**0
                  CONTENTS, READONLY
 19 .qsys         00000001  00000000  00000000  000b9188  2**0
                  CONTENTS, READONLY
 20 .simulation_enabled 00000001  00000000  00000000  000b9189  2**0
                  CONTENTS, READONLY
 21 .stderr_dev   0000000b  00000000  00000000  000b918a  2**0
                  CONTENTS, READONLY
 22 .stdin_dev    0000000b  00000000  00000000  000b9195  2**0
                  CONTENTS, READONLY
 23 .stdout_dev   0000000b  00000000  00000000  000b91a0  2**0
                  CONTENTS, READONLY
 24 .sopc_system_name 0000000a  00000000  00000000  000b91ab  2**0
                  CONTENTS, READONLY
 25 .quartus_project_dir 0000001c  00000000  00000000  000b91b5  2**0
                  CONTENTS, READONLY
 26 .jdi          00004fc5  00000000  00000000  000b91d1  2**0
                  CONTENTS, READONLY
 27 .sopcinfo     00045780  00000000  00000000  000be196  2**0
                  CONTENTS, READONLY
SYMBOL TABLE:
00100000 l    d  .entry	00000000 .entry
00100020 l    d  .exceptions	00000000 .exceptions
001001c0 l    d  .text	00000000 .text
00122e9c l    d  .rodata	00000000 .rodata
00123a94 l    d  .rwdata	00000000 .rwdata
00127254 l    d  .bss	00000000 .bss
0012e648 l    d  .onchip_memory2_0	00000000 .onchip_memory2_0
00000000 l    d  .comment	00000000 .comment
00000000 l    d  .debug_aranges	00000000 .debug_aranges
00000000 l    d  .debug_info	00000000 .debug_info
00000000 l    d  .debug_abbrev	00000000 .debug_abbrev
00000000 l    d  .debug_line	00000000 .debug_line
00000000 l    d  .debug_frame	00000000 .debug_frame
00000000 l    d  .debug_str	00000000 .debug_str
00000000 l    d  .debug_loc	00000000 .debug_loc
00000000 l    d  .debug_alt_sim_info	00000000 .debug_alt_sim_info
00000000 l    d  .debug_ranges	00000000 .debug_ranges
00000000 l    df *ABS*	00000000 ../tis_microc_bsp//obj/HAL/src/crt0.o
001001f8 l       .text	00000000 alt_after_alt_main
00000000 l    df *ABS*	00000000 alt_exception_entry.o
00100094 l       .exceptions	00000000 alt_exception_unknown
00000000 l    df *ABS*	00000000 alt_irq_handler.c
00000000 l    df *ABS*	00000000 hello_ucosii.c
00127254 l     O .bss	00000004 cnt.3213
001272f0 l     O .bss	0000000a number.3218
00000000 l    df *ABS*	00000000 tis_asm.c
00123a94 l     O .rwdata	00000020 regs
00123ab4 l     O .rwdata	00000034 opcodes_str
00123ae8 l     O .rwdata	0000000d asm_operands
00122f60 l     O .rodata	0000001a asm_codes
00000000 l    df *ABS*	00000000 tis_node.c
00000000 l    df *ABS*	00000000 memcpy.c
00000000 l    df *ABS*	00000000 memset.c
00000000 l    df *ABS*	00000000 printf.c
00000000 l    df *ABS*	00000000 puts.c
00000000 l    df *ABS*	00000000 sprintf.c
00000000 l    df *ABS*	00000000 sscanf.c
00000000 l    df *ABS*	00000000 stdio.c
00000000 l    df *ABS*	00000000 strcmp.c
00000000 l    df *ABS*	00000000 strlen.c
00000000 l    df *ABS*	00000000 strtok_r.c
00000000 l    df *ABS*	00000000 vfprintf.c
00123246 l     O .rodata	00000010 zeroes.4389
00123256 l     O .rodata	00000010 blanks.4388
00000000 l    df *ABS*	00000000 vfscanf.c
0012326e l     O .rodata	00000022 basefix.4340
00000000 l    df *ABS*	00000000 vfprintf.c
00123290 l     O .rodata	00000010 zeroes.4404
00107d5c l     F .text	000000bc __sbprintf
001232a0 l     O .rodata	00000010 blanks.4403
00000000 l    df *ABS*	00000000 writer.c
00000000 l    df *ABS*	00000000 wsetup.c
00000000 l    df *ABS*	00000000 closer.c
00000000 l    df *ABS*	00000000 ctype_.c
001233b1 l     O .rodata	00000180 _ctype_b
00000000 l    df *ABS*	00000000 dtoa.c
00108020 l     F .text	00000228 quorem
00000000 l    df *ABS*	00000000 fflush.c
00000000 l    df *ABS*	00000000 findfp.c
00109b78 l     F .text	00000008 __fp_unlock
00109b8c l     F .text	0000019c __sinit.part.1
00109d28 l     F .text	00000008 __fp_lock
00000000 l    df *ABS*	00000000 mallocr.c
00000000 l    df *ABS*	00000000 fvwrite.c
00000000 l    df *ABS*	00000000 fwalk.c
00000000 l    df *ABS*	00000000 impure.c
00123af8 l     O .rwdata	00000424 impure_data
00000000 l    df *ABS*	00000000 int_errno.c
00000000 l    df *ABS*	00000000 iswspace.c
00000000 l    df *ABS*	00000000 locale.c
00123f3c l     O .rwdata	00000020 lc_ctype_charset
00123f1c l     O .rwdata	00000020 lc_message_charset
00123f5c l     O .rwdata	00000038 lconv
00000000 l    df *ABS*	00000000 lseekr.c
00000000 l    df *ABS*	00000000 makebuf.c
00000000 l    df *ABS*	00000000 mallocr.c
00000000 l    df *ABS*	00000000 mbrtowc.c
00000000 l    df *ABS*	00000000 mbtowc_r.c
00000000 l    df *ABS*	00000000 memchr.c
00000000 l    df *ABS*	00000000 memmove.c
00000000 l    df *ABS*	00000000 mprec.c
00123554 l     O .rodata	0000000c p05.2768
00000000 l    df *ABS*	00000000 readr.c
00000000 l    df *ABS*	00000000 mallocr.c
00000000 l    df *ABS*	00000000 s_fpclassify.c
00000000 l    df *ABS*	00000000 sbrkr.c
00000000 l    df *ABS*	00000000 sccl.c
00000000 l    df *ABS*	00000000 sf_nan.c
00000000 l    df *ABS*	00000000 strtod.c
0010d160 l     F .text	00000064 sulp
00123688 l     O .rodata	00000014 fpinan.2773
0012369c l     O .rodata	00000014 fpi.2737
001236b0 l     O .rodata	00000028 tinytens
00000000 l    df *ABS*	00000000 strtol.c
00000000 l    df *ABS*	00000000 strtoll_r.c
00000000 l    df *ABS*	00000000 strtoul.c
00000000 l    df *ABS*	00000000 strtoull_r.c
00000000 l    df *ABS*	00000000 vfprintf.c
001236d8 l     O .rodata	00000010 zeroes.4333
001236e8 l     O .rodata	00000010 blanks.4332
00000000 l    df *ABS*	00000000 vfscanf.c
001236f8 l     O .rodata	00000022 basefix.3791
00000000 l    df *ABS*	00000000 ungetc.c
00000000 l    df *ABS*	00000000 vfprintf.c
00111fa0 l     F .text	000000fc __sprint_r.part.0
0012371a l     O .rodata	00000010 zeroes.4349
001135dc l     F .text	000000bc __sbprintf
0012372a l     O .rodata	00000010 blanks.4348
00000000 l    df *ABS*	00000000 mallocr.c
00000000 l    df *ABS*	00000000 fclose.c
00000000 l    df *ABS*	00000000 fputwc.c
00000000 l    df *ABS*	00000000 fstatr.c
00000000 l    df *ABS*	00000000 gdtoa-gethex.c
00113adc l     F .text	00000100 rshift
00000000 l    df *ABS*	00000000 gdtoa-hexnan.c
00000000 l    df *ABS*	00000000 isattyr.c
00000000 l    df *ABS*	00000000 strncmp.c
00000000 l    df *ABS*	00000000 wbuf.c
00000000 l    df *ABS*	00000000 wcrtomb.c
00000000 l    df *ABS*	00000000 wctomb_r.c
00000000 l    df *ABS*	00000000 libgcc2.c
00000000 l    df *ABS*	00000000 libgcc2.c
00000000 l    df *ABS*	00000000 libgcc2.c
00000000 l    df *ABS*	00000000 libgcc2.c
00000000 l    df *ABS*	00000000 lib2-divmod.c
00000000 l    df *ABS*	00000000 lib2-mul.c
00000000 l    df *ABS*	00000000 eqsf2.c
00000000 l    df *ABS*	00000000 gesf2.c
00000000 l    df *ABS*	00000000 lesf2.c
00000000 l    df *ABS*	00000000 adddf3.c
00000000 l    df *ABS*	00000000 divdf3.c
00000000 l    df *ABS*	00000000 eqdf2.c
00000000 l    df *ABS*	00000000 gedf2.c
00000000 l    df *ABS*	00000000 ledf2.c
00000000 l    df *ABS*	00000000 muldf3.c
00000000 l    df *ABS*	00000000 subdf3.c
00000000 l    df *ABS*	00000000 fixdfsi.c
00000000 l    df *ABS*	00000000 floatsidf.c
00000000 l    df *ABS*	00000000 floatunsidf.c
00000000 l    df *ABS*	00000000 truncdfsf2.c
00000000 l    df *ABS*	00000000 libgcc2.c
00000000 l    df *ABS*	00000000 libgcc2.c
00000000 l    df *ABS*	00000000 alt_close.c
00118650 l     F .text	0000003c alt_get_errno
00000000 l    df *ABS*	00000000 alt_dev.c
00118764 l     F .text	0000002c alt_dev_null_write
00000000 l    df *ABS*	00000000 alt_errno.c
00000000 l    df *ABS*	00000000 alt_fstat.c
00118790 l     F .text	0000003c alt_get_errno
00000000 l    df *ABS*	00000000 alt_isatty.c
00118884 l     F .text	0000003c alt_get_errno
00000000 l    df *ABS*	00000000 alt_load.c
0011896c l     F .text	00000068 alt_load_section
00000000 l    df *ABS*	00000000 alt_lseek.c
00118a58 l     F .text	0000003c alt_get_errno
00000000 l    df *ABS*	00000000 alt_main.c
00000000 l    df *ABS*	00000000 alt_read.c
00118c2c l     F .text	0000003c alt_get_errno
00000000 l    df *ABS*	00000000 alt_release_fd.c
00000000 l    df *ABS*	00000000 alt_sbrk.c
001255e8 l     O .rwdata	00000004 heap_end
00000000 l    df *ABS*	00000000 alt_write.c
00118ea0 l     F .text	0000003c alt_get_errno
00000000 l    df *ABS*	00000000 alt_env_lock.c
001255ec l     O .rwdata	00000004 lockid
00127284 l     O .bss	00000004 locks
00000000 l    df *ABS*	00000000 alt_malloc_lock.c
001255f0 l     O .rwdata	00000004 lockid
0012728c l     O .bss	00000004 locks
00000000 l    df *ABS*	00000000 os_core.c
0011a8d8 l     F .text	00000048 OS_InitMisc
0011a920 l     F .text	0000006c OS_InitRdyList
0011aa8c l     F .text	000000e4 OS_InitTCBList
0011a7f8 l     F .text	000000e0 OS_InitEventList
0011a98c l     F .text	00000080 OS_InitTaskIdle
0011aa0c l     F .text	00000080 OS_InitTaskStat
0011acfc l     F .text	00000074 OS_SchedNew
00000000 l    df *ABS*	00000000 os_dbg.c
00000000 l    df *ABS*	00000000 os_flag.c
0011ca0c l     F .text	000000f4 OS_FlagTaskRdy
0011c7cc l     F .text	00000160 OS_FlagBlock
00000000 l    df *ABS*	00000000 os_mem.c
00000000 l    df *ABS*	00000000 os_q.c
00000000 l    df *ABS*	00000000 os_sem.c
00000000 l    df *ABS*	00000000 os_task.c
00000000 l    df *ABS*	00000000 os_time.c
00000000 l    df *ABS*	00000000 alt_sys_init.c
00120ae4 l     F .text	00000034 alt_dev_reg
00124544 l     O .rwdata	0000106c jtag_uart_0
00000000 l    df *ABS*	00000000 altera_avalon_jtag_uart_fd.c
00000000 l    df *ABS*	00000000 altera_avalon_jtag_uart_init.c
00120e58 l     F .text	000002a4 altera_avalon_jtag_uart_irq
001210fc l     F .text	00000104 altera_avalon_jtag_uart_timeout
00000000 l    df *ABS*	00000000 altera_avalon_jtag_uart_ioctl.c
00000000 l    df *ABS*	00000000 altera_avalon_jtag_uart_read.c
00000000 l    df *ABS*	00000000 altera_avalon_jtag_uart_write.c
00000000 l    df *ABS*	00000000 altera_avalon_timer_sc.c
001218d8 l     F .text	00000078 alt_avalon_timer_sc_irq
00000000 l    df *ABS*	00000000 alt_alarm_start.c
00000000 l    df *ABS*	00000000 alt_dcache_flush_all.c
00000000 l    df *ABS*	00000000 alt_dev_llist_insert.c
00121b18 l     F .text	0000003c alt_get_errno
00000000 l    df *ABS*	00000000 alt_do_ctors.c
00000000 l    df *ABS*	00000000 alt_do_dtors.c
00000000 l    df *ABS*	00000000 alt_icache_flush_all.c
00000000 l    df *ABS*	00000000 alt_iic.c
00000000 l    df *ABS*	00000000 alt_iic_isr_register.c
00000000 l    df *ABS*	00000000 alt_io_redirect.c
00121f78 l     F .text	000000e4 alt_open_fd
00000000 l    df *ABS*	00000000 alt_irq_vars.c
00000000 l    df *ABS*	00000000 alt_open.c
001220d8 l     F .text	0000003c alt_get_errno
00122114 l     F .text	000000ec alt_file_locked
00000000 l    df *ABS*	00000000 alt_tick.c
00000000 l    df *ABS*	00000000 altera_nios2_qsys_irq.c
00000000 l    df *ABS*	00000000 os_cpu_a.o
00000040 l       *ABS*	00000000 OSCtxSw_SWITCH_PC
00000000 l    df *ABS*	00000000 os_cpu_c.c
00000014 l       *ABS*	00000000 OSTCBNext_OFFSET
00000032 l       *ABS*	00000000 OSTCBPrio_OFFSET
00000000 l       *ABS*	00000000 OSTCBStkPtr_OFFSET
00000000 l    df *ABS*	00000000 alt_find_dev.c
00000000 l    df *ABS*	00000000 alt_find_file.c
00000000 l    df *ABS*	00000000 alt_get_fd.c
00000000 l    df *ABS*	00000000 atexit.c
00000000 l    df *ABS*	00000000 exit.c
00000000 l    df *ABS*	00000000 memcmp.c
00000000 l    df *ABS*	00000000 __atexit.c
00000000 l    df *ABS*	00000000 __call_atexit.c
00000000 l    df *ABS*	00000000 alt_exit.c
0010c884 g     F .text	00000074 _mprec_log10
0012563e g     O .rwdata	00000002 OSTaskNameSize
0010c970 g     F .text	0000008c __any_on
00114688 g     F .text	00000054 _isatty_r
00123560 g     O .rodata	00000028 __mprec_tinytens
00118b70 g     F .text	000000bc alt_main
0010183c g     F .text	000000c0 _puts_r
0012e548 g     O .bss	00000100 alt_irq
0010aab8 g     F .text	00000060 _lseek_r
0011d22c g     F .text	000000d8 OS_MemInit
00125674 g       *ABS*	00000000 __flash_rwdata_start
00120a84 g     F .text	00000060 OSTimeSet
00116e80 g     F .text	00000088 .hidden __eqdf2
00101388 g     F .text	000000b4 configure_node
0011954c g     F .text	00000610 OSEventPendMulti
0012e648 g       *ABS*	00000000 __alt_heap_start
00122750 g     F .text	00000024 OSTaskCreateHook
00101e14 g     F .text	00000008 strtok_r
00127324 g     O .bss	00002000 task1_stk
00101800 g     F .text	0000003c printf
00125616 g     O .rwdata	00000002 OSMboxEn
00119bb4 g     F .text	0000004c OSIntEnter
00114904 g     F .text	0000009c _wcrtomb_r
00101ba0 g     F .text	0000005c __sseek
00109ed8 g     F .text	00000010 __sinit
001147ac g     F .text	00000140 __swbuf_r
00125626 g     O .rwdata	00000002 OSQEn
0010a9dc g     F .text	0000007c _setlocale_r
00109d30 g     F .text	00000078 __sfmoreglue
00111f88 g     F .text	00000018 ungetc
00119220 g     F .text	000000cc __malloc_unlock
001227b8 g     F .text	00000020 OSTaskStatHook
00127294 g     O .bss	00000001 OSLockNesting
0010d1c4 g     F .text	000015e4 _strtod_r
00125664 g     O .rwdata	00000002 OSDataSize
00127295 g     O .bss	00000001 OSRunning
00110ad4 g     F .text	00000100 _sfread_r
0010b7e8 g     F .text	0000015c memmove
001227f8 g     F .text	00000020 OSInitHookBegin
0012565c g     O .rwdata	00000002 OSTmrSize
00109ec0 g     F .text	00000018 _cleanup
0010b944 g     F .text	000000a8 _Balloc
00101d78 g     F .text	0000009c __strtok_r
00127298 g     O .bss	00000004 OSIdleCtr
00116f08 g     F .text	000000dc .hidden __gtdf2
001225d0 g       .text	00000000 OSStartTsk
0011b02c g     F .text	000002d4 OS_TCBInit
00101204 g     F .text	00000184 tis_assembler_test
00100000 g     F .entry	0000000c __reset
00125662 g     O .rwdata	00000002 OSTmrWheelTblSize
00100020 g       *ABS*	00000000 __flash_exceptions_start
00125602 g     O .rwdata	00000002 OSEventSize
0012729c g     O .bss	00000001 OSPrioHighRdy
00113a80 g     F .text	0000005c _fstat_r
00122774 g     F .text	00000024 OSTaskDelHook
00127258 g     O .bss	00000004 errno
00101b1c g     F .text	00000008 __seofread
001225b0 g       .text	00000000 OSStartHighRdy
0011f504 g     F .text	000001e4 OSTaskCreateExt
0010f5bc g     F .text	000013a0 ___svfiprintf_internal_r
0011c314 g     F .text	00000060 OSFlagPendGetFlagsRdy
00125642 g     O .rwdata	00000002 OSTaskStatStkSize
0011b490 g     F .text	00000308 OSFlagAccept
0011d870 g     F .text	000000b8 OSQFlush
0011d304 g     F .text	00000140 OSQAccept
0012727c g     O .bss	00000004 alt_argv
0012d5b0 g       *ABS*	00000000 _gp
0011f358 g     F .text	000001ac OSTaskCreate
0011ee68 g     F .text	000004f0 OSTaskChangePrio
00127290 g     O .bss	00000004 alt_heapsem
0011b300 g     F .text	00000190 OSDebugInit
0011f6e8 g     F .text	00000344 OSTaskDel
001243c4 g     O .rwdata	00000180 alt_fd_list
0012b324 g     O .bss	00000370 OSFlagTbl
0011a5d8 g     F .text	000000b8 OS_EventTaskRemove
0012287c g     F .text	00000090 alt_find_dev
00101560 g     F .text	00000148 memcpy
0011442c g     F .text	0000025c __hexnan
0012562c g     O .rwdata	00000002 OSRdyTblSize
00109b80 g     F .text	0000000c _cleanup_r
001182c0 g     F .text	000000dc .hidden __floatsidf
0012205c g     F .text	0000007c alt_io_redirect
00116fe4 g     F .text	000000f4 .hidden __ltdf2
00122e9c g       *ABS*	00000000 __DTOR_END__
001018fc g     F .text	00000014 puts
001192ec g     F .text	00000120 OSEventNameGet
00125610 g     O .rwdata	00000002 OSFlagMax
0010b58c g     F .text	000000d8 mbrtowc
0010cfc0 g     F .text	00000074 __fpclassifyd
0010c7e0 g     F .text	000000a4 __ratio
00119c00 g     F .text	000000f8 OSIntExit
001135c0 g     F .text	0000001c __vfiprintf_internal
0012564a g     O .rwdata	00000002 OSTCBSize
0012729d g     O .bss	00000001 OSPrioCur
00121358 g     F .text	000002bc altera_avalon_jtag_uart_read
001017d0 g     F .text	00000030 _printf_r
00100000 g       *ABS*	00000000 __alt_mem_onchip_memory2_0
00115924 g     F .text	00000064 .hidden __udivsi3
001188c0 g     F .text	000000ac isatty
00125630 g     O .rwdata	00000002 OSStkWidth
0010a9ac g     F .text	00000030 iswspace
001235b0 g     O .rodata	000000c8 __mprec_tens
00125624 g     O .rwdata	00000002 OSPtrSize
0010aa58 g     F .text	0000000c __locale_charset
00115b3c g     F .text	000000c8 .hidden __lesf2
00125604 g     O .rwdata	00000002 OSEventTblSize
00114bf8 g     F .text	00000074 .hidden __fixunsdfsi
00122524 g       .text	00000000 OSCtxSw
00127270 g     O .bss	00000004 __malloc_top_pad
00110a64 g     F .text	00000070 __ssrefill_r
001272a0 g     O .bss	00000004 OSTCBList
00127274 g     O .bss	00000004 alt_fd_list_lock
0010f0b0 g     F .text	0000001c strtoul
001255bc g     O .rwdata	00000004 __mb_cur_max
0010aa88 g     F .text	0000000c _localeconv_r
0010f0cc g     F .text	00000320 _strtoull_r
0010bd78 g     F .text	0000003c __i2b
0010a35c g     F .text	000004c8 __sfvwrite_r
0012b694 g     O .bss	00000c30 OSMemTbl
001272a4 g     O .bss	00000001 OSTickStepState
0010d034 g     F .text	00000054 _sbrk_r
00125628 g     O .rwdata	00000002 OSQMax
0012c2c4 g     O .bss	00000800 OSTaskStatStk
0011ce68 g     F .text	000000f0 OSMemNameGet
00125608 g     O .rwdata	00000002 OSFlagEn
0010c9fc g     F .text	00000060 _read_r
0012564e g     O .rwdata	00000002 OSTimeTickHookEn
0011dd20 g     F .text	00000168 OSQPost
0011cb00 g     F .text	000000a4 OS_FlagUnlink
001255e0 g     O .rwdata	00000004 alt_max_fd
0011abc4 g     F .text	00000068 OS_MemCopy
0011ac2c g     F .text	000000d0 OS_Sched
00113774 g     F .text	000000f0 _fclose_r
0011cd78 g     F .text	000000f0 OSMemGet
0011fd14 g     F .text	000001b4 OSTaskNameSet
00109b48 g     F .text	00000030 fflush
0012726c g     O .bss	00000004 __malloc_max_sbrked_mem
001272a8 g     O .bss	00000004 OSCtxSwCtr
001227d8 g     F .text	00000020 OSTimeTickHook
00125612 g     O .rwdata	00000002 OSFlagNameSize
001040d8 g     F .text	0000198c __ssvfscanf_r
0011a690 g     F .text	00000100 OS_EventTaskRemoveMulti
00115c04 g     F .text	000008ac .hidden __adddf3
00115a08 g     F .text	00000078 .hidden __nesf2
0011a488 g     F .text	00000150 OS_EventTaskWaitMulti
0010c588 g     F .text	0000010c __b2d
0012562a g     O .rwdata	00000002 OSQSize
00115268 g     F .text	000005c4 .hidden __umoddi3
00118a94 g     F .text	000000dc lseek
0011e7d0 g     F .text	0000020c OSSemPend
001255b4 g     O .rwdata	00000004 _global_impure_ptr
0010ca5c g     F .text	00000564 _realloc_r
00125614 g     O .rwdata	00000002 OSLowestPrio
0012e648 g       *ABS*	00000000 __bss_end
00121e88 g     F .text	000000f0 alt_iic_isr_register
00122858 g     F .text	00000024 OSTCBInitHook
0012565a g     O .rwdata	00000002 OSTmrCfgTicksPerSec
001223f8 g     F .text	00000108 alt_tick
0012373a g     O .rodata	00000100 __hexdig
00114c6c g     F .text	000005fc .hidden __udivdi3
001139dc g     F .text	00000024 _fputwc_r
001255fc g     O .rwdata	00000002 OSEventEn
00123588 g     O .rodata	00000028 __mprec_bigtens
0010bb5c g     F .text	00000104 __s2b
00125656 g     O .rwdata	00000002 OSTmrCfgNameSize
0011839c g     F .text	000000a8 .hidden __floatunsidf
0010c2c8 g     F .text	00000060 __mcmp
00109ef8 g     F .text	00000018 __fp_lock_all
00121e3c g     F .text	0000004c alt_ic_irq_enabled
0011c92c g     F .text	000000e0 OS_FlagInit
0012235c g     F .text	0000009c alt_alarm_stop
0010eb18 g     F .text	0000001c strtol
00125638 g     O .rwdata	00000002 OSTaskIdleStkSize
001272e4 g     O .bss	00000004 alt_irq_active
0011e408 g     F .text	000000b0 OSSemAccept
0011d06c g     F .text	000000d8 OSMemPut
0011cba4 g     F .text	000001d4 OSMemCreate
001272ac g     O .bss	00000004 OSIdleCtrMax
001000ec g     F .exceptions	000000d4 alt_irq_handler
0012439c g     O .rwdata	00000028 alt_dev_null
0012564c g     O .rwdata	00000002 OSTicksPerSec
00122524 g       .text	00000000 OSIntCtxSw
00121af8 g     F .text	00000020 alt_dcache_flush_all
0010bc60 g     F .text	00000068 __hi0bits
00100ffc g     F .text	00000208 tis_disassembler_test
00118240 g     F .text	00000080 .hidden __fixdfsi
0010e7a8 g     F .text	00000018 strtod
001272b0 g     O .bss	00000004 OSTCBFreeList
00125674 g       *ABS*	00000000 __ram_rwdata_end
0011e9dc g     F .text	0000016c OSSemPendAbort
001255d8 g     O .rwdata	00000008 alt_dev_list
00118edc g     F .text	00000100 write
00125650 g     O .rwdata	00000002 OSVersionNbr
00115a80 g     F .text	000000bc .hidden __gtsf2
00123a94 g       *ABS*	00000000 __ram_rodata_end
001187cc g     F .text	000000b8 fstat
00116fe4 g     F .text	000000f4 .hidden __ledf2
001255f8 g     O .rwdata	00000004 OSEndiannessTest
0010c040 g     F .text	00000140 __pow5mult
001120b4 g     F .text	0000150c ___vfiprintf_internal_r
00127264 g     O .bss	00000004 __nlocale_changed
00115988 g     F .text	00000058 .hidden __umodsi3
0012560a g     O .rwdata	00000002 OSFlagGrpSize
0012e648 g       *ABS*	00000000 end
00120d10 g     F .text	00000148 altera_avalon_jtag_uart_init
0011ae94 g     F .text	000000cc OS_TaskStat
00122e9c g       *ABS*	00000000 __CTOR_LIST__
00140000 g       *ABS*	00000000 __alt_stack_pointer
00121950 g     F .text	0000007c alt_avalon_timer_sc_init
001185ec g     F .text	00000064 .hidden __clzsi2
00121614 g     F .text	000002c4 altera_avalon_jtag_uart_write
00109ee8 g     F .text	00000004 __sfp_lock_acquire
0010b704 g     F .text	000000e4 memchr
0011ab70 g     F .text	00000054 OS_MemClr
00105a64 g     F .text	000022dc ___vfprintf_internal_r
001225f4 g     F .text	0000015c OSTaskStkInit
001001fc g     F .text	00000050 task1
00101910 g     F .text	00000058 _sprintf_r
0010a04c g     F .text	00000310 _free_r
0010aa64 g     F .text	00000010 __locale_mb_cur_max
0011a1e0 g     F .text	00000198 OS_EventTaskRdy
00122ce8 g     F .text	00000180 __call_exitprocs
001272b4 g     O .bss	00000001 OSCPUUsage
0011095c g     F .text	00000108 _sungetc_r
00127260 g     O .bss	00000004 __mlocale_changed
001255c0 g     O .rwdata	00000004 __malloc_sbrk_base
001001c0 g     F .text	0000003c _start
0010024c g     F .text	0000006c task2
001272e8 g     O .bss	00000004 _alt_tick_rate
0011d928 g     F .text	0000028c OSQPend
0010eb34 g     F .text	00000304 _strtoll_r
001205d4 g     F .text	00000104 OSTimeDly
0010c180 g     F .text	00000148 __lshift
001272ec g     O .bss	00000004 _alt_nticks
00118c68 g     F .text	00000104 read
00120b50 g     F .text	0000005c alt_sys_init
0010f3ec g     F .text	000001d0 __ssprint_r
00122bd0 g     F .text	00000118 __register_exitproc
001272b5 g     O .bss	00000001 OSTaskCtr
001146dc g     F .text	000000d0 strncmp
001206d8 g     F .text	0000017c OSTimeDlyHMSM
0010bdb4 g     F .text	0000028c __multiply
00121200 g     F .text	00000068 altera_avalon_jtag_uart_close
001159e0 g     F .text	00000028 .hidden __mulsi3
00123a94 g       *ABS*	00000000 __ram_rwdata_start
00122e9c g       *ABS*	00000000 __ram_rodata_start
001272fc g     O .bss	00000028 __malloc_current_mallinfo
001255fe g     O .rwdata	00000002 OSEventMax
00115a08 g     F .text	00000078 .hidden __eqsf2
0010c694 g     F .text	0000014c __d2b
0011eb48 g     F .text	00000110 OSSemPost
00119d84 g     F .text	000000dc OSSchedUnlock
00120bac g     F .text	00000060 altera_avalon_jtag_uart_read_fd
0010ee38 g     F .text	00000278 _strtoul_r
00122a14 g     F .text	000000f4 alt_get_fd
001272b8 g     O .bss	00000004 OSMemFreeList
00119ed0 g     F .text	000000b0 OSStatInit
0011c708 g     F .text	000000c4 OSFlagQuery
00125634 g     O .rwdata	00000002 OSTaskCreateExtEn
00107fcc g     F .text	00000054 _close_r
00122b54 g     F .text	0000007c memcmp
0011a1c0 g     F .text	00000020 OS_Dummy
00120c6c g     F .text	00000050 altera_avalon_jtag_uart_close_fd
0012e648 g       *ABS*	00000000 __alt_stack_base
00120cbc g     F .text	00000054 altera_avalon_jtag_uart_ioctl_fd
001019d4 g     F .text	0000007c sscanf
00107e78 g     F .text	00000154 __swsetup_r
0012cac4 g     O .bss	000001e0 OSQTbl
001164b0 g     F .text	000009d0 .hidden __divdf3
00109da8 g     F .text	00000118 __sfp
0010c8f8 g     F .text	00000078 __copybits
00123f94 g     O .rwdata	00000408 __malloc_av_
00109ef4 g     F .text	00000004 __sinit_lock_release
001272bc g     O .bss	00000004 OSTCBHighRdy
001170d8 g     F .text	0000086c .hidden __muldf3
00101ac8 g     F .text	00000054 __sread
001272c0 g     O .bss	00000004 OSQFreeList
0012290c g     F .text	00000108 alt_find_file
00121b54 g     F .text	000000a4 alt_dev_llist_insert
00119100 g     F .text	00000120 __malloc_lock
00118df0 g     F .text	000000b0 sbrk
00101e1c g     F .text	000022bc ___svfprintf_internal_r
0011940c g     F .text	00000140 OSEventNameSet
00109aec g     F .text	0000005c _fflush_r
00113698 g     F .text	000000dc _calloc_r
001272c4 g     O .bss	00000001 OSRdyGrp
00127254 g       *ABS*	00000000 __bss_start
001016a8 g     F .text	00000128 memset
001002b8 g     F .text	000000dc main
00127280 g     O .bss	00000004 alt_envp
00127268 g     O .bss	00000004 __malloc_max_total_mem
00120c0c g     F .text	00000060 altera_avalon_jtag_uart_write_fd
00100794 g     F .text	00000080 tis_register_encode
001148ec g     F .text	00000018 __swbuf
0012395c g     O .rodata	00000100 OSUnMapTbl
00115b3c g     F .text	000000c8 .hidden __ltsf2
0012562e g     O .rwdata	00000002 OSSemEn
0011c374 g     F .text	00000394 OSFlagPost
00101bfc g     F .text	00000008 __sclose
00140000 g       *ABS*	00000000 __alt_heap_limit
00113864 g     F .text	00000014 fclose
0011a378 g     F .text	00000110 OS_EventTaskWait
00129324 g     O .bss	00002000 task2_stk
0010e8c0 g     F .text	00000258 _strtol_r
00118444 g     F .text	000001a8 .hidden __truncdfsf2
0011af60 g     F .text	000000cc OS_TaskStatStkChk
0011fa2c g     F .text	00000150 OSTaskDelReq
00108248 g     F .text	00001688 _dtoa_r
0010acd4 g     F .text	0000080c _malloc_r
00114a60 g     F .text	00000030 __ascii_wctomb
001255e4 g     O .rwdata	00000004 alt_errno
00119e60 g     F .text	00000070 OSStart
00111d20 g     F .text	000000d4 __submore
001190a0 g     F .text	00000060 __env_unlock
0010a824 g     F .text	000000c4 _fwalk
0011fec8 g     F .text	000001d4 OSTaskResume
0011d144 g     F .text	000000e8 OSMemQuery
001008ac g     F .text	00000064 tis_imm11_encode
00125640 g     O .rwdata	00000002 OSTaskStatEn
0010b6a8 g     F .text	0000005c _mbtowc_r
0012561a g     O .rwdata	00000002 OSMemMax
0011de88 g     F .text	00000170 OSQPostFront
0011582c g     F .text	00000084 .hidden __divsi3
001272c5 g     O .bss	00000003 OSRdyTbl
001255f4 g     O .rwdata	00000002 OSDebugEn
00109f28 g     F .text	00000124 _malloc_trim_r
00122e9c g       *ABS*	00000000 __CTOR_END__
0012560c g     O .rwdata	00000002 OSFlagNodeSize
00125654 g     O .rwdata	00000002 OSTmrCfgMax
00101c04 g     F .text	000000dc strcmp
0011d444 g     F .text	000001ac OSQCreate
0011fb7c g     F .text	00000198 OSTaskNameGet
00122e9c g       *ABS*	00000000 __flash_rodata_start
0011dff8 g     F .text	0000020c OSQPostOpt
00119f80 g     F .text	00000220 OSTimeTick
0012563c g     O .rwdata	00000002 OSTaskMax
00122e9c g       *ABS*	00000000 __DTOR_LIST__
00100394 g     F .text	00000400 tis_dissassemble
0011e4b8 g     F .text	000000d8 OSSemCreate
00125660 g     O .rwdata	00000002 OSTmrWheelSize
00100910 g     F .text	000006ec tis_assemble_program
00116e80 g     F .text	00000088 .hidden __nedf2
00125636 g     O .rwdata	00000002 OSTaskDelEn
0011ec58 g     F .text	00000110 OSSemQuery
0011d5f0 g     F .text	00000280 OSQDel
0011dbb4 g     F .text	0000016c OSQPendAbort
00120b18 g     F .text	00000038 alt_irq_init
00118d6c g     F .text	00000084 alt_release_fd
00101968 g     F .text	0000006c sprintf
0012383a g     O .rodata	00000100 .hidden __clz_tab
0012725c g     O .bss	00000004 _PathLocale
0010e7c0 g     F .text	00000100 strtof
00122b08 g     F .text	00000014 atexit
00115a80 g     F .text	000000bc .hidden __gesf2
00107e18 g     F .text	00000060 _write_r
00119cf8 g     F .text	0000008c OSSchedLock
0010aa94 g     F .text	00000018 setlocale
0011b798 g     F .text	00000108 OSFlagCreate
00100814 g     F .text	00000098 tis_opcode_encode
0010d158 g     F .text	00000008 nanf
001255b8 g     O .rwdata	00000004 _impure_ptr
00127278 g     O .bss	00000004 alt_argc
001098d0 g     F .text	0000021c __sflush_r
0010b4e0 g     F .text	000000ac _mbrtowc_r
00121c58 g     F .text	00000060 _do_dtors
0010aa80 g     F .text	00000008 __locale_cjk_lang
00125606 g     O .rwdata	00000002 OSEventMultiEn
0011b8a0 g     F .text	00000248 OSFlagDel
001272c8 g     O .bss	00000004 OSEventFreeList
00100020 g       .exceptions	00000000 alt_irq_entry
0010b664 g     F .text	00000044 __ascii_mbtowc
0010c524 g     F .text	00000064 __ulp
0011bd5c g     F .text	000005b8 OSFlagPend
00125652 g     O .rwdata	00000002 OSTmrEn
00109f10 g     F .text	00000018 __fp_unlock_all
001255d0 g     O .rwdata	00000008 alt_fs_list
0011ad70 g     F .text	00000074 OS_StrCopy
0012561c g     O .rwdata	00000002 OSMemNameSize
00122818 g     F .text	00000020 OSInitHookEnd
00110bd4 g     F .text	0000114c __ssvfiscanf_r
00100020 g       *ABS*	00000000 __ram_exceptions_start
00125648 g     O .rwdata	00000002 OSTCBPrioTblMax
0010aaac g     F .text	0000000c localeconv
00125644 g     O .rwdata	00000002 OSTaskStatStkChkEn
00121cd8 g     F .text	00000050 alt_ic_isr_register
00125618 g     O .rwdata	00000002 OSMemEn
00101a50 g     F .text	00000078 _sscanf_r
00125622 g     O .rwdata	00000002 OSMutexEn
00125674 g       *ABS*	00000000 _edata
0012e648 g       *ABS*	00000000 _end
001272cc g     O .bss	00000001 OSIntNesting
00113878 g     F .text	00000164 __fputwc
001001c0 g       *ABS*	00000000 __ram_exceptions_end
00121268 g     F .text	000000f0 altera_avalon_jtag_uart_ioctl
00120854 g     F .text	000001d4 OSTimeDlyResume
0011bc10 g     F .text	0000014c OSFlagNameSet
0012009c g     F .text	000001c0 OSTaskStkChk
00121db0 g     F .text	0000008c alt_ic_irq_disable
0012561e g     O .rwdata	00000002 OSMemSize
00101b24 g     F .text	0000007c __swrite
001255c4 g     O .rwdata	00000004 __malloc_trim_threshold
00122500 g     F .text	00000024 altera_nios2_qsys_irq_init
0010aa74 g     F .text	0000000c __locale_msgcharset
001272d0 g     O .bss	00000004 OSTCBCur
00122b1c g     F .text	00000038 exit
00125620 g     O .rwdata	00000002 OSMemTblSize
0010a8e8 g     F .text	000000c4 _fwalk_reent
0010c328 g     F .text	000001fc __mdiff
001158b0 g     F .text	00000074 .hidden __modsi3
001255b0 g     O .rwdata	00000004 __ctype_ptr__
00140000 g       *ABS*	00000000 __alt_data_end
00100020 g     F .exceptions	00000000 alt_exception
00109eec g     F .text	00000004 __sfp_lock_release
00119b5c g     F .text	00000058 OSInit
00120440 g     F .text	00000124 OSTaskQuery
0011e360 g     F .text	000000a8 OS_QInit
0010d088 g     F .text	000000d0 __sccl
0011ade4 g     F .text	00000054 OS_StrLen
0011cf58 g     F .text	00000114 OSMemNameSet
001232b0 g     O .rodata	00000101 _ctype_
0012563a g     O .rwdata	00000002 OSTaskProfileEn
001272d4 g     O .bss	00000004 OSTime
001255c8 g     O .rwdata	00000004 __mbtowc
0012cca4 g     O .bss	00000800 OSTaskIdleStk
00122e68 g     F .text	00000034 _exit
001219cc g     F .text	0000012c alt_alarm_start
0011bae8 g     F .text	00000128 OSFlagNameGet
00120a28 g     F .text	0000005c OSTimeGet
0010143c g     F .text	00000124 node_info
00114aec g     F .text	0000010c .hidden __muldi3
0010ab18 g     F .text	000001bc __smakebuf_r
00101ce0 g     F .text	00000098 strlen
00122798 g     F .text	00000020 OSTaskSwHook
00122200 g     F .text	0000015c open
0012d4a4 g     O .bss	00000b40 OSEventTbl
00116f08 g     F .text	000000dc .hidden __gedf2
0012dfe4 g     O .bss	00000510 OSTCBTbl
00113bdc g     F .text	00000850 __gethex
0011ed68 g     F .text	00000100 OSSemSet
001255cc g     O .rwdata	00000004 __wctomb
0011209c g     F .text	00000018 __sprint_r
00121cb8 g     F .text	00000020 alt_icache_flush_all
00125668 g     O .rwdata	00000004 alt_priority_mask
0011e590 g     F .text	00000240 OSSemDel
001272d8 g     O .bss	00000004 OSFlagFreeList
00121d28 g     F .text	00000088 alt_ic_irq_enable
00125600 g     O .rwdata	00000002 OSEventNameSize
00107d40 g     F .text	0000001c __vfprintf_internal
001272dc g     O .bss	00000001 OSStatRdy
0012e4f4 g     O .bss	00000054 OSTCBPrioTbl
00114a90 g     F .text	0000005c _wctomb_r
00118fdc g     F .text	000000c4 __env_lock
00125646 g     O .rwdata	00000002 OSTaskSwHookEn
00117944 g     F .text	000008fc .hidden __subdf3
0010bcc8 g     F .text	000000b0 __lo0bits
0012566c g     O .rwdata	00000008 alt_alarm_list
00111df4 g     F .text	00000194 _ungetc_r
0012560e g     O .rwdata	00000002 OSFlagWidth
00121bf8 g     F .text	00000060 _do_ctors
001149a0 g     F .text	000000c0 wcrtomb
0011868c g     F .text	000000d8 close
00127288 g     O .bss	00000004 alt_envsem
001272e0 g     O .bss	00000004 OSIdleCtrRun
0011a1a0 g     F .text	00000020 OSVersion
00125658 g     O .rwdata	00000002 OSTmrCfgWheelSize
001189d4 g     F .text	00000084 alt_load
00120564 g     F .text	00000070 OS_TaskStkClr
00125632 g     O .rwdata	00000002 OSTaskCreateEn
0011a790 g     F .text	00000068 OS_EventWaitListInit
00113a00 g     F .text	00000080 fputwc
00122838 g     F .text	00000020 OSTaskIdleHook
00109ef0 g     F .text	00000004 __sinit_lock_acquire
0010ba14 g     F .text	00000148 __multadd
0012025c g     F .text	000001e4 OSTaskSuspend
0010b9ec g     F .text	00000028 _Bfree
0011ae38 g     F .text	0000005c OS_TaskIdle
0012565e g     O .rwdata	00000002 OSTmrTblSize
0011e204 g     F .text	0000015c OSQQuery



Disassembly of section .entry:

00100000 <__reset>:
 * Jump to the _start entry point in the .text section if reset code
 * is allowed or if optimizing for RTL simulation.
 */
#if defined(ALT_ALLOW_CODE_AT_RESET) || defined(ALT_SIM_OPTIMIZE)
    /* Jump to the _start entry point in the .text section. */
    movhi r1, %hi(_start)
  100000:	00400434 	movhi	at,16
    ori r1, r1, %lo(_start)
  100004:	08407014 	ori	at,at,448
    jmp r1
  100008:	0800683a 	jmp	at
	...

Disassembly of section .exceptions:

00100020 <alt_exception>:

#else /* ALT_EXCEPTION_STACK disabled */
        /* 
         * Reserve space on normal stack for registers about to be pushed.
         */
        addi  sp, sp, -76
  100020:	deffed04 	addi	sp,sp,-76
         * documentation for details).
         *
         * Leave a gap in the stack frame at 4(sp) for the muldiv handler to
         * store zero into.
         */
        stw   ra,  0(sp)
  100024:	dfc00015 	stw	ra,0(sp)
        stw   r1,   8(sp)
  100028:	d8400215 	stw	at,8(sp)
        stw   r2,  12(sp)
  10002c:	d8800315 	stw	r2,12(sp)
        stw   r3,  16(sp)
  100030:	d8c00415 	stw	r3,16(sp)
        stw   r4,  20(sp)
  100034:	d9000515 	stw	r4,20(sp)
        stw   r5,  24(sp)
  100038:	d9400615 	stw	r5,24(sp)
        stw   r6,  28(sp)
  10003c:	d9800715 	stw	r6,28(sp)
        stw   r7,  32(sp)
  100040:	d9c00815 	stw	r7,32(sp)
        rdctl r5, estatus   /* Read early to avoid usage stall */
  100044:	000b307a 	rdctl	r5,estatus
        stw   r8,  36(sp)
  100048:	da000915 	stw	r8,36(sp)
        stw   r9,  40(sp)
  10004c:	da400a15 	stw	r9,40(sp)
        stw   r10, 44(sp)
  100050:	da800b15 	stw	r10,44(sp)
        stw   r11, 48(sp)
  100054:	dac00c15 	stw	r11,48(sp)
        stw   r12, 52(sp)
  100058:	db000d15 	stw	r12,52(sp)
        stw   r13, 56(sp)
  10005c:	db400e15 	stw	r13,56(sp)
        stw   r14, 60(sp)
  100060:	db800f15 	stw	r14,60(sp)
        stw   r15, 64(sp)
  100064:	dbc01015 	stw	r15,64(sp)
        /*
         * ea-4 contains the address of the instruction being executed
         * when the exception occured. For interrupt exceptions, we will
         * will be re-issue the isntruction. Store it in 72(sp)
         */
        stw   r5,  68(sp)  /* estatus */
  100068:	d9401115 	stw	r5,68(sp)
        addi  r15, ea, -4  /* instruction that caused exception */
  10006c:	ebffff04 	addi	r15,ea,-4
        stw   r15,  72(sp)
  100070:	dbc01215 	stw	r15,72(sp)
#else
        /*
         * Test to see if the exception was a software exception or caused 
         * by an external interrupt, and vector accordingly.
         */
        rdctl r4, ipending
  100074:	0009313a 	rdctl	r4,ipending
        andi  r2, r5, 1
  100078:	2880004c 	andi	r2,r5,1
        beq   r2, zero, .Lnot_irq
  10007c:	10000326 	beq	r2,zero,10008c <alt_exception+0x6c>
        beq   r4, zero, .Lnot_irq
  100080:	20000226 	beq	r4,zero,10008c <alt_exception+0x6c>
        /*
         * Now that all necessary registers have been preserved, call 
         * alt_irq_handler() to process the interrupts.
         */

        call alt_irq_handler
  100084:	01000ec0 	call	1000ec <alt_irq_handler>

        .section .exceptions.irqreturn, "xa"

        br    .Lexception_exit
  100088:	00000306 	br	100098 <alt_exception_unknown+0x4>
         * upon completion, so we write ea (address of instruction *after*
         * the one where the exception occured) into 72(sp). The actual
         * instruction that caused the exception is written in r2, which these
         * handlers will utilize.
         */
        stw   ea,  72(sp)  /* Don't re-issue */
  10008c:	df401215 	stw	ea,72(sp)
        ldw   r2, -4(ea)   /* Instruction that caused exception */
  100090:	e8bfff17 	ldw	r2,-4(ea)

00100094 <alt_exception_unknown>:
#ifdef NIOS2_HAS_DEBUG_STUB
       /*
        *  Either tell the user now (if there is a debugger attached) or go into
        *  the debug monitor which will loop until a debugger is attached.
        */
        break
  100094:	003da03a 	break	0
        /* 
         * Restore the saved registers, so that all general purpose registers 
         * have been restored to their state at the time the interrupt occured.
         */

        ldw   r5,  68(sp)
  100098:	d9401117 	ldw	r5,68(sp)
        ldw   ea,  72(sp)  /* This becomes the PC once eret is executed */
  10009c:	df401217 	ldw	ea,72(sp)
        ldw   ra,   0(sp)
  1000a0:	dfc00017 	ldw	ra,0(sp)

        wrctl estatus, r5
  1000a4:	2801707a 	wrctl	estatus,r5

        ldw   r1,   8(sp)
  1000a8:	d8400217 	ldw	at,8(sp)
        ldw   r2,  12(sp)
  1000ac:	d8800317 	ldw	r2,12(sp)
        ldw   r3,  16(sp)
  1000b0:	d8c00417 	ldw	r3,16(sp)
        ldw   r4,  20(sp)
  1000b4:	d9000517 	ldw	r4,20(sp)
        ldw   r5,  24(sp)
  1000b8:	d9400617 	ldw	r5,24(sp)
        ldw   r6,  28(sp)
  1000bc:	d9800717 	ldw	r6,28(sp)
        ldw   r7,  32(sp)
  1000c0:	d9c00817 	ldw	r7,32(sp)

#if defined(ALT_EXCEPTION_STACK) && defined(ALT_STACK_CHECK)
        ldw   et, %gprel(alt_exception_old_stack_limit)(gp)
#endif

        ldw   r8,  36(sp)
  1000c4:	da000917 	ldw	r8,36(sp)
        ldw   r9,  40(sp)
  1000c8:	da400a17 	ldw	r9,40(sp)
        ldw   r10, 44(sp)
  1000cc:	da800b17 	ldw	r10,44(sp)
        ldw   r11, 48(sp)
  1000d0:	dac00c17 	ldw	r11,48(sp)
        ldw   r12, 52(sp)
  1000d4:	db000d17 	ldw	r12,52(sp)
        ldw   r13, 56(sp)
  1000d8:	db400e17 	ldw	r13,56(sp)
        ldw   r14, 60(sp)
  1000dc:	db800f17 	ldw	r14,60(sp)
        ldw   r15, 64(sp)
  1000e0:	dbc01017 	ldw	r15,64(sp)
        stw   et, %gprel(alt_stack_limit_value)(gp)
        stw   zero, %gprel(alt_exception_old_stack_limit)(gp)
#endif /* ALT_STACK_CHECK */
        ldw   sp,  76(sp)
#else /* ALT_EXCEPTION_STACK disabled */
        addi  sp, sp, 76
  1000e4:	dec01304 	addi	sp,sp,76

        /*
         * Return to the interrupted instruction.
         */

        eret
  1000e8:	ef80083a 	eret

001000ec <alt_irq_handler>:
 * instruction is present if the macro ALT_CI_INTERRUPT_VECTOR defined.
 */

void alt_irq_handler (void) __attribute__ ((section (".exceptions")));
void alt_irq_handler (void)
{
  1000ec:	defff904 	addi	sp,sp,-28
  1000f0:	dfc00615 	stw	ra,24(sp)
  1000f4:	df000515 	stw	fp,20(sp)
  1000f8:	df000504 	addi	fp,sp,20
  
  /*
   * Notify the operating system that we are at interrupt level.
   */ 
  
  ALT_OS_INT_ENTER();
  1000fc:	0119bb40 	call	119bb4 <OSIntEnter>
#ifndef NIOS2_EIC_PRESENT
static ALT_INLINE alt_u32 ALT_ALWAYS_INLINE alt_irq_pending (void)
{
  alt_u32 active;

  NIOS2_READ_IPENDING (active);
  100100:	0005313a 	rdctl	r2,ipending
  100104:	e0bffe15 	stw	r2,-8(fp)

  return active;
  100108:	e0bffe17 	ldw	r2,-8(fp)
   * Consider the case where the high priority interupt is asserted during
   * the interrupt entry sequence for a lower priority interrupt to see why
   * this is the case.
   */

  active = alt_irq_pending ();
  10010c:	e0bffb15 	stw	r2,-20(fp)

  do
  {
    i = 0;
  100110:	e03ffd15 	stw	zero,-12(fp)
    mask = 1;
  100114:	00800044 	movi	r2,1
  100118:	e0bffc15 	stw	r2,-16(fp)
     * called to clear the interrupt condition.
     */

    do
    {
      if (active & mask)
  10011c:	e0fffb17 	ldw	r3,-20(fp)
  100120:	e0bffc17 	ldw	r2,-16(fp)
  100124:	1884703a 	and	r2,r3,r2
  100128:	10001426 	beq	r2,zero,10017c <alt_irq_handler+0x90>
      { 
#ifdef ALT_ENHANCED_INTERRUPT_API_PRESENT
        alt_irq[i].handler(alt_irq[i].context); 
  10012c:	008004f4 	movhi	r2,19
  100130:	10b95204 	addi	r2,r2,-6840
  100134:	e0fffd17 	ldw	r3,-12(fp)
  100138:	180690fa 	slli	r3,r3,3
  10013c:	10c5883a 	add	r2,r2,r3
  100140:	10c00017 	ldw	r3,0(r2)
  100144:	008004f4 	movhi	r2,19
  100148:	10b95204 	addi	r2,r2,-6840
  10014c:	e13ffd17 	ldw	r4,-12(fp)
  100150:	200890fa 	slli	r4,r4,3
  100154:	1105883a 	add	r2,r2,r4
  100158:	10800104 	addi	r2,r2,4
  10015c:	10800017 	ldw	r2,0(r2)
  100160:	1009883a 	mov	r4,r2
  100164:	183ee83a 	callr	r3
#else
        alt_irq[i].handler(alt_irq[i].context, i); 
#endif
        break;
  100168:	0001883a 	nop
#ifndef NIOS2_EIC_PRESENT
static ALT_INLINE alt_u32 ALT_ALWAYS_INLINE alt_irq_pending (void)
{
  alt_u32 active;

  NIOS2_READ_IPENDING (active);
  10016c:	0005313a 	rdctl	r2,ipending
  100170:	e0bfff15 	stw	r2,-4(fp)

  return active;
  100174:	e0bfff17 	ldw	r2,-4(fp)
  100178:	00000706 	br	100198 <alt_irq_handler+0xac>
      }
      mask <<= 1;
  10017c:	e0bffc17 	ldw	r2,-16(fp)
  100180:	1085883a 	add	r2,r2,r2
  100184:	e0bffc15 	stw	r2,-16(fp)
      i++;
  100188:	e0bffd17 	ldw	r2,-12(fp)
  10018c:	10800044 	addi	r2,r2,1
  100190:	e0bffd15 	stw	r2,-12(fp)

    } while (1);
  100194:	003fe106 	br	10011c <__alt_data_end+0xfffc011c>

    active = alt_irq_pending ();
  100198:	e0bffb15 	stw	r2,-20(fp)
    
  } while (active);
  10019c:	e0bffb17 	ldw	r2,-20(fp)
  1001a0:	103fdb1e 	bne	r2,zero,100110 <__alt_data_end+0xfffc0110>

  /*
   * Notify the operating system that interrupt processing is complete.
   */ 

  ALT_OS_INT_EXIT();
  1001a4:	0119c000 	call	119c00 <OSIntExit>
}
  1001a8:	0001883a 	nop
  1001ac:	e037883a 	mov	sp,fp
  1001b0:	dfc00117 	ldw	ra,4(sp)
  1001b4:	df000017 	ldw	fp,0(sp)
  1001b8:	dec00204 	addi	sp,sp,8
  1001bc:	f800283a 	ret

Disassembly of section .text:

001001c0 <_start>:

    /*
     * Now that the caches are initialized, set up the stack pointer and global pointer.
     * The values provided by the linker are assumed to be correctly aligned.
     */
    movhi sp, %hi(__alt_stack_pointer)
  1001c0:	06c00534 	movhi	sp,20
    ori sp, sp, %lo(__alt_stack_pointer)
  1001c4:	dec00014 	ori	sp,sp,0
    movhi gp, %hi(_gp)
  1001c8:	068004b4 	movhi	gp,18
    ori gp, gp, %lo(_gp)
  1001cc:	d6b56c14 	ori	gp,gp,54704
 */
#ifndef ALT_SIM_OPTIMIZE
    /* Log that the BSS is about to be cleared. */
    ALT_LOG_PUTS(alt_log_msg_bss)

    movhi r2, %hi(__bss_start)
  1001d0:	008004b4 	movhi	r2,18
    ori r2, r2, %lo(__bss_start)
  1001d4:	109c9514 	ori	r2,r2,29268

    movhi r3, %hi(__bss_end)
  1001d8:	00c004b4 	movhi	r3,18
    ori r3, r3, %lo(__bss_end)
  1001dc:	18f99214 	ori	r3,r3,58952

    beq r2, r3, 1f
  1001e0:	10c00326 	beq	r2,r3,1001f0 <_start+0x30>

0:
    stw zero, (r2)
  1001e4:	10000015 	stw	zero,0(r2)
    addi r2, r2, 4
  1001e8:	10800104 	addi	r2,r2,4
    bltu r2, r3, 0b
  1001ec:	10fffd36 	bltu	r2,r3,1001e4 <__alt_data_end+0xfffc01e4>
     * section aren't defined until alt_load() has been called).
     */
    mov   et, zero
#endif

    call alt_load
  1001f0:	01189d40 	call	1189d4 <alt_load>

    /* Log that alt_main is about to be called. */
    ALT_LOG_PUTS(alt_log_msg_alt_main)

    /* Call the C entry point. It should never return. */
    call alt_main
  1001f4:	0118b700 	call	118b70 <alt_main>

001001f8 <alt_after_alt_main>:

    /* Wait in infinite loop in case alt_main does return. */
alt_after_alt_main:
    br alt_after_alt_main
  1001f8:	003fff06 	br	1001f8 <__alt_data_end+0xfffc01f8>

001001fc <task1>:
#define TIS_INPUT ((volatile uint16_t*) (TIS_STACK_INPUT_BASE+0x2))
#define TIS_OUTPUT ((volatile uint16_t*) (TIS_STACK_OUTPUT_BASE+0x2))


void task1(void* pdata)
{
  1001fc:	defffd04 	addi	sp,sp,-12
  100200:	dfc00215 	stw	ra,8(sp)
  100204:	df000115 	stw	fp,4(sp)
  100208:	df000104 	addi	fp,sp,4
  10020c:	e13fff15 	stw	r4,-4(fp)
  static int cnt = 0;
  while (1)
  { 
	  puts("Writing number");
  100210:	010004b4 	movhi	r4,18
  100214:	210ba704 	addi	r4,r4,11932
  100218:	01018fc0 	call	1018fc <puts>
	  *TIS_INPUT = cnt;
  10021c:	00801584 	movi	r2,86
  100220:	d0e72917 	ldw	r3,-25436(gp)
  100224:	10c0000d 	sth	r3,0(r2)
	  cnt += 1;
  100228:	d0a72917 	ldw	r2,-25436(gp)
  10022c:	10800044 	addi	r2,r2,1
  100230:	d0a72915 	stw	r2,-25436(gp)
    OSTimeDlyHMSM(0, 0, 1, 0);
  100234:	000f883a 	mov	r7,zero
  100238:	01800044 	movi	r6,1
  10023c:	000b883a 	mov	r5,zero
  100240:	0009883a 	mov	r4,zero
  100244:	01206d80 	call	1206d8 <OSTimeDlyHMSM>
  }
  100248:	003ff106 	br	100210 <__alt_data_end+0xfffc0210>

0010024c <task2>:
}

void task2(void* pdata)
{
  10024c:	defffc04 	addi	sp,sp,-16
  100250:	dfc00315 	stw	ra,12(sp)
  100254:	df000215 	stw	fp,8(sp)
  100258:	df000204 	addi	fp,sp,8
  10025c:	e13fff15 	stw	r4,-4(fp)
  static char number[10] = "";
  while (1)
  { 
    OSTimeDlyHMSM(0, 0, 0, 100);
  100260:	01c01904 	movi	r7,100
  100264:	000d883a 	mov	r6,zero
  100268:	000b883a 	mov	r5,zero
  10026c:	0009883a 	mov	r4,zero
  100270:	01206d80 	call	1206d8 <OSTimeDlyHMSM>
    // Read stack
    int val = *TIS_OUTPUT;
  100274:	00801484 	movi	r2,82
  100278:	1080000b 	ldhu	r2,0(r2)
  10027c:	10bfffcc 	andi	r2,r2,65535
  100280:	e0bffe15 	stw	r2,-8(fp)

    if (val != 0xFFFF) {
  100284:	e0fffe17 	ldw	r3,-8(fp)
  100288:	00bfffd4 	movui	r2,65535
  10028c:	18bff426 	beq	r3,r2,100260 <__alt_data_end+0xfffc0260>
    	sprintf(number, "%d", val);
  100290:	e1bffe17 	ldw	r6,-8(fp)
  100294:	014004b4 	movhi	r5,18
  100298:	294bab04 	addi	r5,r5,11948
  10029c:	010004b4 	movhi	r4,18
  1002a0:	211cbc04 	addi	r4,r4,29424
  1002a4:	01019680 	call	101968 <sprintf>
    	puts(number);
  1002a8:	010004b4 	movhi	r4,18
  1002ac:	211cbc04 	addi	r4,r4,29424
  1002b0:	01018fc0 	call	1018fc <puts>
    }
  }
  1002b4:	003fea06 	br	100260 <__alt_data_end+0xfffc0260>

001002b8 <main>:
}
/* The main function creates two task and starts multi-tasking */
int main(void)
{
  1002b8:	defff904 	addi	sp,sp,-28
  1002bc:	dfc00615 	stw	ra,24(sp)
  1002c0:	df000515 	stw	fp,20(sp)
  1002c4:	df000504 	addi	fp,sp,20

//	*TIS_NODE_CONFIG = 0; // 1 Instruction
//	TIS_NODE_INSTR[0] = 0xD802; // MOV UP, DOWN

	*TIS_NODE_CONFIG = 2; // 3 Instructions
  1002c8:	00800804 	movi	r2,32
  1002cc:	00c00084 	movi	r3,2
  1002d0:	10c0000d 	sth	r3,0(r2)
	 TIS_NODE_INSTR[0] = 0xC802; // MOV UP, ACC
  1002d4:	00800884 	movi	r2,34
  1002d8:	00f20084 	movi	r3,-14334
  1002dc:	10c0000d 	sth	r3,0(r2)
	 TIS_NODE_INSTR[1] = 0x0801; // ADD ANY
  1002e0:	00800904 	movi	r2,36
  1002e4:	00c20044 	movi	r3,2049
  1002e8:	10c0000d 	sth	r3,0(r2)
	 TIS_NODE_INSTR[2] = 0xD801; // MOV ACC, DOWN
  1002ec:	00800984 	movi	r2,38
  1002f0:	00f60044 	movi	r3,-10239
  1002f4:	10c0000d 	sth	r3,0(r2)

  OSTaskCreateExt(task1,
  1002f8:	d8000415 	stw	zero,16(sp)
  1002fc:	d8000315 	stw	zero,12(sp)
  100300:	00820004 	movi	r2,2048
  100304:	d8800215 	stw	r2,8(sp)
  100308:	008004b4 	movhi	r2,18
  10030c:	109cc904 	addi	r2,r2,29476
  100310:	d8800115 	stw	r2,4(sp)
  100314:	00800044 	movi	r2,1
  100318:	d8800015 	stw	r2,0(sp)
  10031c:	01c00044 	movi	r7,1
  100320:	018004f4 	movhi	r6,19
  100324:	31a4c804 	addi	r6,r6,-27872
  100328:	000b883a 	mov	r5,zero
  10032c:	01000434 	movhi	r4,16
  100330:	21007f04 	addi	r4,r4,508
  100334:	011f5040 	call	11f504 <OSTaskCreateExt>
                  TASK_STACKSIZE,
                  NULL,
                  0);
              
               
  OSTaskCreateExt(task2,
  100338:	d8000415 	stw	zero,16(sp)
  10033c:	d8000315 	stw	zero,12(sp)
  100340:	00820004 	movi	r2,2048
  100344:	d8800215 	stw	r2,8(sp)
  100348:	008004f4 	movhi	r2,19
  10034c:	10a4c904 	addi	r2,r2,-27868
  100350:	d8800115 	stw	r2,4(sp)
  100354:	00800084 	movi	r2,2
  100358:	d8800015 	stw	r2,0(sp)
  10035c:	01c00084 	movi	r7,2
  100360:	018004f4 	movhi	r6,19
  100364:	31acc804 	addi	r6,r6,-19680
  100368:	000b883a 	mov	r5,zero
  10036c:	01000434 	movhi	r4,16
  100370:	21009304 	addi	r4,r4,588
  100374:	011f5040 	call	11f504 <OSTaskCreateExt>
                  TASK2_PRIORITY,
                  task2_stk,
                  TASK_STACKSIZE,
                  NULL,
                  0);
  OSStart();
  100378:	0119e600 	call	119e60 <OSStart>
  return 0;
  10037c:	0005883a 	mov	r2,zero
}
  100380:	e037883a 	mov	sp,fp
  100384:	dfc00117 	ldw	ra,4(sp)
  100388:	df000017 	ldw	fp,0(sp)
  10038c:	dec00204 	addi	sp,sp,8
  100390:	f800283a 	ret

00100394 <tis_dissassemble>:
    [NOP] = "NOP", [MOV] = "MOV", [ADD] = "ADD", [SUB] = "SUB", [SWP] = "SWP",
    [SAV] = "SAV", [NEG] = "NEG", [JMP] = "JMP", [JEZ] = "JEZ", [JNZ] = "JNZ",
    [JGZ] = "JGZ", [JLZ] = "JLZ", [JRO] = "JRO",
};

int tis_dissassemble(uint16_t instruction, char *buffer) {
  100394:	defff304 	addi	sp,sp,-52
  100398:	dfc00c15 	stw	ra,48(sp)
  10039c:	df000b15 	stw	fp,44(sp)
  1003a0:	df000b04 	addi	fp,sp,44
  1003a4:	2005883a 	mov	r2,r4
  1003a8:	e17fff15 	stw	r5,-4(fp)
  1003ac:	e0bffe0d 	sth	r2,-8(fp)
    if (instruction == 0) {
  1003b0:	e0bffe0b 	ldhu	r2,-8(fp)
  1003b4:	10000a1e 	bne	r2,zero,1003e0 <tis_dissassemble+0x4c>
        return sprintf(buffer, "NOP");
  1003b8:	e0bfff17 	ldw	r2,-4(fp)
  1003bc:	00c01384 	movi	r3,78
  1003c0:	10c00005 	stb	r3,0(r2)
  1003c4:	00c013c4 	movi	r3,79
  1003c8:	10c00045 	stb	r3,1(r2)
  1003cc:	00c01404 	movi	r3,80
  1003d0:	10c00085 	stb	r3,2(r2)
  1003d4:	100000c5 	stb	zero,3(r2)
  1003d8:	008000c4 	movi	r2,3
  1003dc:	0000e806 	br	100780 <tis_dissassemble+0x3ec>
    } 
    
    // MOV instructions
    if (instruction & 0x8000 && instruction & 0x4000) {
  1003e0:	e0bffe0b 	ldhu	r2,-8(fp)
  1003e4:	10bfffcc 	andi	r2,r2,65535
  1003e8:	10a0001c 	xori	r2,r2,32768
  1003ec:	10a00004 	addi	r2,r2,-32768
  1003f0:	1000200e 	bge	r2,zero,100474 <tis_dissassemble+0xe0>
  1003f4:	e0bffe0b 	ldhu	r2,-8(fp)
  1003f8:	1090000c 	andi	r2,r2,16384
  1003fc:	10001d26 	beq	r2,zero,100474 <tis_dissassemble+0xe0>
        // MOV <SRC>, <DST>
        tis_reg_t src = instruction & register_mask;
  100400:	e0bffe0b 	ldhu	r2,-8(fp)
  100404:	108001cc 	andi	r2,r2,7
  100408:	e0bff715 	stw	r2,-36(fp)
        tis_reg_t dst = (instruction >> 11) & register_mask;
  10040c:	e0bffe0b 	ldhu	r2,-8(fp)
  100410:	1004d2fa 	srli	r2,r2,11
  100414:	10bfffcc 	andi	r2,r2,65535
  100418:	108001cc 	andi	r2,r2,7
  10041c:	e0bff815 	stw	r2,-32(fp)
        return sprintf(buffer, "MOV %s, %s", regs[src], regs[dst]);
  100420:	008004b4 	movhi	r2,18
  100424:	108ea504 	addi	r2,r2,14996
  100428:	e0fff717 	ldw	r3,-36(fp)
  10042c:	18c7883a 	add	r3,r3,r3
  100430:	18c7883a 	add	r3,r3,r3
  100434:	10c5883a 	add	r2,r2,r3
  100438:	11000017 	ldw	r4,0(r2)
  10043c:	008004b4 	movhi	r2,18
  100440:	108ea504 	addi	r2,r2,14996
  100444:	e0fff817 	ldw	r3,-32(fp)
  100448:	18c7883a 	add	r3,r3,r3
  10044c:	18c7883a 	add	r3,r3,r3
  100450:	10c5883a 	add	r2,r2,r3
  100454:	10800017 	ldw	r2,0(r2)
  100458:	100f883a 	mov	r7,r2
  10045c:	200d883a 	mov	r6,r4
  100460:	014004b4 	movhi	r5,18
  100464:	294bc504 	addi	r5,r5,12052
  100468:	e13fff17 	ldw	r4,-4(fp)
  10046c:	01019680 	call	101968 <sprintf>
  100470:	0000c306 	br	100780 <tis_dissassemble+0x3ec>
    } else if (instruction & 0x8000) {
  100474:	e0bffe0b 	ldhu	r2,-8(fp)
  100478:	10bfffcc 	andi	r2,r2,65535
  10047c:	10a0001c 	xori	r2,r2,32768
  100480:	10a00004 	addi	r2,r2,-32768
  100484:	1000150e 	bge	r2,zero,1004dc <tis_dissassemble+0x148>
        // MOV #<imm11>, <DST>
        tis_reg_t dst = (instruction >> 11) & register_mask;
  100488:	e0bffe0b 	ldhu	r2,-8(fp)
  10048c:	1004d2fa 	srli	r2,r2,11
  100490:	10bfffcc 	andi	r2,r2,65535
  100494:	108001cc 	andi	r2,r2,7
  100498:	e0bff915 	stw	r2,-28(fp)
        return sprintf(buffer, "MOV %d, %s", instruction & imm11_mask,
  10049c:	e0bffe0b 	ldhu	r2,-8(fp)
  1004a0:	1101ffcc 	andi	r4,r2,2047
  1004a4:	008004b4 	movhi	r2,18
  1004a8:	108ea504 	addi	r2,r2,14996
  1004ac:	e0fff917 	ldw	r3,-28(fp)
  1004b0:	18c7883a 	add	r3,r3,r3
  1004b4:	18c7883a 	add	r3,r3,r3
  1004b8:	10c5883a 	add	r2,r2,r3
  1004bc:	10800017 	ldw	r2,0(r2)
  1004c0:	100f883a 	mov	r7,r2
  1004c4:	200d883a 	mov	r6,r4
  1004c8:	014004b4 	movhi	r5,18
  1004cc:	294bc804 	addi	r5,r5,12064
  1004d0:	e13fff17 	ldw	r4,-4(fp)
  1004d4:	01019680 	call	101968 <sprintf>
  1004d8:	0000a906 	br	100780 <tis_dissassemble+0x3ec>
                       regs[dst]);
    } 
    
    // Jump instructions
    if (instruction & 0x4000 && instruction & 0x2000) {
  1004dc:	e0bffe0b 	ldhu	r2,-8(fp)
  1004e0:	1090000c 	andi	r2,r2,16384
  1004e4:	10004826 	beq	r2,zero,100608 <tis_dissassemble+0x274>
  1004e8:	e0bffe0b 	ldhu	r2,-8(fp)
  1004ec:	1088000c 	andi	r2,r2,8192
  1004f0:	10004526 	beq	r2,zero,100608 <tis_dissassemble+0x274>
        if (instruction & 0x1000) {
  1004f4:	e0bffe0b 	ldhu	r2,-8(fp)
  1004f8:	1084000c 	andi	r2,r2,4096
  1004fc:	10003226 	beq	r2,zero,1005c8 <tis_dissassemble+0x234>
            // JMP, JEZ, JNZ, JLZ, JGZ
            tis_opcode_t opcode;
            switch (instruction & (~imm6_mask)) {
  100500:	e0fffe0b 	ldhu	r3,-8(fp)
  100504:	00bff004 	movi	r2,-64
  100508:	1884703a 	and	r2,r3,r2
  10050c:	10dc2020 	cmpeqi	r3,r2,28800
  100510:	1800181e 	bne	r3,zero,100574 <tis_dissassemble+0x1e0>
  100514:	10dc2048 	cmpgei	r3,r2,28801
  100518:	1800051e 	bne	r3,zero,100530 <tis_dissassemble+0x19c>
  10051c:	10dc0020 	cmpeqi	r3,r2,28672
  100520:	1800081e 	bne	r3,zero,100544 <tis_dissassemble+0x1b0>
  100524:	109c1020 	cmpeqi	r2,r2,28736
  100528:	1000091e 	bne	r2,zero,100550 <tis_dissassemble+0x1bc>
  10052c:	00001406 	br	100580 <tis_dissassemble+0x1ec>
  100530:	10dc4020 	cmpeqi	r3,r2,28928
  100534:	18000c1e 	bne	r3,zero,100568 <tis_dissassemble+0x1d4>
  100538:	109c4420 	cmpeqi	r2,r2,28944
  10053c:	1000071e 	bne	r2,zero,10055c <tis_dissassemble+0x1c8>
  100540:	00000f06 	br	100580 <tis_dissassemble+0x1ec>
                case 0x7000:
                    opcode = JMP;
  100544:	008001c4 	movi	r2,7
  100548:	e0bff515 	stw	r2,-44(fp)
                    break;
  10054c:	00000e06 	br	100588 <tis_dissassemble+0x1f4>
                case 0x7040:
                    opcode = JEZ;
  100550:	00800204 	movi	r2,8
  100554:	e0bff515 	stw	r2,-44(fp)
                    break;
  100558:	00000b06 	br	100588 <tis_dissassemble+0x1f4>
                case 0x7110:
                    opcode = JNZ;
  10055c:	00800244 	movi	r2,9
  100560:	e0bff515 	stw	r2,-44(fp)
                    break;
  100564:	00000806 	br	100588 <tis_dissassemble+0x1f4>
                case 0x7100:
                    opcode = JLZ;
  100568:	008002c4 	movi	r2,11
  10056c:	e0bff515 	stw	r2,-44(fp)
                    break;
  100570:	00000506 	br	100588 <tis_dissassemble+0x1f4>
                case 0x7080:
                    opcode = JLZ;
  100574:	008002c4 	movi	r2,11
  100578:	e0bff515 	stw	r2,-44(fp)
                    break;
  10057c:	00000206 	br	100588 <tis_dissassemble+0x1f4>
                default:
                    return -1;
  100580:	00bfffc4 	movi	r2,-1
  100584:	00007e06 	br	100780 <tis_dissassemble+0x3ec>
            }
            // Shows instruction address, not label
            return sprintf(buffer, "%s 0x%x", opcodes_str[opcode], instruction & imm6_mask);
  100588:	008004b4 	movhi	r2,18
  10058c:	108ead04 	addi	r2,r2,15028
  100590:	e0fff517 	ldw	r3,-44(fp)
  100594:	18c7883a 	add	r3,r3,r3
  100598:	18c7883a 	add	r3,r3,r3
  10059c:	10c5883a 	add	r2,r2,r3
  1005a0:	10c00017 	ldw	r3,0(r2)
  1005a4:	e0bffe0b 	ldhu	r2,-8(fp)
  1005a8:	10800fcc 	andi	r2,r2,63
  1005ac:	100f883a 	mov	r7,r2
  1005b0:	180d883a 	mov	r6,r3
  1005b4:	014004b4 	movhi	r5,18
  1005b8:	294bcb04 	addi	r5,r5,12076
  1005bc:	e13fff17 	ldw	r4,-4(fp)
  1005c0:	01019680 	call	101968 <sprintf>
  1005c4:	00006e06 	br	100780 <tis_dissassemble+0x3ec>
        } else {
            // JRO
            tis_reg_t src = instruction & register_mask;
  1005c8:	e0bffe0b 	ldhu	r2,-8(fp)
  1005cc:	108001cc 	andi	r2,r2,7
  1005d0:	e0bffa15 	stw	r2,-24(fp)
            return sprintf(buffer, "JRO %s", regs[src]);
  1005d4:	008004b4 	movhi	r2,18
  1005d8:	108ea504 	addi	r2,r2,14996
  1005dc:	e0fffa17 	ldw	r3,-24(fp)
  1005e0:	18c7883a 	add	r3,r3,r3
  1005e4:	18c7883a 	add	r3,r3,r3
  1005e8:	10c5883a 	add	r2,r2,r3
  1005ec:	10800017 	ldw	r2,0(r2)
  1005f0:	100d883a 	mov	r6,r2
  1005f4:	014004b4 	movhi	r5,18
  1005f8:	294bcd04 	addi	r5,r5,12084
  1005fc:	e13fff17 	ldw	r4,-4(fp)
  100600:	01019680 	call	101968 <sprintf>
  100604:	00005e06 	br	100780 <tis_dissassemble+0x3ec>
        }
    }

    // NEG, SWP, SAV
    if (instruction & 0x4000) {
  100608:	e0bffe0b 	ldhu	r2,-8(fp)
  10060c:	1090000c 	andi	r2,r2,16384
  100610:	10002026 	beq	r2,zero,100694 <tis_dissassemble+0x300>
        tis_opcode_t opcode;
        switch (instruction) {
  100614:	e0bffe0b 	ldhu	r2,-8(fp)
  100618:	10d20020 	cmpeqi	r3,r2,18432
  10061c:	1800051e 	bne	r3,zero,100634 <tis_dissassemble+0x2a0>
  100620:	10d40020 	cmpeqi	r3,r2,20480
  100624:	1800061e 	bne	r3,zero,100640 <tis_dissassemble+0x2ac>
  100628:	10900020 	cmpeqi	r2,r2,16384
  10062c:	1000071e 	bne	r2,zero,10064c <tis_dissassemble+0x2b8>
  100630:	00000906 	br	100658 <tis_dissassemble+0x2c4>
            case 0x4800:
                opcode = NEG;
  100634:	00800184 	movi	r2,6
  100638:	e0bff615 	stw	r2,-40(fp)
                break;
  10063c:	00000806 	br	100660 <tis_dissassemble+0x2cc>
            case 0x5000:
                opcode = SWP;
  100640:	00800104 	movi	r2,4
  100644:	e0bff615 	stw	r2,-40(fp)
                break;
  100648:	00000506 	br	100660 <tis_dissassemble+0x2cc>
            case 0x4000:
                opcode = SAV;
  10064c:	00800144 	movi	r2,5
  100650:	e0bff615 	stw	r2,-40(fp)
                break;
  100654:	00000206 	br	100660 <tis_dissassemble+0x2cc>
            default:
                return -1;
  100658:	00bfffc4 	movi	r2,-1
  10065c:	00004806 	br	100780 <tis_dissassemble+0x3ec>
        }
        return sprintf(buffer, "%s", opcodes_str[opcode]);
  100660:	008004b4 	movhi	r2,18
  100664:	108ead04 	addi	r2,r2,15028
  100668:	e0fff617 	ldw	r3,-40(fp)
  10066c:	18c7883a 	add	r3,r3,r3
  100670:	18c7883a 	add	r3,r3,r3
  100674:	10c5883a 	add	r2,r2,r3
  100678:	10800017 	ldw	r2,0(r2)
  10067c:	100d883a 	mov	r6,r2
  100680:	014004b4 	movhi	r5,18
  100684:	294bcf04 	addi	r5,r5,12092
  100688:	e13fff17 	ldw	r4,-4(fp)
  10068c:	01019680 	call	101968 <sprintf>
  100690:	00003b06 	br	100780 <tis_dissassemble+0x3ec>
    } 

    // ADD, SUB
    uint16_t negative = instruction & 0x400;
  100694:	e0bffe0b 	ldhu	r2,-8(fp)
  100698:	1081000c 	andi	r2,r2,1024
  10069c:	e0bffb0d 	sth	r2,-20(fp)
    uint16_t use_register = instruction & 0x800;
  1006a0:	e0bffe0b 	ldhu	r2,-8(fp)
  1006a4:	1082000c 	andi	r2,r2,2048
  1006a8:	e0bffb8d 	sth	r2,-18(fp)
    if (negative) {
  1006ac:	e0bffb0b 	ldhu	r2,-20(fp)
  1006b0:	10001a26 	beq	r2,zero,10071c <tis_dissassemble+0x388>
        if (use_register) {
  1006b4:	e0bffb8b 	ldhu	r2,-18(fp)
  1006b8:	10001026 	beq	r2,zero,1006fc <tis_dissassemble+0x368>
            // SUB <SRC>
            tis_reg_t src = instruction & register_mask;
  1006bc:	e0bffe0b 	ldhu	r2,-8(fp)
  1006c0:	108001cc 	andi	r2,r2,7
  1006c4:	e0bffc15 	stw	r2,-16(fp)
            return sprintf(buffer, "SUB %s", regs[src]);
  1006c8:	008004b4 	movhi	r2,18
  1006cc:	108ea504 	addi	r2,r2,14996
  1006d0:	e0fffc17 	ldw	r3,-16(fp)
  1006d4:	18c7883a 	add	r3,r3,r3
  1006d8:	18c7883a 	add	r3,r3,r3
  1006dc:	10c5883a 	add	r2,r2,r3
  1006e0:	10800017 	ldw	r2,0(r2)
  1006e4:	100d883a 	mov	r6,r2
  1006e8:	014004b4 	movhi	r5,18
  1006ec:	294bd004 	addi	r5,r5,12096
  1006f0:	e13fff17 	ldw	r4,-4(fp)
  1006f4:	01019680 	call	101968 <sprintf>
  1006f8:	00002106 	br	100780 <tis_dissassemble+0x3ec>
        } else {
            // SUB #<imm10>
            return sprintf(buffer, "SUB %d", instruction & imm10_mask);
  1006fc:	e0bffe0b 	ldhu	r2,-8(fp)
  100700:	1080ffcc 	andi	r2,r2,1023
  100704:	100d883a 	mov	r6,r2
  100708:	014004b4 	movhi	r5,18
  10070c:	294bd204 	addi	r5,r5,12104
  100710:	e13fff17 	ldw	r4,-4(fp)
  100714:	01019680 	call	101968 <sprintf>
  100718:	00001906 	br	100780 <tis_dissassemble+0x3ec>
        }
    } else {
        if (use_register) {
  10071c:	e0bffb8b 	ldhu	r2,-18(fp)
  100720:	10001026 	beq	r2,zero,100764 <tis_dissassemble+0x3d0>
            // SUB <SRC>
            tis_reg_t src = instruction & register_mask;
  100724:	e0bffe0b 	ldhu	r2,-8(fp)
  100728:	108001cc 	andi	r2,r2,7
  10072c:	e0bffd15 	stw	r2,-12(fp)
            return sprintf(buffer, "ADD %s", regs[src]);
  100730:	008004b4 	movhi	r2,18
  100734:	108ea504 	addi	r2,r2,14996
  100738:	e0fffd17 	ldw	r3,-12(fp)
  10073c:	18c7883a 	add	r3,r3,r3
  100740:	18c7883a 	add	r3,r3,r3
  100744:	10c5883a 	add	r2,r2,r3
  100748:	10800017 	ldw	r2,0(r2)
  10074c:	100d883a 	mov	r6,r2
  100750:	014004b4 	movhi	r5,18
  100754:	294bd404 	addi	r5,r5,12112
  100758:	e13fff17 	ldw	r4,-4(fp)
  10075c:	01019680 	call	101968 <sprintf>
  100760:	00000706 	br	100780 <tis_dissassemble+0x3ec>
        } else {
            // SUB #<imm10>
            return sprintf(buffer, "ADD %d", instruction & imm10_mask);
  100764:	e0bffe0b 	ldhu	r2,-8(fp)
  100768:	1080ffcc 	andi	r2,r2,1023
  10076c:	100d883a 	mov	r6,r2
  100770:	014004b4 	movhi	r5,18
  100774:	294bd604 	addi	r5,r5,12120
  100778:	e13fff17 	ldw	r4,-4(fp)
  10077c:	01019680 	call	101968 <sprintf>
        }
    }
    
}
  100780:	e037883a 	mov	sp,fp
  100784:	dfc00117 	ldw	ra,4(sp)
  100788:	df000017 	ldw	fp,0(sp)
  10078c:	dec00204 	addi	sp,sp,8
  100790:	f800283a 	ret

00100794 <tis_register_encode>:

tis_reg_t tis_register_encode(const char *str) {
  100794:	defffc04 	addi	sp,sp,-16
  100798:	dfc00315 	stw	ra,12(sp)
  10079c:	df000215 	stw	fp,8(sp)
  1007a0:	df000204 	addi	fp,sp,8
  1007a4:	e13fff15 	stw	r4,-4(fp)
    for (unsigned char i = 0; i < (sizeof(regs) / sizeof(regs[0])); i++) {
  1007a8:	e03ffe05 	stb	zero,-8(fp)
  1007ac:	00001006 	br	1007f0 <tis_register_encode+0x5c>
        if (strcmp(str, regs[i]) == 0) {
  1007b0:	e0fffe03 	ldbu	r3,-8(fp)
  1007b4:	008004b4 	movhi	r2,18
  1007b8:	108ea504 	addi	r2,r2,14996
  1007bc:	18c7883a 	add	r3,r3,r3
  1007c0:	18c7883a 	add	r3,r3,r3
  1007c4:	10c5883a 	add	r2,r2,r3
  1007c8:	10800017 	ldw	r2,0(r2)
  1007cc:	100b883a 	mov	r5,r2
  1007d0:	e13fff17 	ldw	r4,-4(fp)
  1007d4:	0101c040 	call	101c04 <strcmp>
  1007d8:	1000021e 	bne	r2,zero,1007e4 <tis_register_encode+0x50>
            return (tis_reg_t)i;
  1007dc:	e0bffe03 	ldbu	r2,-8(fp)
  1007e0:	00000706 	br	100800 <tis_register_encode+0x6c>
    }
    
}

tis_reg_t tis_register_encode(const char *str) {
    for (unsigned char i = 0; i < (sizeof(regs) / sizeof(regs[0])); i++) {
  1007e4:	e0bffe03 	ldbu	r2,-8(fp)
  1007e8:	10800044 	addi	r2,r2,1
  1007ec:	e0bffe05 	stb	r2,-8(fp)
  1007f0:	e0bffe03 	ldbu	r2,-8(fp)
  1007f4:	10800230 	cmpltui	r2,r2,8
  1007f8:	103fed1e 	bne	r2,zero,1007b0 <__alt_data_end+0xfffc07b0>
        if (strcmp(str, regs[i]) == 0) {
            return (tis_reg_t)i;
        }
    }
    return INVALID;
  1007fc:	00bfffc4 	movi	r2,-1
}
  100800:	e037883a 	mov	sp,fp
  100804:	dfc00117 	ldw	ra,4(sp)
  100808:	df000017 	ldw	fp,0(sp)
  10080c:	dec00204 	addi	sp,sp,8
  100810:	f800283a 	ret

00100814 <tis_opcode_encode>:
    [JLZ] = 0x7080,
    [JRO] = 0x6000,
};

// Decode
tis_opcode_t tis_opcode_encode(const char *str) {
  100814:	defffc04 	addi	sp,sp,-16
  100818:	dfc00315 	stw	ra,12(sp)
  10081c:	df000215 	stw	fp,8(sp)
  100820:	df000204 	addi	fp,sp,8
  100824:	e13fff15 	stw	r4,-4(fp)
    // All opcodes are 3 characters
    if (strlen(str) != 3) {
  100828:	e13fff17 	ldw	r4,-4(fp)
  10082c:	0101ce00 	call	101ce0 <strlen>
  100830:	108000e0 	cmpeqi	r2,r2,3
  100834:	1000021e 	bne	r2,zero,100840 <tis_opcode_encode+0x2c>
        return INVALID;
  100838:	00bfffc4 	movi	r2,-1
  10083c:	00001606 	br	100898 <tis_opcode_encode+0x84>
    }

    for (unsigned char i = 0; i < (sizeof(opcodes_str) / sizeof(opcodes_str[0])); i++) {
  100840:	e03ffe05 	stb	zero,-8(fp)
  100844:	00001006 	br	100888 <tis_opcode_encode+0x74>
        if (strcmp(str, opcodes_str[i]) == 0) {
  100848:	e0fffe03 	ldbu	r3,-8(fp)
  10084c:	008004b4 	movhi	r2,18
  100850:	108ead04 	addi	r2,r2,15028
  100854:	18c7883a 	add	r3,r3,r3
  100858:	18c7883a 	add	r3,r3,r3
  10085c:	10c5883a 	add	r2,r2,r3
  100860:	10800017 	ldw	r2,0(r2)
  100864:	100b883a 	mov	r5,r2
  100868:	e13fff17 	ldw	r4,-4(fp)
  10086c:	0101c040 	call	101c04 <strcmp>
  100870:	1000021e 	bne	r2,zero,10087c <tis_opcode_encode+0x68>
            return i;
  100874:	e0bffe03 	ldbu	r2,-8(fp)
  100878:	00000706 	br	100898 <tis_opcode_encode+0x84>
    // All opcodes are 3 characters
    if (strlen(str) != 3) {
        return INVALID;
    }

    for (unsigned char i = 0; i < (sizeof(opcodes_str) / sizeof(opcodes_str[0])); i++) {
  10087c:	e0bffe03 	ldbu	r2,-8(fp)
  100880:	10800044 	addi	r2,r2,1
  100884:	e0bffe05 	stb	r2,-8(fp)
  100888:	e0bffe03 	ldbu	r2,-8(fp)
  10088c:	10800370 	cmpltui	r2,r2,13
  100890:	103fed1e 	bne	r2,zero,100848 <__alt_data_end+0xfffc0848>
        if (strcmp(str, opcodes_str[i]) == 0) {
            return i;
        }
    }
    return INVALID;
  100894:	00bfffc4 	movi	r2,-1
}
  100898:	e037883a 	mov	sp,fp
  10089c:	dfc00117 	ldw	ra,4(sp)
  1008a0:	df000017 	ldw	fp,0(sp)
  1008a4:	dec00204 	addi	sp,sp,8
  1008a8:	f800283a 	ret

001008ac <tis_imm11_encode>:

// Encodes an imm11 operand from int
int tis_imm11_encode(int integer) {
  1008ac:	defffe04 	addi	sp,sp,-8
  1008b0:	df000115 	stw	fp,4(sp)
  1008b4:	df000104 	addi	fp,sp,4
  1008b8:	e13fff15 	stw	r4,-4(fp)
    if (integer < -999) {
  1008bc:	e0bfff17 	ldw	r2,-4(fp)
  1008c0:	10bf0648 	cmpgei	r2,r2,-999
  1008c4:	1000021e 	bne	r2,zero,1008d0 <tis_imm11_encode+0x24>
        return 999 | imm11_sign_bit;
  1008c8:	0081f9c4 	movi	r2,2023
  1008cc:	00000c06 	br	100900 <tis_imm11_encode+0x54>
    } else if (integer < 0) {
  1008d0:	e0bfff17 	ldw	r2,-4(fp)
  1008d4:	1000040e 	bge	r2,zero,1008e8 <tis_imm11_encode+0x3c>
        return (integer*-1) | imm11_sign_bit;
  1008d8:	e0bfff17 	ldw	r2,-4(fp)
  1008dc:	0085c83a 	sub	r2,zero,r2
  1008e0:	10810014 	ori	r2,r2,1024
  1008e4:	00000606 	br	100900 <tis_imm11_encode+0x54>
    } else if (integer < 999) {
  1008e8:	e0bfff17 	ldw	r2,-4(fp)
  1008ec:	1080f9c8 	cmpgei	r2,r2,999
  1008f0:	1000021e 	bne	r2,zero,1008fc <tis_imm11_encode+0x50>
        return integer;
  1008f4:	e0bfff17 	ldw	r2,-4(fp)
  1008f8:	00000106 	br	100900 <tis_imm11_encode+0x54>
    }
    return 999;
  1008fc:	0080f9c4 	movi	r2,999
}
  100900:	e037883a 	mov	sp,fp
  100904:	df000017 	ldw	fp,0(sp)
  100908:	dec00104 	addi	sp,sp,4
  10090c:	f800283a 	ret

00100910 <tis_assemble_program>:

// Returns number of instructions written, or -1 on error
int tis_assemble_program(char *program, uint16_t *instructions) {
  100910:	deffc904 	addi	sp,sp,-220
  100914:	dfc03615 	stw	ra,216(sp)
  100918:	df003515 	stw	fp,212(sp)
  10091c:	df003504 	addi	fp,sp,212
  100920:	e13ffe15 	stw	r4,-8(fp)
  100924:	e17fff15 	stw	r5,-4(fp)

    // Split on newlines
    const char token_delimiter[] = "\t ,";
  100928:	00800b34 	movhi	r2,44
  10092c:	10880244 	addi	r2,r2,8201
  100930:	e0bfd915 	stw	r2,-156(fp)

    // PC to increase after every parsed instruction
    int pc = 0;
  100934:	e03fcb15 	stw	zero,-212(fp)
    // Store label pointers for later linking
    char *labels_pos[16] = {0};
  100938:	e0bfda04 	addi	r2,fp,-152
  10093c:	00c01004 	movi	r3,64
  100940:	180d883a 	mov	r6,r3
  100944:	000b883a 	mov	r5,zero
  100948:	1009883a 	mov	r4,r2
  10094c:	01016a80 	call	1016a8 <memset>
    char *labels_ref[16] = {0};
  100950:	e0bfea04 	addi	r2,fp,-88
  100954:	00c01004 	movi	r3,64
  100958:	180d883a 	mov	r6,r3
  10095c:	000b883a 	mov	r5,zero
  100960:	1009883a 	mov	r4,r2
  100964:	01016a80 	call	1016a8 <memset>

    // Pointer to current line
    char *line;
    // strtok_r pointer
    char *nextline = program;
  100968:	e0bffe17 	ldw	r2,-8(fp)
  10096c:	e0bffa15 	stw	r2,-24(fp)
    
    // Parse every line
    while ((line = strtok_r(nextline, "\n", &nextline)) != NULL) {
  100970:	00014c06 	br	100ea4 <tis_assemble_program+0x594>

        // Check for maximum line length
        int line_len = strlen(line);
  100974:	e13fcf17 	ldw	r4,-196(fp)
  100978:	0101ce00 	call	101ce0 <strlen>
  10097c:	e0bfd015 	stw	r2,-192(fp)
        if (line_len > 18) {
  100980:	e0bfd017 	ldw	r2,-192(fp)
  100984:	108004d0 	cmplti	r2,r2,19
  100988:	1000071e 	bne	r2,zero,1009a8 <tis_assemble_program+0x98>
            puts("Line exceeded maximum length of 18 characters:");
  10098c:	010004b4 	movhi	r4,18
  100990:	210bdf04 	addi	r4,r4,12156
  100994:	01018fc0 	call	1018fc <puts>
            puts(line);
  100998:	e13fcf17 	ldw	r4,-196(fp)
  10099c:	01018fc0 	call	1018fc <puts>
            return -1; 
  1009a0:	00bfffc4 	movi	r2,-1
  1009a4:	00019006 	br	100fe8 <tis_assemble_program+0x6d8>
        }

        // Divide line in code and comment
        char* comment;
        strtok_r(line, "#", &comment);
  1009a8:	e0bffb04 	addi	r2,fp,-20
  1009ac:	100d883a 	mov	r6,r2
  1009b0:	014004b4 	movhi	r5,18
  1009b4:	294beb04 	addi	r5,r5,12204
  1009b8:	e13fcf17 	ldw	r4,-196(fp)
  1009bc:	0101e140 	call	101e14 <strtok_r>

        // First token is either label, opcode, or empty
        char *strtok_ptr = NULL;
  1009c0:	e03ffc15 	stw	zero,-16(fp)
        char *token = strtok_r(line, token_delimiter, &strtok_ptr);
  1009c4:	e0fffc04 	addi	r3,fp,-16
  1009c8:	e0bfd904 	addi	r2,fp,-156
  1009cc:	180d883a 	mov	r6,r3
  1009d0:	100b883a 	mov	r5,r2
  1009d4:	e13fcf17 	ldw	r4,-196(fp)
  1009d8:	0101e140 	call	101e14 <strtok_r>
  1009dc:	e0bfcc15 	stw	r2,-208(fp)

        // Check for empty line
        if (token == NULL) {
  1009e0:	e0bfcc17 	ldw	r2,-208(fp)
  1009e4:	10012c26 	beq	r2,zero,100e98 <tis_assemble_program+0x588>
            continue;
        }

        // Check for label which ends with ':'
        int token_len = strlen(token);
  1009e8:	e13fcc17 	ldw	r4,-208(fp)
  1009ec:	0101ce00 	call	101ce0 <strlen>
  1009f0:	e0bfd115 	stw	r2,-188(fp)
        if (token[token_len-1] == ':') {
  1009f4:	e0bfd117 	ldw	r2,-188(fp)
  1009f8:	10bfffc4 	addi	r2,r2,-1
  1009fc:	e0ffcc17 	ldw	r3,-208(fp)
  100a00:	1885883a 	add	r2,r3,r2
  100a04:	10800003 	ldbu	r2,0(r2)
  100a08:	10803fcc 	andi	r2,r2,255
  100a0c:	1080201c 	xori	r2,r2,128
  100a10:	10bfe004 	addi	r2,r2,-128
  100a14:	10800e98 	cmpnei	r2,r2,58
  100a18:	10002c1e 	bne	r2,zero,100acc <tis_assemble_program+0x1bc>
            // Avoid replacing existing label
            if (labels_pos[pc]) {
  100a1c:	e0bfcb17 	ldw	r2,-212(fp)
  100a20:	1085883a 	add	r2,r2,r2
  100a24:	1085883a 	add	r2,r2,r2
  100a28:	e0ffcb04 	addi	r3,fp,-212
  100a2c:	1885883a 	add	r2,r3,r2
  100a30:	10800f04 	addi	r2,r2,60
  100a34:	10800017 	ldw	r2,0(r2)
  100a38:	10000e26 	beq	r2,zero,100a74 <tis_assemble_program+0x164>
                printf("Multiple labels to instruction (%s, %s) \n", token, labels_pos[pc]);
  100a3c:	e0bfcb17 	ldw	r2,-212(fp)
  100a40:	1085883a 	add	r2,r2,r2
  100a44:	1085883a 	add	r2,r2,r2
  100a48:	e13fcb04 	addi	r4,fp,-212
  100a4c:	2085883a 	add	r2,r4,r2
  100a50:	10800f04 	addi	r2,r2,60
  100a54:	10800017 	ldw	r2,0(r2)
  100a58:	100d883a 	mov	r6,r2
  100a5c:	e17fcc17 	ldw	r5,-208(fp)
  100a60:	010004b4 	movhi	r4,18
  100a64:	210bec04 	addi	r4,r4,12208
  100a68:	01018000 	call	101800 <printf>
                return -1;
  100a6c:	00bfffc4 	movi	r2,-1
  100a70:	00015d06 	br	100fe8 <tis_assemble_program+0x6d8>
            }

            // Save label without ':'
            token[token_len-1] = '\0';
  100a74:	e0bfd117 	ldw	r2,-188(fp)
  100a78:	10bfffc4 	addi	r2,r2,-1
  100a7c:	e0ffcc17 	ldw	r3,-208(fp)
  100a80:	1885883a 	add	r2,r3,r2
  100a84:	10000005 	stb	zero,0(r2)
            labels_pos[pc] = token;
  100a88:	e0bfcb17 	ldw	r2,-212(fp)
  100a8c:	1085883a 	add	r2,r2,r2
  100a90:	1085883a 	add	r2,r2,r2
  100a94:	e0ffcb04 	addi	r3,fp,-212
  100a98:	1885883a 	add	r2,r3,r2
  100a9c:	10800f04 	addi	r2,r2,60
  100aa0:	e0ffcc17 	ldw	r3,-208(fp)
  100aa4:	10c00015 	stw	r3,0(r2)

            // Get next token
            token = strtok_r(NULL, token_delimiter, &strtok_ptr);
  100aa8:	e0fffc04 	addi	r3,fp,-16
  100aac:	e0bfd904 	addi	r2,fp,-156
  100ab0:	180d883a 	mov	r6,r3
  100ab4:	100b883a 	mov	r5,r2
  100ab8:	0009883a 	mov	r4,zero
  100abc:	0101e140 	call	101e14 <strtok_r>
  100ac0:	e0bfcc15 	stw	r2,-208(fp)
            if (token == NULL) {
  100ac4:	e0bfcc17 	ldw	r2,-208(fp)
  100ac8:	1000f526 	beq	r2,zero,100ea0 <tis_assemble_program+0x590>
                continue;
            }
        }

        // Check for valid opcode
        tis_opcode_t opcode = tis_opcode_encode(token);
  100acc:	e13fcc17 	ldw	r4,-208(fp)
  100ad0:	01008140 	call	100814 <tis_opcode_encode>
  100ad4:	e0bfd215 	stw	r2,-184(fp)
        if (opcode == -1) {
  100ad8:	e0bfd217 	ldw	r2,-184(fp)
  100adc:	10bfffd8 	cmpnei	r2,r2,-1
  100ae0:	1000061e 	bne	r2,zero,100afc <tis_assemble_program+0x1ec>
            printf("Invalid opcode (%s) \n", token);
  100ae4:	e17fcc17 	ldw	r5,-208(fp)
  100ae8:	010004b4 	movhi	r4,18
  100aec:	210bf704 	addi	r4,r4,12252
  100af0:	01018000 	call	101800 <printf>
            return -1;
  100af4:	00bfffc4 	movi	r2,-1
  100af8:	00013b06 	br	100fe8 <tis_assemble_program+0x6d8>
        }

        // Set instruction identifying bits
        instructions[pc] = asm_codes[opcode]; 
  100afc:	e0bfcb17 	ldw	r2,-212(fp)
  100b00:	1085883a 	add	r2,r2,r2
  100b04:	1007883a 	mov	r3,r2
  100b08:	e0bfff17 	ldw	r2,-4(fp)
  100b0c:	10c9883a 	add	r4,r2,r3
  100b10:	008004b4 	movhi	r2,18
  100b14:	108bd804 	addi	r2,r2,12128
  100b18:	e0ffd217 	ldw	r3,-184(fp)
  100b1c:	18c7883a 	add	r3,r3,r3
  100b20:	10c5883a 	add	r2,r2,r3
  100b24:	1080000b 	ldhu	r2,0(r2)
  100b28:	2080000d 	sth	r2,0(r4)

        // End if no further operands
        int opcount = asm_operands[opcode];
  100b2c:	008004b4 	movhi	r2,18
  100b30:	108eba04 	addi	r2,r2,15080
  100b34:	e0ffd217 	ldw	r3,-184(fp)
  100b38:	10c5883a 	add	r2,r2,r3
  100b3c:	10800003 	ldbu	r2,0(r2)
  100b40:	10803fcc 	andi	r2,r2,255
  100b44:	1080201c 	xori	r2,r2,128
  100b48:	10bfe004 	addi	r2,r2,-128
  100b4c:	e0bfd315 	stw	r2,-180(fp)
        if (opcount == 0) {
  100b50:	e0bfd317 	ldw	r2,-180(fp)
  100b54:	1000041e 	bne	r2,zero,100b68 <tis_assemble_program+0x258>
            pc++;
  100b58:	e0bfcb17 	ldw	r2,-212(fp)
  100b5c:	10800044 	addi	r2,r2,1
  100b60:	e0bfcb15 	stw	r2,-212(fp)
            continue;
  100b64:	0000cf06 	br	100ea4 <tis_assemble_program+0x594>
        }

        // Get <SRC>
        char *src = strtok_r(NULL, token_delimiter, &strtok_ptr);
  100b68:	e0fffc04 	addi	r3,fp,-16
  100b6c:	e0bfd904 	addi	r2,fp,-156
  100b70:	180d883a 	mov	r6,r3
  100b74:	100b883a 	mov	r5,r2
  100b78:	0009883a 	mov	r4,zero
  100b7c:	0101e140 	call	101e14 <strtok_r>
  100b80:	e0bfd415 	stw	r2,-176(fp)
        if (src == NULL) {
  100b84:	e0bfd417 	ldw	r2,-176(fp)
  100b88:	1000051e 	bne	r2,zero,100ba0 <tis_assemble_program+0x290>
            puts("Missing <SRC> operand");
  100b8c:	010004b4 	movhi	r4,18
  100b90:	210bfd04 	addi	r4,r4,12276
  100b94:	01018fc0 	call	1018fc <puts>
            return -1;
  100b98:	00bfffc4 	movi	r2,-1
  100b9c:	00011206 	br	100fe8 <tis_assemble_program+0x6d8>
        }

        // Check if <SRC> is register
        tis_reg_t src_reg = tis_register_encode(src);
  100ba0:	e13fd417 	ldw	r4,-176(fp)
  100ba4:	01007940 	call	100794 <tis_register_encode>
  100ba8:	e0bfd515 	stw	r2,-172(fp)
        if (opcode == JMP || opcode == JEZ || opcode == JGZ || opcode == JLZ || opcode == JNZ) {
  100bac:	e0bfd217 	ldw	r2,-184(fp)
  100bb0:	108001e0 	cmpeqi	r2,r2,7
  100bb4:	10000c1e 	bne	r2,zero,100be8 <tis_assemble_program+0x2d8>
  100bb8:	e0bfd217 	ldw	r2,-184(fp)
  100bbc:	10800220 	cmpeqi	r2,r2,8
  100bc0:	1000091e 	bne	r2,zero,100be8 <tis_assemble_program+0x2d8>
  100bc4:	e0bfd217 	ldw	r2,-184(fp)
  100bc8:	108002a0 	cmpeqi	r2,r2,10
  100bcc:	1000061e 	bne	r2,zero,100be8 <tis_assemble_program+0x2d8>
  100bd0:	e0bfd217 	ldw	r2,-184(fp)
  100bd4:	108002e0 	cmpeqi	r2,r2,11
  100bd8:	1000031e 	bne	r2,zero,100be8 <tis_assemble_program+0x2d8>
  100bdc:	e0bfd217 	ldw	r2,-184(fp)
  100be0:	10800258 	cmpnei	r2,r2,9
  100be4:	1000091e 	bne	r2,zero,100c0c <tis_assemble_program+0x2fc>
            // Store label string for later linking
            labels_ref[pc] = src;
  100be8:	e0bfcb17 	ldw	r2,-212(fp)
  100bec:	1085883a 	add	r2,r2,r2
  100bf0:	1085883a 	add	r2,r2,r2
  100bf4:	e13fcb04 	addi	r4,fp,-212
  100bf8:	2085883a 	add	r2,r4,r2
  100bfc:	10801f04 	addi	r2,r2,124
  100c00:	e0ffd417 	ldw	r3,-176(fp)
  100c04:	10c00015 	stw	r3,0(r2)
  100c08:	00006006 	br	100d8c <tis_assemble_program+0x47c>
        } else if (src_reg != INVALID) {
  100c0c:	e0bfd517 	ldw	r2,-172(fp)
  100c10:	10bfffe0 	cmpeqi	r2,r2,-1
  100c14:	1000311e 	bne	r2,zero,100cdc <tis_assemble_program+0x3cc>
            // Place <SRC> in first 3 bits
            instructions[pc] &= ~register_mask;
  100c18:	e0bfcb17 	ldw	r2,-212(fp)
  100c1c:	1085883a 	add	r2,r2,r2
  100c20:	1007883a 	mov	r3,r2
  100c24:	e0bfff17 	ldw	r2,-4(fp)
  100c28:	10c7883a 	add	r3,r2,r3
  100c2c:	e0bfcb17 	ldw	r2,-212(fp)
  100c30:	1085883a 	add	r2,r2,r2
  100c34:	1009883a 	mov	r4,r2
  100c38:	e0bfff17 	ldw	r2,-4(fp)
  100c3c:	1105883a 	add	r2,r2,r4
  100c40:	1100000b 	ldhu	r4,0(r2)
  100c44:	00bffe04 	movi	r2,-8
  100c48:	2084703a 	and	r2,r4,r2
  100c4c:	1880000d 	sth	r2,0(r3)
            instructions[pc] |= src_reg; 
  100c50:	e0bfcb17 	ldw	r2,-212(fp)
  100c54:	1085883a 	add	r2,r2,r2
  100c58:	1007883a 	mov	r3,r2
  100c5c:	e0bfff17 	ldw	r2,-4(fp)
  100c60:	10c7883a 	add	r3,r2,r3
  100c64:	e0bfcb17 	ldw	r2,-212(fp)
  100c68:	1085883a 	add	r2,r2,r2
  100c6c:	1009883a 	mov	r4,r2
  100c70:	e0bfff17 	ldw	r2,-4(fp)
  100c74:	1105883a 	add	r2,r2,r4
  100c78:	1080000b 	ldhu	r2,0(r2)
  100c7c:	1009883a 	mov	r4,r2
  100c80:	e0bfd517 	ldw	r2,-172(fp)
  100c84:	2084b03a 	or	r2,r4,r2
  100c88:	1880000d 	sth	r2,0(r3)

            if (opcode == SUB || opcode == ADD) {
  100c8c:	e0bfd217 	ldw	r2,-184(fp)
  100c90:	108000e0 	cmpeqi	r2,r2,3
  100c94:	1000031e 	bne	r2,zero,100ca4 <tis_assemble_program+0x394>
  100c98:	e0bfd217 	ldw	r2,-184(fp)
  100c9c:	10800098 	cmpnei	r2,r2,2
  100ca0:	10003a1e 	bne	r2,zero,100d8c <tis_assemble_program+0x47c>
                instructions[pc] |= 0x800;
  100ca4:	e0bfcb17 	ldw	r2,-212(fp)
  100ca8:	1085883a 	add	r2,r2,r2
  100cac:	1007883a 	mov	r3,r2
  100cb0:	e0bfff17 	ldw	r2,-4(fp)
  100cb4:	10c7883a 	add	r3,r2,r3
  100cb8:	e0bfcb17 	ldw	r2,-212(fp)
  100cbc:	1085883a 	add	r2,r2,r2
  100cc0:	1009883a 	mov	r4,r2
  100cc4:	e0bfff17 	ldw	r2,-4(fp)
  100cc8:	1105883a 	add	r2,r2,r4
  100ccc:	1080000b 	ldhu	r2,0(r2)
  100cd0:	10820014 	ori	r2,r2,2048
  100cd4:	1880000d 	sth	r2,0(r3)
  100cd8:	00002c06 	br	100d8c <tis_assemble_program+0x47c>
            }
        } else {
            // Check if <SRC> is integer
            int integer;
            int result = sscanf(src, "%d", &integer);
  100cdc:	e0bffd04 	addi	r2,fp,-12
  100ce0:	100d883a 	mov	r6,r2
  100ce4:	014004b4 	movhi	r5,18
  100ce8:	294c0304 	addi	r5,r5,12300
  100cec:	e13fd417 	ldw	r4,-176(fp)
  100cf0:	01019d40 	call	1019d4 <sscanf>
  100cf4:	e0bfd615 	stw	r2,-168(fp)
            if (result != 1) {
  100cf8:	e0bfd617 	ldw	r2,-168(fp)
  100cfc:	10800060 	cmpeqi	r2,r2,1
  100d00:	1000061e 	bne	r2,zero,100d1c <tis_assemble_program+0x40c>
                // Couldn't parse register nor number
                printf("Unable to parse <SRC> (%s)", src);
  100d04:	e17fd417 	ldw	r5,-176(fp)
  100d08:	010004b4 	movhi	r4,18
  100d0c:	210c0404 	addi	r4,r4,12304
  100d10:	01018000 	call	101800 <printf>
                return -1;
  100d14:	00bfffc4 	movi	r2,-1
        // Check for maximum line length
        int line_len = strlen(line);
        if (line_len > 18) {
            puts("Line exceeded maximum length of 18 characters:");
            puts(line);
            return -1; 
  100d18:	0000b306 	br	100fe8 <tis_assemble_program+0x6d8>
            if (result != 1) {
                // Couldn't parse register nor number
                printf("Unable to parse <SRC> (%s)", src);
                return -1;
            }
            if (opcode == MOV || opcode == SUB || opcode == ADD ) {
  100d1c:	e0bfd217 	ldw	r2,-184(fp)
  100d20:	10800060 	cmpeqi	r2,r2,1
  100d24:	1000061e 	bne	r2,zero,100d40 <tis_assemble_program+0x430>
  100d28:	e0bfd217 	ldw	r2,-184(fp)
  100d2c:	108000e0 	cmpeqi	r2,r2,3
  100d30:	1000031e 	bne	r2,zero,100d40 <tis_assemble_program+0x430>
  100d34:	e0bfd217 	ldw	r2,-184(fp)
  100d38:	10800098 	cmpnei	r2,r2,2
  100d3c:	1000131e 	bne	r2,zero,100d8c <tis_assemble_program+0x47c>
                // Integer goes in first 11 bits.
                // Uses XOR to flip sign bit in case of SUB.
                instructions[pc] ^= tis_imm11_encode(integer);
  100d40:	e0bffd17 	ldw	r2,-12(fp)
  100d44:	1009883a 	mov	r4,r2
  100d48:	01008ac0 	call	1008ac <tis_imm11_encode>
  100d4c:	100b883a 	mov	r5,r2
  100d50:	e0bfcb17 	ldw	r2,-212(fp)
  100d54:	1085883a 	add	r2,r2,r2
  100d58:	1007883a 	mov	r3,r2
  100d5c:	e0bfff17 	ldw	r2,-4(fp)
  100d60:	10c7883a 	add	r3,r2,r3
  100d64:	e0bfcb17 	ldw	r2,-212(fp)
  100d68:	1085883a 	add	r2,r2,r2
  100d6c:	1009883a 	mov	r4,r2
  100d70:	e0bfff17 	ldw	r2,-4(fp)
  100d74:	1105883a 	add	r2,r2,r4
  100d78:	1080000b 	ldhu	r2,0(r2)
  100d7c:	1009883a 	mov	r4,r2
  100d80:	2805883a 	mov	r2,r5
  100d84:	2084f03a 	xor	r2,r4,r2
  100d88:	1880000d 	sth	r2,0(r3)
            }
        }

        // End if no further operands
        if (opcount == 1) {
  100d8c:	e0bfd317 	ldw	r2,-180(fp)
  100d90:	10800058 	cmpnei	r2,r2,1
  100d94:	1000041e 	bne	r2,zero,100da8 <tis_assemble_program+0x498>
            pc++;
  100d98:	e0bfcb17 	ldw	r2,-212(fp)
  100d9c:	10800044 	addi	r2,r2,1
  100da0:	e0bfcb15 	stw	r2,-212(fp)
            continue;
  100da4:	00003f06 	br	100ea4 <tis_assemble_program+0x594>
        }

        // Get <DST>
        char *dst = strtok_r(NULL, token_delimiter, &strtok_ptr);
  100da8:	e0fffc04 	addi	r3,fp,-16
  100dac:	e0bfd904 	addi	r2,fp,-156
  100db0:	180d883a 	mov	r6,r3
  100db4:	100b883a 	mov	r5,r2
  100db8:	0009883a 	mov	r4,zero
  100dbc:	0101e140 	call	101e14 <strtok_r>
  100dc0:	e0bfd715 	stw	r2,-164(fp)
        if (dst == NULL) {
  100dc4:	e0bfd717 	ldw	r2,-164(fp)
  100dc8:	1000051e 	bne	r2,zero,100de0 <tis_assemble_program+0x4d0>
            puts("Missing <DST> operand");
  100dcc:	010004b4 	movhi	r4,18
  100dd0:	210c0b04 	addi	r4,r4,12332
  100dd4:	01018fc0 	call	1018fc <puts>
            return -1;
  100dd8:	00bfffc4 	movi	r2,-1
  100ddc:	00008206 	br	100fe8 <tis_assemble_program+0x6d8>
        }

        // Check if <DST> is register
        tis_reg_t dst_reg = tis_register_encode(dst);
  100de0:	e13fd717 	ldw	r4,-164(fp)
  100de4:	01007940 	call	100794 <tis_register_encode>
  100de8:	e0bfd815 	stw	r2,-160(fp)
        if (dst_reg != INVALID) {
  100dec:	e0bfd817 	ldw	r2,-160(fp)
  100df0:	10bfffe0 	cmpeqi	r2,r2,-1
  100df4:	1000221e 	bne	r2,zero,100e80 <tis_assemble_program+0x570>
            // Place <DST> in bytes 13-11 
            instructions[pc] &= ~(register_mask<<11);
  100df8:	e0bfcb17 	ldw	r2,-212(fp)
  100dfc:	1085883a 	add	r2,r2,r2
  100e00:	1007883a 	mov	r3,r2
  100e04:	e0bfff17 	ldw	r2,-4(fp)
  100e08:	10c7883a 	add	r3,r2,r3
  100e0c:	e0bfcb17 	ldw	r2,-212(fp)
  100e10:	1085883a 	add	r2,r2,r2
  100e14:	1009883a 	mov	r4,r2
  100e18:	e0bfff17 	ldw	r2,-4(fp)
  100e1c:	1105883a 	add	r2,r2,r4
  100e20:	1100000b 	ldhu	r4,0(r2)
  100e24:	00b1ffc4 	movi	r2,-14337
  100e28:	2084703a 	and	r2,r4,r2
  100e2c:	1880000d 	sth	r2,0(r3)
            instructions[pc] |= dst_reg << 11; 
  100e30:	e0bfcb17 	ldw	r2,-212(fp)
  100e34:	1085883a 	add	r2,r2,r2
  100e38:	1007883a 	mov	r3,r2
  100e3c:	e0bfff17 	ldw	r2,-4(fp)
  100e40:	10c7883a 	add	r3,r2,r3
  100e44:	e0bfcb17 	ldw	r2,-212(fp)
  100e48:	1085883a 	add	r2,r2,r2
  100e4c:	1009883a 	mov	r4,r2
  100e50:	e0bfff17 	ldw	r2,-4(fp)
  100e54:	1105883a 	add	r2,r2,r4
  100e58:	1080000b 	ldhu	r2,0(r2)
  100e5c:	1009883a 	mov	r4,r2
  100e60:	e0bfd817 	ldw	r2,-160(fp)
  100e64:	100492fa 	slli	r2,r2,11
  100e68:	2084b03a 	or	r2,r4,r2
  100e6c:	1880000d 	sth	r2,0(r3)
            printf("Unable to parse <DST> (%s)", dst);
            return -1;
        }

        // Increase after every line
        pc++;
  100e70:	e0bfcb17 	ldw	r2,-212(fp)
  100e74:	10800044 	addi	r2,r2,1
  100e78:	e0bfcb15 	stw	r2,-212(fp)
  100e7c:	00000906 	br	100ea4 <tis_assemble_program+0x594>
        if (dst_reg != INVALID) {
            // Place <DST> in bytes 13-11 
            instructions[pc] &= ~(register_mask<<11);
            instructions[pc] |= dst_reg << 11; 
        } else {
            printf("Unable to parse <DST> (%s)", dst);
  100e80:	e17fd717 	ldw	r5,-164(fp)
  100e84:	010004b4 	movhi	r4,18
  100e88:	210c1104 	addi	r4,r4,12356
  100e8c:	01018000 	call	101800 <printf>
            return -1;
  100e90:	00bfffc4 	movi	r2,-1
  100e94:	00005406 	br	100fe8 <tis_assemble_program+0x6d8>
        char *strtok_ptr = NULL;
        char *token = strtok_r(line, token_delimiter, &strtok_ptr);

        // Check for empty line
        if (token == NULL) {
            continue;
  100e98:	0001883a 	nop
  100e9c:	00000106 	br	100ea4 <tis_assemble_program+0x594>
            labels_pos[pc] = token;

            // Get next token
            token = strtok_r(NULL, token_delimiter, &strtok_ptr);
            if (token == NULL) {
                continue;
  100ea0:	0001883a 	nop
    char *line;
    // strtok_r pointer
    char *nextline = program;
    
    // Parse every line
    while ((line = strtok_r(nextline, "\n", &nextline)) != NULL) {
  100ea4:	e0bffa17 	ldw	r2,-24(fp)
  100ea8:	e0fffa04 	addi	r3,fp,-24
  100eac:	180d883a 	mov	r6,r3
  100eb0:	014004b4 	movhi	r5,18
  100eb4:	294c1804 	addi	r5,r5,12384
  100eb8:	1009883a 	mov	r4,r2
  100ebc:	0101e140 	call	101e14 <strtok_r>
  100ec0:	e0bfcf15 	stw	r2,-196(fp)
  100ec4:	e0bfcf17 	ldw	r2,-196(fp)
  100ec8:	103eaa1e 	bne	r2,zero,100974 <__alt_data_end+0xfffc0974>
        // Increase after every line
        pc++;
    }

    // Link jump labels
    for (int ref_pc = 0; ref_pc < (sizeof(labels_ref) / sizeof(labels_ref[0])); ref_pc++) {
  100ecc:	e03fcd15 	stw	zero,-204(fp)
  100ed0:	00004106 	br	100fd8 <tis_assemble_program+0x6c8>
        // Skip empty
        if (labels_ref[ref_pc] == NULL) {
  100ed4:	e0bfcd17 	ldw	r2,-204(fp)
  100ed8:	1085883a 	add	r2,r2,r2
  100edc:	1085883a 	add	r2,r2,r2
  100ee0:	e0ffcb04 	addi	r3,fp,-212
  100ee4:	1885883a 	add	r2,r3,r2
  100ee8:	10801f04 	addi	r2,r2,124
  100eec:	10800017 	ldw	r2,0(r2)
  100ef0:	10003526 	beq	r2,zero,100fc8 <tis_assemble_program+0x6b8>
            continue;
        }

        for (int pos_pc = 0; pos_pc < (sizeof(labels_pos) / sizeof(labels_pos[0])); pos_pc++) {
  100ef4:	e03fce15 	stw	zero,-200(fp)
  100ef8:	00002f06 	br	100fb8 <tis_assemble_program+0x6a8>
            // Skip empty
            if (labels_pos[pos_pc] == NULL) {
  100efc:	e0bfce17 	ldw	r2,-200(fp)
  100f00:	1085883a 	add	r2,r2,r2
  100f04:	1085883a 	add	r2,r2,r2
  100f08:	e13fcb04 	addi	r4,fp,-212
  100f0c:	2085883a 	add	r2,r4,r2
  100f10:	10800f04 	addi	r2,r2,60
  100f14:	10800017 	ldw	r2,0(r2)
  100f18:	10002326 	beq	r2,zero,100fa8 <tis_assemble_program+0x698>
                continue;
            }

            // Check if labels match
            if (strcmp(labels_pos[pos_pc], labels_ref[ref_pc]) == 0) {
  100f1c:	e0bfce17 	ldw	r2,-200(fp)
  100f20:	1085883a 	add	r2,r2,r2
  100f24:	1085883a 	add	r2,r2,r2
  100f28:	e0ffcb04 	addi	r3,fp,-212
  100f2c:	1885883a 	add	r2,r3,r2
  100f30:	10800f04 	addi	r2,r2,60
  100f34:	10c00017 	ldw	r3,0(r2)
  100f38:	e0bfcd17 	ldw	r2,-204(fp)
  100f3c:	1085883a 	add	r2,r2,r2
  100f40:	1085883a 	add	r2,r2,r2
  100f44:	e13fcb04 	addi	r4,fp,-212
  100f48:	2085883a 	add	r2,r4,r2
  100f4c:	10801f04 	addi	r2,r2,124
  100f50:	10800017 	ldw	r2,0(r2)
  100f54:	100b883a 	mov	r5,r2
  100f58:	1809883a 	mov	r4,r3
  100f5c:	0101c040 	call	101c04 <strcmp>
  100f60:	1000121e 	bne	r2,zero,100fac <tis_assemble_program+0x69c>
                // Edit instruction referencing label
                instructions[ref_pc] |= pos_pc & imm6_mask;
  100f64:	e0bfcd17 	ldw	r2,-204(fp)
  100f68:	1085883a 	add	r2,r2,r2
  100f6c:	1007883a 	mov	r3,r2
  100f70:	e0bfff17 	ldw	r2,-4(fp)
  100f74:	10c7883a 	add	r3,r2,r3
  100f78:	e0bfcd17 	ldw	r2,-204(fp)
  100f7c:	1085883a 	add	r2,r2,r2
  100f80:	1009883a 	mov	r4,r2
  100f84:	e0bfff17 	ldw	r2,-4(fp)
  100f88:	1105883a 	add	r2,r2,r4
  100f8c:	1080000b 	ldhu	r2,0(r2)
  100f90:	1009883a 	mov	r4,r2
  100f94:	e0bfce17 	ldw	r2,-200(fp)
  100f98:	10800fcc 	andi	r2,r2,63
  100f9c:	2084b03a 	or	r2,r4,r2
  100fa0:	1880000d 	sth	r2,0(r3)
  100fa4:	00000106 	br	100fac <tis_assemble_program+0x69c>
        }

        for (int pos_pc = 0; pos_pc < (sizeof(labels_pos) / sizeof(labels_pos[0])); pos_pc++) {
            // Skip empty
            if (labels_pos[pos_pc] == NULL) {
                continue;
  100fa8:	0001883a 	nop
        // Skip empty
        if (labels_ref[ref_pc] == NULL) {
            continue;
        }

        for (int pos_pc = 0; pos_pc < (sizeof(labels_pos) / sizeof(labels_pos[0])); pos_pc++) {
  100fac:	e0bfce17 	ldw	r2,-200(fp)
  100fb0:	10800044 	addi	r2,r2,1
  100fb4:	e0bfce15 	stw	r2,-200(fp)
  100fb8:	e0bfce17 	ldw	r2,-200(fp)
  100fbc:	10800430 	cmpltui	r2,r2,16
  100fc0:	103fce1e 	bne	r2,zero,100efc <__alt_data_end+0xfffc0efc>
  100fc4:	00000106 	br	100fcc <tis_assemble_program+0x6bc>

    // Link jump labels
    for (int ref_pc = 0; ref_pc < (sizeof(labels_ref) / sizeof(labels_ref[0])); ref_pc++) {
        // Skip empty
        if (labels_ref[ref_pc] == NULL) {
            continue;
  100fc8:	0001883a 	nop
        // Increase after every line
        pc++;
    }

    // Link jump labels
    for (int ref_pc = 0; ref_pc < (sizeof(labels_ref) / sizeof(labels_ref[0])); ref_pc++) {
  100fcc:	e0bfcd17 	ldw	r2,-204(fp)
  100fd0:	10800044 	addi	r2,r2,1
  100fd4:	e0bfcd15 	stw	r2,-204(fp)
  100fd8:	e0bfcd17 	ldw	r2,-204(fp)
  100fdc:	10800430 	cmpltui	r2,r2,16
  100fe0:	103fbc1e 	bne	r2,zero,100ed4 <__alt_data_end+0xfffc0ed4>
            } 
        }
    }
    
    // Number of instructions written
    return pc;
  100fe4:	e0bfcb17 	ldw	r2,-212(fp)
}
  100fe8:	e037883a 	mov	sp,fp
  100fec:	dfc00117 	ldw	ra,4(sp)
  100ff0:	df000017 	ldw	fp,0(sp)
  100ff4:	dec00204 	addi	sp,sp,8
  100ff8:	f800283a 	ret

00100ffc <tis_disassembler_test>:

void tis_disassembler_test() {
  100ffc:	deffe004 	addi	sp,sp,-128
  101000:	dfc01f15 	stw	ra,124(sp)
  101004:	df001e15 	stw	fp,120(sp)
  101008:	df001e04 	addi	fp,sp,120
    const uint16_t instructions_bin[] = {
  10100c:	e03fe30d 	sth	zero,-116(fp)
  101010:	00806944 	movi	r2,421
  101014:	e0bfe38d 	sth	r2,-114(fp)
  101018:	00816944 	movi	r2,1445
  10101c:	e0bfe40d 	sth	r2,-112(fp)
  101020:	00820184 	movi	r2,2054
  101024:	e0bfe48d 	sth	r2,-110(fp)
  101028:	00830004 	movi	r2,3072
  10102c:	e0bfe50d 	sth	r2,-108(fp)
  101030:	00a2ba04 	movi	r2,-29976
  101034:	e0bfe58d 	sth	r2,-106(fp)
  101038:	00a8d604 	movi	r2,-23720
  10103c:	e0bfe60d 	sth	r2,-104(fp)
  101040:	00ba0104 	movi	r2,-6140
  101044:	e0bfe68d 	sth	r2,-102(fp)
  101048:	00b60084 	movi	r2,-10238
  10104c:	e0bfe70d 	sth	r2,-100(fp)
  101050:	00920004 	movi	r2,18432
  101054:	e0bfe78d 	sth	r2,-98(fp)
  101058:	00940004 	movi	r2,20480
  10105c:	e0bfe80d 	sth	r2,-96(fp)
  101060:	00900004 	movi	r2,16384
  101064:	e0bfe88d 	sth	r2,-94(fp)
  101068:	00980044 	movi	r2,24577
  10106c:	e0bfe90d 	sth	r2,-92(fp)
        0x0C00, 0x8AE8, 0xA358, 0xE804, 
        0xD802, 0x4800, 0x5000, 0x4000, 
        0x6001, 
    };

    const char *instructions_str[] = {
  101070:	008004b4 	movhi	r2,18
  101074:	108bb804 	addi	r2,r2,12000
  101078:	e0bfea15 	stw	r2,-88(fp)
  10107c:	008004b4 	movhi	r2,18
  101080:	108c1904 	addi	r2,r2,12388
  101084:	e0bfeb15 	stw	r2,-84(fp)
  101088:	008004b4 	movhi	r2,18
  10108c:	108c1b04 	addi	r2,r2,12396
  101090:	e0bfec15 	stw	r2,-80(fp)
  101094:	008004b4 	movhi	r2,18
  101098:	108c1d04 	addi	r2,r2,12404
  10109c:	e0bfed15 	stw	r2,-76(fp)
  1010a0:	008004b4 	movhi	r2,18
  1010a4:	108c1f04 	addi	r2,r2,12412
  1010a8:	e0bfee15 	stw	r2,-72(fp)
  1010ac:	008004b4 	movhi	r2,18
  1010b0:	108c2104 	addi	r2,r2,12420
  1010b4:	e0bfef15 	stw	r2,-68(fp)
  1010b8:	008004b4 	movhi	r2,18
  1010bc:	108c2504 	addi	r2,r2,12436
  1010c0:	e0bff015 	stw	r2,-64(fp)
  1010c4:	008004b4 	movhi	r2,18
  1010c8:	108c2904 	addi	r2,r2,12452
  1010cc:	e0bff115 	stw	r2,-60(fp)
  1010d0:	008004b4 	movhi	r2,18
  1010d4:	108c2d04 	addi	r2,r2,12468
  1010d8:	e0bff215 	stw	r2,-56(fp)
  1010dc:	008004b4 	movhi	r2,18
  1010e0:	108bbe04 	addi	r2,r2,12024
  1010e4:	e0bff315 	stw	r2,-52(fp)
  1010e8:	008004b4 	movhi	r2,18
  1010ec:	108bbc04 	addi	r2,r2,12016
  1010f0:	e0bff415 	stw	r2,-48(fp)
  1010f4:	008004b4 	movhi	r2,18
  1010f8:	108bbd04 	addi	r2,r2,12020
  1010fc:	e0bff515 	stw	r2,-44(fp)
  101100:	008004b4 	movhi	r2,18
  101104:	108c3104 	addi	r2,r2,12484
  101108:	e0bff615 	stw	r2,-40(fp)
  10110c:	008004b4 	movhi	r2,18
  101110:	108c3304 	addi	r2,r2,12492
  101114:	e0bff715 	stw	r2,-36(fp)
        "SUB NIL",      "MOV 744, ACC", "MOV 856, LEFT", "MOV LEFT, RIGHT",
        "MOV UP, DOWN", "NEG",          "SWP",           "SAV",
        "JRO ACC",      "JEZ 0x0"
    };

    for (int i = 0; i < (sizeof(instructions_bin) / sizeof(instructions_bin[0])); i++) {
  101118:	e03fe215 	stw	zero,-120(fp)
  10111c:	00003006 	br	1011e0 <tis_disassembler_test+0x1e4>
        char result[32] = {0};
  101120:	e03ff815 	stw	zero,-32(fp)
  101124:	e03ff915 	stw	zero,-28(fp)
  101128:	e03ffa15 	stw	zero,-24(fp)
  10112c:	e03ffb15 	stw	zero,-20(fp)
  101130:	e03ffc15 	stw	zero,-16(fp)
  101134:	e03ffd15 	stw	zero,-12(fp)
  101138:	e03ffe15 	stw	zero,-8(fp)
  10113c:	e03fff15 	stw	zero,-4(fp)
        tis_dissassemble(instructions_bin[i], result);
  101140:	e0bfe217 	ldw	r2,-120(fp)
  101144:	1085883a 	add	r2,r2,r2
  101148:	e0ffe204 	addi	r3,fp,-120
  10114c:	1885883a 	add	r2,r3,r2
  101150:	10800104 	addi	r2,r2,4
  101154:	1080000b 	ldhu	r2,0(r2)
  101158:	10bfffcc 	andi	r2,r2,65535
  10115c:	e0fff804 	addi	r3,fp,-32
  101160:	180b883a 	mov	r5,r3
  101164:	1009883a 	mov	r4,r2
  101168:	01003940 	call	100394 <tis_dissassemble>

        if (strcmp(result, instructions_str[i])) {
  10116c:	e0bfe217 	ldw	r2,-120(fp)
  101170:	1085883a 	add	r2,r2,r2
  101174:	1085883a 	add	r2,r2,r2
  101178:	e0ffe204 	addi	r3,fp,-120
  10117c:	1885883a 	add	r2,r3,r2
  101180:	10800804 	addi	r2,r2,32
  101184:	10c00017 	ldw	r3,0(r2)
  101188:	e0bff804 	addi	r2,fp,-32
  10118c:	180b883a 	mov	r5,r3
  101190:	1009883a 	mov	r4,r2
  101194:	0101c040 	call	101c04 <strcmp>
  101198:	10000e26 	beq	r2,zero,1011d4 <tis_disassembler_test+0x1d8>
            printf("Failed at %d\nExpected: %s\nResult: %s\n", i, instructions_str[i], result);
  10119c:	e0bfe217 	ldw	r2,-120(fp)
  1011a0:	1085883a 	add	r2,r2,r2
  1011a4:	1085883a 	add	r2,r2,r2
  1011a8:	e0ffe204 	addi	r3,fp,-120
  1011ac:	1885883a 	add	r2,r3,r2
  1011b0:	10800804 	addi	r2,r2,32
  1011b4:	10800017 	ldw	r2,0(r2)
  1011b8:	e0fff804 	addi	r3,fp,-32
  1011bc:	180f883a 	mov	r7,r3
  1011c0:	100d883a 	mov	r6,r2
  1011c4:	e17fe217 	ldw	r5,-120(fp)
  1011c8:	010004b4 	movhi	r4,18
  1011cc:	210c3504 	addi	r4,r4,12500
  1011d0:	01018000 	call	101800 <printf>
        "SUB NIL",      "MOV 744, ACC", "MOV 856, LEFT", "MOV LEFT, RIGHT",
        "MOV UP, DOWN", "NEG",          "SWP",           "SAV",
        "JRO ACC",      "JEZ 0x0"
    };

    for (int i = 0; i < (sizeof(instructions_bin) / sizeof(instructions_bin[0])); i++) {
  1011d4:	e0bfe217 	ldw	r2,-120(fp)
  1011d8:	10800044 	addi	r2,r2,1
  1011dc:	e0bfe215 	stw	r2,-120(fp)
  1011e0:	e0bfe217 	ldw	r2,-120(fp)
  1011e4:	10800370 	cmpltui	r2,r2,13
  1011e8:	103fcd1e 	bne	r2,zero,101120 <__alt_data_end+0xfffc1120>

        if (strcmp(result, instructions_str[i])) {
            printf("Failed at %d\nExpected: %s\nResult: %s\n", i, instructions_str[i], result);
        }
    }
}
  1011ec:	0001883a 	nop
  1011f0:	e037883a 	mov	sp,fp
  1011f4:	dfc00117 	ldw	ra,4(sp)
  1011f8:	df000017 	ldw	fp,0(sp)
  1011fc:	dec00204 	addi	sp,sp,8
  101200:	f800283a 	ret

00101204 <tis_assembler_test>:

void tis_assembler_test() {
  101204:	defff204 	addi	sp,sp,-56
  101208:	dfc00d15 	stw	ra,52(sp)
  10120c:	df000c15 	stw	fp,48(sp)
  101210:	df000c04 	addi	fp,sp,48
	puts("Starting assembler test");
  101214:	010004b4 	movhi	r4,18
  101218:	210c3f04 	addi	r4,r4,12540
  10121c:	01018fc0 	call	1018fc <puts>

    char* assembly =
  101220:	008004b4 	movhi	r2,18
  101224:	108c4504 	addi	r2,r2,12564
  101228:	e0bff615 	stw	r2,-40(fp)
        "SUB NIL\n"
        "MOV 744, ACC\n"
        "JEZ TWO\n"
        "JRO ACC";

    uint16_t expected[] = {
  10122c:	e03ff80d 	sth	zero,-32(fp)
  101230:	00806944 	movi	r2,421
  101234:	e0bff88d 	sth	r2,-30(fp)
  101238:	00816944 	movi	r2,1445
  10123c:	e0bff90d 	sth	r2,-28(fp)
  101240:	00820184 	movi	r2,2054
  101244:	e0bff98d 	sth	r2,-26(fp)
  101248:	00830004 	movi	r2,3072
  10124c:	e0bffa0d 	sth	r2,-24(fp)
  101250:	00a2ba04 	movi	r2,-29976
  101254:	e0bffa8d 	sth	r2,-22(fp)
  101258:	009c1084 	movi	r2,28738
  10125c:	e0bffb0d 	sth	r2,-20(fp)
  101260:	00980044 	movi	r2,24577
  101264:	e0bffb8d 	sth	r2,-18(fp)
        0x0000, 0x01A5, 0x05A5, 0x0806, 0x0C00, 0x8AE8, 0x7042, 0x6001
    };

    uint16_t result[8];
    int count = tis_assemble_program(assembly, result);
  101268:	e0bffc04 	addi	r2,fp,-16
  10126c:	100b883a 	mov	r5,r2
  101270:	e13ff617 	ldw	r4,-40(fp)
  101274:	01009100 	call	100910 <tis_assemble_program>
  101278:	e0bff715 	stw	r2,-36(fp)

    printf("Encoded %d instructions\n", count);
  10127c:	e17ff717 	ldw	r5,-36(fp)
  101280:	010004b4 	movhi	r4,18
  101284:	210c5a04 	addi	r4,r4,12648
  101288:	01018000 	call	101800 <printf>

    int failures = 0;
  10128c:	e03ff415 	stw	zero,-48(fp)
    for (int i = 0; i < (sizeof(expected)/sizeof(expected[0])); i++) {
  101290:	e03ff515 	stw	zero,-44(fp)
  101294:	00002906 	br	10133c <tis_assembler_test+0x138>
        if (expected[i] != result[i]) {
  101298:	e0bff517 	ldw	r2,-44(fp)
  10129c:	1085883a 	add	r2,r2,r2
  1012a0:	e0fff404 	addi	r3,fp,-48
  1012a4:	1885883a 	add	r2,r3,r2
  1012a8:	10800404 	addi	r2,r2,16
  1012ac:	10c0000b 	ldhu	r3,0(r2)
  1012b0:	e0bff517 	ldw	r2,-44(fp)
  1012b4:	1085883a 	add	r2,r2,r2
  1012b8:	e13ff404 	addi	r4,fp,-48
  1012bc:	2085883a 	add	r2,r4,r2
  1012c0:	10800804 	addi	r2,r2,32
  1012c4:	1080000b 	ldhu	r2,0(r2)
  1012c8:	18ffffcc 	andi	r3,r3,65535
  1012cc:	10bfffcc 	andi	r2,r2,65535
  1012d0:	18801726 	beq	r3,r2,101330 <tis_assembler_test+0x12c>
            printf("Failed at %d\nExpected: %X\nResult: %X\n", i, expected[i], result[i]);
  1012d4:	e0bff517 	ldw	r2,-44(fp)
  1012d8:	1085883a 	add	r2,r2,r2
  1012dc:	e0fff404 	addi	r3,fp,-48
  1012e0:	1885883a 	add	r2,r3,r2
  1012e4:	10800404 	addi	r2,r2,16
  1012e8:	1080000b 	ldhu	r2,0(r2)
  1012ec:	10ffffcc 	andi	r3,r2,65535
  1012f0:	e0bff517 	ldw	r2,-44(fp)
  1012f4:	1085883a 	add	r2,r2,r2
  1012f8:	e13ff404 	addi	r4,fp,-48
  1012fc:	2085883a 	add	r2,r4,r2
  101300:	10800804 	addi	r2,r2,32
  101304:	1080000b 	ldhu	r2,0(r2)
  101308:	10bfffcc 	andi	r2,r2,65535
  10130c:	100f883a 	mov	r7,r2
  101310:	180d883a 	mov	r6,r3
  101314:	e17ff517 	ldw	r5,-44(fp)
  101318:	010004b4 	movhi	r4,18
  10131c:	210c6104 	addi	r4,r4,12676
  101320:	01018000 	call	101800 <printf>
            failures++;
  101324:	e0bff417 	ldw	r2,-48(fp)
  101328:	10800044 	addi	r2,r2,1
  10132c:	e0bff415 	stw	r2,-48(fp)
    int count = tis_assemble_program(assembly, result);

    printf("Encoded %d instructions\n", count);

    int failures = 0;
    for (int i = 0; i < (sizeof(expected)/sizeof(expected[0])); i++) {
  101330:	e0bff517 	ldw	r2,-44(fp)
  101334:	10800044 	addi	r2,r2,1
  101338:	e0bff515 	stw	r2,-44(fp)
  10133c:	e0bff517 	ldw	r2,-44(fp)
  101340:	10800230 	cmpltui	r2,r2,8
  101344:	103fd41e 	bne	r2,zero,101298 <__alt_data_end+0xfffc1298>
        if (expected[i] != result[i]) {
            printf("Failed at %d\nExpected: %X\nResult: %X\n", i, expected[i], result[i]);
            failures++;
        }
    }
    if (failures) {
  101348:	e0bff417 	ldw	r2,-48(fp)
  10134c:	10000526 	beq	r2,zero,101364 <tis_assembler_test+0x160>
        printf("Found %d failures", failures);
  101350:	e17ff417 	ldw	r5,-48(fp)
  101354:	010004b4 	movhi	r4,18
  101358:	210c6b04 	addi	r4,r4,12716
  10135c:	01018000 	call	101800 <printf>
    } else {
        puts("Assembler success! :)");
    }
}
  101360:	00000306 	br	101370 <tis_assembler_test+0x16c>
        }
    }
    if (failures) {
        printf("Found %d failures", failures);
    } else {
        puts("Assembler success! :)");
  101364:	010004b4 	movhi	r4,18
  101368:	210c7004 	addi	r4,r4,12736
  10136c:	01018fc0 	call	1018fc <puts>
    }
}
  101370:	0001883a 	nop
  101374:	e037883a 	mov	sp,fp
  101378:	dfc00117 	ldw	ra,4(sp)
  10137c:	df000017 	ldw	fp,0(sp)
  101380:	dec00204 	addi	sp,sp,8
  101384:	f800283a 	ret

00101388 <configure_node>:
#include <stdio.h>

#include "tis_node.h"
#include "tis_asm.h"

struct tis_node* configure_node(void* base, const uint16_t instructions[], char instruction_count) {
  101388:	defffa04 	addi	sp,sp,-24
  10138c:	df000515 	stw	fp,20(sp)
  101390:	df000504 	addi	fp,sp,20
  101394:	e13ffd15 	stw	r4,-12(fp)
  101398:	e17ffe15 	stw	r5,-8(fp)
  10139c:	3005883a 	mov	r2,r6
  1013a0:	e0bfff05 	stb	r2,-4(fp)
    struct tis_node *node = (struct tis_node*) base;
  1013a4:	e0bffd17 	ldw	r2,-12(fp)
  1013a8:	e0bffc15 	stw	r2,-16(fp)

    node->config = instruction_count & 0xF;
  1013ac:	e0bfff03 	ldbu	r2,-4(fp)
  1013b0:	10803fcc 	andi	r2,r2,255
  1013b4:	108003cc 	andi	r2,r2,15
  1013b8:	1007883a 	mov	r3,r2
  1013bc:	e0bffc17 	ldw	r2,-16(fp)
  1013c0:	10c0000d 	sth	r3,0(r2)

    if (instruction_count > 15) {
  1013c4:	e0bfff07 	ldb	r2,-4(fp)
  1013c8:	10800410 	cmplti	r2,r2,16
  1013cc:	1000021e 	bne	r2,zero,1013d8 <configure_node+0x50>
        return (struct tis_node*)0;
  1013d0:	0005883a 	mov	r2,zero
  1013d4:	00001506 	br	10142c <configure_node+0xa4>
    }

    for (int i = 0; i < instruction_count; i++) {
  1013d8:	e03ffb15 	stw	zero,-20(fp)
  1013dc:	00000f06 	br	10141c <configure_node+0x94>
        node->instructions[i] = instructions[i];
  1013e0:	e0bffb17 	ldw	r2,-20(fp)
  1013e4:	1085883a 	add	r2,r2,r2
  1013e8:	1007883a 	mov	r3,r2
  1013ec:	e0bffe17 	ldw	r2,-8(fp)
  1013f0:	10c5883a 	add	r2,r2,r3
  1013f4:	10c0000b 	ldhu	r3,0(r2)
  1013f8:	e13ffc17 	ldw	r4,-16(fp)
  1013fc:	e0bffb17 	ldw	r2,-20(fp)
  101400:	1085883a 	add	r2,r2,r2
  101404:	2085883a 	add	r2,r4,r2
  101408:	10800084 	addi	r2,r2,2
  10140c:	10c0000d 	sth	r3,0(r2)

    if (instruction_count > 15) {
        return (struct tis_node*)0;
    }

    for (int i = 0; i < instruction_count; i++) {
  101410:	e0bffb17 	ldw	r2,-20(fp)
  101414:	10800044 	addi	r2,r2,1
  101418:	e0bffb15 	stw	r2,-20(fp)
  10141c:	e0bfff07 	ldb	r2,-4(fp)
  101420:	e0fffb17 	ldw	r3,-20(fp)
  101424:	18bfee16 	blt	r3,r2,1013e0 <__alt_data_end+0xfffc13e0>
        node->instructions[i] = instructions[i];
    }

    return node;
  101428:	e0bffc17 	ldw	r2,-16(fp)
}
  10142c:	e037883a 	mov	sp,fp
  101430:	df000017 	ldw	fp,0(sp)
  101434:	dec00104 	addi	sp,sp,4
  101438:	f800283a 	ret

0010143c <node_info>:

int node_info(struct tis_node* node, char buffer[]) {
  10143c:	defff904 	addi	sp,sp,-28
  101440:	dfc00615 	stw	ra,24(sp)
  101444:	df000515 	stw	fp,20(sp)
  101448:	df000504 	addi	fp,sp,20
  10144c:	e13ffe15 	stw	r4,-8(fp)
  101450:	e17fff15 	stw	r5,-4(fp)
    char instruction_count = node->config & 0xF;
  101454:	e0bffe17 	ldw	r2,-8(fp)
  101458:	1080000b 	ldhu	r2,0(r2)
  10145c:	108003cc 	andi	r2,r2,15
  101460:	e0bffd05 	stb	r2,-12(fp)

    if (!instruction_count) {
  101464:	e0bffd07 	ldb	r2,-12(fp)
  101468:	10000b1e 	bne	r2,zero,101498 <node_info+0x5c>
        return sprintf(buffer, "Node unconfigured\n");
  10146c:	e0ffff17 	ldw	r3,-4(fp)
  101470:	008004b4 	movhi	r2,18
  101474:	108c7604 	addi	r2,r2,12760
  101478:	1009883a 	mov	r4,r2
  10147c:	008004c4 	movi	r2,19
  101480:	100d883a 	mov	r6,r2
  101484:	200b883a 	mov	r5,r4
  101488:	1809883a 	mov	r4,r3
  10148c:	01015600 	call	101560 <memcpy>
  101490:	00800484 	movi	r2,18
  101494:	00002d06 	br	10154c <node_info+0x110>
    }

    int ptr_offset = 0;
  101498:	e03ffb15 	stw	zero,-20(fp)

    ptr_offset += sprintf(buffer, "%d instruction(s):\n", instruction_count);
  10149c:	e0bffd07 	ldb	r2,-12(fp)
  1014a0:	100d883a 	mov	r6,r2
  1014a4:	014004b4 	movhi	r5,18
  1014a8:	294c7b04 	addi	r5,r5,12780
  1014ac:	e13fff17 	ldw	r4,-4(fp)
  1014b0:	01019680 	call	101968 <sprintf>
  1014b4:	1007883a 	mov	r3,r2
  1014b8:	e0bffb17 	ldw	r2,-20(fp)
  1014bc:	10c5883a 	add	r2,r2,r3
  1014c0:	e0bffb15 	stw	r2,-20(fp)

    for (int i = 0; i < instruction_count; i++) {
  1014c4:	e03ffc15 	stw	zero,-16(fp)
  1014c8:	00001c06 	br	10153c <node_info+0x100>
        uint16_t instruction = node->instructions[i];
  1014cc:	e0fffe17 	ldw	r3,-8(fp)
  1014d0:	e0bffc17 	ldw	r2,-16(fp)
  1014d4:	1085883a 	add	r2,r2,r2
  1014d8:	1885883a 	add	r2,r3,r2
  1014dc:	10800084 	addi	r2,r2,2
  1014e0:	1080000b 	ldhu	r2,0(r2)
  1014e4:	e0bffd8d 	sth	r2,-10(fp)
        ptr_offset += tis_dissassemble(instruction, &buffer[ptr_offset]);
  1014e8:	e13ffd8b 	ldhu	r4,-10(fp)
  1014ec:	e0bffb17 	ldw	r2,-20(fp)
  1014f0:	e0ffff17 	ldw	r3,-4(fp)
  1014f4:	1885883a 	add	r2,r3,r2
  1014f8:	100b883a 	mov	r5,r2
  1014fc:	01003940 	call	100394 <tis_dissassemble>
  101500:	1007883a 	mov	r3,r2
  101504:	e0bffb17 	ldw	r2,-20(fp)
  101508:	10c5883a 	add	r2,r2,r3
  10150c:	e0bffb15 	stw	r2,-20(fp)
        buffer[ptr_offset] = '\n';
  101510:	e0bffb17 	ldw	r2,-20(fp)
  101514:	e0ffff17 	ldw	r3,-4(fp)
  101518:	1885883a 	add	r2,r3,r2
  10151c:	00c00284 	movi	r3,10
  101520:	10c00005 	stb	r3,0(r2)
        ptr_offset += 1;
  101524:	e0bffb17 	ldw	r2,-20(fp)
  101528:	10800044 	addi	r2,r2,1
  10152c:	e0bffb15 	stw	r2,-20(fp)

    int ptr_offset = 0;

    ptr_offset += sprintf(buffer, "%d instruction(s):\n", instruction_count);

    for (int i = 0; i < instruction_count; i++) {
  101530:	e0bffc17 	ldw	r2,-16(fp)
  101534:	10800044 	addi	r2,r2,1
  101538:	e0bffc15 	stw	r2,-16(fp)
  10153c:	e0bffd07 	ldb	r2,-12(fp)
  101540:	e0fffc17 	ldw	r3,-16(fp)
  101544:	18bfe116 	blt	r3,r2,1014cc <__alt_data_end+0xfffc14cc>
        uint16_t instruction = node->instructions[i];
        ptr_offset += tis_dissassemble(instruction, &buffer[ptr_offset]);
        buffer[ptr_offset] = '\n';
        ptr_offset += 1;
    }
    return ptr_offset;
  101548:	e0bffb17 	ldw	r2,-20(fp)
}
  10154c:	e037883a 	mov	sp,fp
  101550:	dfc00117 	ldw	ra,4(sp)
  101554:	df000017 	ldw	fp,0(sp)
  101558:	dec00204 	addi	sp,sp,8
  10155c:	f800283a 	ret

00101560 <memcpy>:
  101560:	defffd04 	addi	sp,sp,-12
  101564:	dfc00215 	stw	ra,8(sp)
  101568:	dc400115 	stw	r17,4(sp)
  10156c:	dc000015 	stw	r16,0(sp)
  101570:	00c003c4 	movi	r3,15
  101574:	2005883a 	mov	r2,r4
  101578:	1980452e 	bgeu	r3,r6,101690 <memcpy+0x130>
  10157c:	2906b03a 	or	r3,r5,r4
  101580:	18c000cc 	andi	r3,r3,3
  101584:	1800441e 	bne	r3,zero,101698 <memcpy+0x138>
  101588:	347ffc04 	addi	r17,r6,-16
  10158c:	8822d13a 	srli	r17,r17,4
  101590:	28c00104 	addi	r3,r5,4
  101594:	23400104 	addi	r13,r4,4
  101598:	8820913a 	slli	r16,r17,4
  10159c:	2b000204 	addi	r12,r5,8
  1015a0:	22c00204 	addi	r11,r4,8
  1015a4:	84000504 	addi	r16,r16,20
  1015a8:	2a800304 	addi	r10,r5,12
  1015ac:	22400304 	addi	r9,r4,12
  1015b0:	2c21883a 	add	r16,r5,r16
  1015b4:	2811883a 	mov	r8,r5
  1015b8:	200f883a 	mov	r7,r4
  1015bc:	41000017 	ldw	r4,0(r8)
  1015c0:	1fc00017 	ldw	ra,0(r3)
  1015c4:	63c00017 	ldw	r15,0(r12)
  1015c8:	39000015 	stw	r4,0(r7)
  1015cc:	53800017 	ldw	r14,0(r10)
  1015d0:	6fc00015 	stw	ra,0(r13)
  1015d4:	5bc00015 	stw	r15,0(r11)
  1015d8:	4b800015 	stw	r14,0(r9)
  1015dc:	18c00404 	addi	r3,r3,16
  1015e0:	39c00404 	addi	r7,r7,16
  1015e4:	42000404 	addi	r8,r8,16
  1015e8:	6b400404 	addi	r13,r13,16
  1015ec:	63000404 	addi	r12,r12,16
  1015f0:	5ac00404 	addi	r11,r11,16
  1015f4:	52800404 	addi	r10,r10,16
  1015f8:	4a400404 	addi	r9,r9,16
  1015fc:	1c3fef1e 	bne	r3,r16,1015bc <__alt_data_end+0xfffc15bc>
  101600:	89c00044 	addi	r7,r17,1
  101604:	380e913a 	slli	r7,r7,4
  101608:	310003cc 	andi	r4,r6,15
  10160c:	02c000c4 	movi	r11,3
  101610:	11c7883a 	add	r3,r2,r7
  101614:	29cb883a 	add	r5,r5,r7
  101618:	5900212e 	bgeu	r11,r4,1016a0 <memcpy+0x140>
  10161c:	1813883a 	mov	r9,r3
  101620:	2811883a 	mov	r8,r5
  101624:	200f883a 	mov	r7,r4
  101628:	42800017 	ldw	r10,0(r8)
  10162c:	4a400104 	addi	r9,r9,4
  101630:	39ffff04 	addi	r7,r7,-4
  101634:	4abfff15 	stw	r10,-4(r9)
  101638:	42000104 	addi	r8,r8,4
  10163c:	59fffa36 	bltu	r11,r7,101628 <__alt_data_end+0xfffc1628>
  101640:	213fff04 	addi	r4,r4,-4
  101644:	2008d0ba 	srli	r4,r4,2
  101648:	318000cc 	andi	r6,r6,3
  10164c:	21000044 	addi	r4,r4,1
  101650:	2109883a 	add	r4,r4,r4
  101654:	2109883a 	add	r4,r4,r4
  101658:	1907883a 	add	r3,r3,r4
  10165c:	290b883a 	add	r5,r5,r4
  101660:	30000626 	beq	r6,zero,10167c <memcpy+0x11c>
  101664:	198d883a 	add	r6,r3,r6
  101668:	29c00003 	ldbu	r7,0(r5)
  10166c:	18c00044 	addi	r3,r3,1
  101670:	29400044 	addi	r5,r5,1
  101674:	19ffffc5 	stb	r7,-1(r3)
  101678:	19bffb1e 	bne	r3,r6,101668 <__alt_data_end+0xfffc1668>
  10167c:	dfc00217 	ldw	ra,8(sp)
  101680:	dc400117 	ldw	r17,4(sp)
  101684:	dc000017 	ldw	r16,0(sp)
  101688:	dec00304 	addi	sp,sp,12
  10168c:	f800283a 	ret
  101690:	2007883a 	mov	r3,r4
  101694:	003ff206 	br	101660 <__alt_data_end+0xfffc1660>
  101698:	2007883a 	mov	r3,r4
  10169c:	003ff106 	br	101664 <__alt_data_end+0xfffc1664>
  1016a0:	200d883a 	mov	r6,r4
  1016a4:	003fee06 	br	101660 <__alt_data_end+0xfffc1660>

001016a8 <memset>:
  1016a8:	20c000cc 	andi	r3,r4,3
  1016ac:	2005883a 	mov	r2,r4
  1016b0:	18004426 	beq	r3,zero,1017c4 <memset+0x11c>
  1016b4:	31ffffc4 	addi	r7,r6,-1
  1016b8:	30004026 	beq	r6,zero,1017bc <memset+0x114>
  1016bc:	2813883a 	mov	r9,r5
  1016c0:	200d883a 	mov	r6,r4
  1016c4:	2007883a 	mov	r3,r4
  1016c8:	00000406 	br	1016dc <memset+0x34>
  1016cc:	3a3fffc4 	addi	r8,r7,-1
  1016d0:	31800044 	addi	r6,r6,1
  1016d4:	38003926 	beq	r7,zero,1017bc <memset+0x114>
  1016d8:	400f883a 	mov	r7,r8
  1016dc:	18c00044 	addi	r3,r3,1
  1016e0:	32400005 	stb	r9,0(r6)
  1016e4:	1a0000cc 	andi	r8,r3,3
  1016e8:	403ff81e 	bne	r8,zero,1016cc <__alt_data_end+0xfffc16cc>
  1016ec:	010000c4 	movi	r4,3
  1016f0:	21c02d2e 	bgeu	r4,r7,1017a8 <memset+0x100>
  1016f4:	29003fcc 	andi	r4,r5,255
  1016f8:	200c923a 	slli	r6,r4,8
  1016fc:	3108b03a 	or	r4,r6,r4
  101700:	200c943a 	slli	r6,r4,16
  101704:	218cb03a 	or	r6,r4,r6
  101708:	010003c4 	movi	r4,15
  10170c:	21c0182e 	bgeu	r4,r7,101770 <memset+0xc8>
  101710:	3b3ffc04 	addi	r12,r7,-16
  101714:	6018d13a 	srli	r12,r12,4
  101718:	1a000104 	addi	r8,r3,4
  10171c:	1ac00204 	addi	r11,r3,8
  101720:	6008913a 	slli	r4,r12,4
  101724:	1a800304 	addi	r10,r3,12
  101728:	1813883a 	mov	r9,r3
  10172c:	21000504 	addi	r4,r4,20
  101730:	1909883a 	add	r4,r3,r4
  101734:	49800015 	stw	r6,0(r9)
  101738:	41800015 	stw	r6,0(r8)
  10173c:	59800015 	stw	r6,0(r11)
  101740:	51800015 	stw	r6,0(r10)
  101744:	42000404 	addi	r8,r8,16
  101748:	4a400404 	addi	r9,r9,16
  10174c:	5ac00404 	addi	r11,r11,16
  101750:	52800404 	addi	r10,r10,16
  101754:	413ff71e 	bne	r8,r4,101734 <__alt_data_end+0xfffc1734>
  101758:	63000044 	addi	r12,r12,1
  10175c:	6018913a 	slli	r12,r12,4
  101760:	39c003cc 	andi	r7,r7,15
  101764:	010000c4 	movi	r4,3
  101768:	1b07883a 	add	r3,r3,r12
  10176c:	21c00e2e 	bgeu	r4,r7,1017a8 <memset+0x100>
  101770:	1813883a 	mov	r9,r3
  101774:	3811883a 	mov	r8,r7
  101778:	010000c4 	movi	r4,3
  10177c:	49800015 	stw	r6,0(r9)
  101780:	423fff04 	addi	r8,r8,-4
  101784:	4a400104 	addi	r9,r9,4
  101788:	223ffc36 	bltu	r4,r8,10177c <__alt_data_end+0xfffc177c>
  10178c:	393fff04 	addi	r4,r7,-4
  101790:	2008d0ba 	srli	r4,r4,2
  101794:	39c000cc 	andi	r7,r7,3
  101798:	21000044 	addi	r4,r4,1
  10179c:	2109883a 	add	r4,r4,r4
  1017a0:	2109883a 	add	r4,r4,r4
  1017a4:	1907883a 	add	r3,r3,r4
  1017a8:	38000526 	beq	r7,zero,1017c0 <memset+0x118>
  1017ac:	19cf883a 	add	r7,r3,r7
  1017b0:	19400005 	stb	r5,0(r3)
  1017b4:	18c00044 	addi	r3,r3,1
  1017b8:	38fffd1e 	bne	r7,r3,1017b0 <__alt_data_end+0xfffc17b0>
  1017bc:	f800283a 	ret
  1017c0:	f800283a 	ret
  1017c4:	2007883a 	mov	r3,r4
  1017c8:	300f883a 	mov	r7,r6
  1017cc:	003fc706 	br	1016ec <__alt_data_end+0xfffc16ec>

001017d0 <_printf_r>:
  1017d0:	defffd04 	addi	sp,sp,-12
  1017d4:	2805883a 	mov	r2,r5
  1017d8:	dfc00015 	stw	ra,0(sp)
  1017dc:	d9800115 	stw	r6,4(sp)
  1017e0:	d9c00215 	stw	r7,8(sp)
  1017e4:	21400217 	ldw	r5,8(r4)
  1017e8:	d9c00104 	addi	r7,sp,4
  1017ec:	100d883a 	mov	r6,r2
  1017f0:	0105a640 	call	105a64 <___vfprintf_internal_r>
  1017f4:	dfc00017 	ldw	ra,0(sp)
  1017f8:	dec00304 	addi	sp,sp,12
  1017fc:	f800283a 	ret

00101800 <printf>:
  101800:	defffc04 	addi	sp,sp,-16
  101804:	dfc00015 	stw	ra,0(sp)
  101808:	d9400115 	stw	r5,4(sp)
  10180c:	d9800215 	stw	r6,8(sp)
  101810:	d9c00315 	stw	r7,12(sp)
  101814:	008004b4 	movhi	r2,18
  101818:	10956e04 	addi	r2,r2,21944
  10181c:	10800017 	ldw	r2,0(r2)
  101820:	200b883a 	mov	r5,r4
  101824:	d9800104 	addi	r6,sp,4
  101828:	11000217 	ldw	r4,8(r2)
  10182c:	0107d400 	call	107d40 <__vfprintf_internal>
  101830:	dfc00017 	ldw	ra,0(sp)
  101834:	dec00404 	addi	sp,sp,16
  101838:	f800283a 	ret

0010183c <_puts_r>:
  10183c:	defff604 	addi	sp,sp,-40
  101840:	dc000715 	stw	r16,28(sp)
  101844:	2021883a 	mov	r16,r4
  101848:	2809883a 	mov	r4,r5
  10184c:	dc400815 	stw	r17,32(sp)
  101850:	dfc00915 	stw	ra,36(sp)
  101854:	2823883a 	mov	r17,r5
  101858:	0101ce00 	call	101ce0 <strlen>
  10185c:	10c00044 	addi	r3,r2,1
  101860:	d8800115 	stw	r2,4(sp)
  101864:	008004b4 	movhi	r2,18
  101868:	108c8004 	addi	r2,r2,12800
  10186c:	d8800215 	stw	r2,8(sp)
  101870:	00800044 	movi	r2,1
  101874:	d8800315 	stw	r2,12(sp)
  101878:	00800084 	movi	r2,2
  10187c:	dc400015 	stw	r17,0(sp)
  101880:	d8c00615 	stw	r3,24(sp)
  101884:	dec00415 	stw	sp,16(sp)
  101888:	d8800515 	stw	r2,20(sp)
  10188c:	80000226 	beq	r16,zero,101898 <_puts_r+0x5c>
  101890:	80800e17 	ldw	r2,56(r16)
  101894:	10001426 	beq	r2,zero,1018e8 <_puts_r+0xac>
  101898:	81400217 	ldw	r5,8(r16)
  10189c:	2880030b 	ldhu	r2,12(r5)
  1018a0:	10c8000c 	andi	r3,r2,8192
  1018a4:	1800061e 	bne	r3,zero,1018c0 <_puts_r+0x84>
  1018a8:	29001917 	ldw	r4,100(r5)
  1018ac:	00f7ffc4 	movi	r3,-8193
  1018b0:	10880014 	ori	r2,r2,8192
  1018b4:	20c6703a 	and	r3,r4,r3
  1018b8:	2880030d 	sth	r2,12(r5)
  1018bc:	28c01915 	stw	r3,100(r5)
  1018c0:	d9800404 	addi	r6,sp,16
  1018c4:	8009883a 	mov	r4,r16
  1018c8:	010a35c0 	call	10a35c <__sfvwrite_r>
  1018cc:	1000091e 	bne	r2,zero,1018f4 <_puts_r+0xb8>
  1018d0:	00800284 	movi	r2,10
  1018d4:	dfc00917 	ldw	ra,36(sp)
  1018d8:	dc400817 	ldw	r17,32(sp)
  1018dc:	dc000717 	ldw	r16,28(sp)
  1018e0:	dec00a04 	addi	sp,sp,40
  1018e4:	f800283a 	ret
  1018e8:	8009883a 	mov	r4,r16
  1018ec:	0109ed80 	call	109ed8 <__sinit>
  1018f0:	003fe906 	br	101898 <__alt_data_end+0xfffc1898>
  1018f4:	00bfffc4 	movi	r2,-1
  1018f8:	003ff606 	br	1018d4 <__alt_data_end+0xfffc18d4>

001018fc <puts>:
  1018fc:	008004b4 	movhi	r2,18
  101900:	10956e04 	addi	r2,r2,21944
  101904:	200b883a 	mov	r5,r4
  101908:	11000017 	ldw	r4,0(r2)
  10190c:	010183c1 	jmpi	10183c <_puts_r>

00101910 <_sprintf_r>:
  101910:	deffe404 	addi	sp,sp,-112
  101914:	2807883a 	mov	r3,r5
  101918:	dfc01a15 	stw	ra,104(sp)
  10191c:	d9c01b15 	stw	r7,108(sp)
  101920:	00a00034 	movhi	r2,32768
  101924:	10bfffc4 	addi	r2,r2,-1
  101928:	02008204 	movi	r8,520
  10192c:	d8800215 	stw	r2,8(sp)
  101930:	d8800515 	stw	r2,20(sp)
  101934:	d9c01b04 	addi	r7,sp,108
  101938:	d80b883a 	mov	r5,sp
  10193c:	00bfffc4 	movi	r2,-1
  101940:	d8c00015 	stw	r3,0(sp)
  101944:	d8c00415 	stw	r3,16(sp)
  101948:	da00030d 	sth	r8,12(sp)
  10194c:	d880038d 	sth	r2,14(sp)
  101950:	0101e1c0 	call	101e1c <___svfprintf_internal_r>
  101954:	d8c00017 	ldw	r3,0(sp)
  101958:	18000005 	stb	zero,0(r3)
  10195c:	dfc01a17 	ldw	ra,104(sp)
  101960:	dec01c04 	addi	sp,sp,112
  101964:	f800283a 	ret

00101968 <sprintf>:
  101968:	deffe304 	addi	sp,sp,-116
  10196c:	2007883a 	mov	r3,r4
  101970:	dfc01a15 	stw	ra,104(sp)
  101974:	d9801b15 	stw	r6,108(sp)
  101978:	d9c01c15 	stw	r7,112(sp)
  10197c:	010004b4 	movhi	r4,18
  101980:	21156e04 	addi	r4,r4,21944
  101984:	21000017 	ldw	r4,0(r4)
  101988:	00a00034 	movhi	r2,32768
  10198c:	10bfffc4 	addi	r2,r2,-1
  101990:	280d883a 	mov	r6,r5
  101994:	02008204 	movi	r8,520
  101998:	d8800215 	stw	r2,8(sp)
  10199c:	d8800515 	stw	r2,20(sp)
  1019a0:	d9c01b04 	addi	r7,sp,108
  1019a4:	d80b883a 	mov	r5,sp
  1019a8:	00bfffc4 	movi	r2,-1
  1019ac:	d8c00015 	stw	r3,0(sp)
  1019b0:	d8c00415 	stw	r3,16(sp)
  1019b4:	da00030d 	sth	r8,12(sp)
  1019b8:	d880038d 	sth	r2,14(sp)
  1019bc:	0101e1c0 	call	101e1c <___svfprintf_internal_r>
  1019c0:	d8c00017 	ldw	r3,0(sp)
  1019c4:	18000005 	stb	zero,0(r3)
  1019c8:	dfc01a17 	ldw	ra,104(sp)
  1019cc:	dec01d04 	addi	sp,sp,116
  1019d0:	f800283a 	ret

001019d4 <sscanf>:
  1019d4:	deffe204 	addi	sp,sp,-120
  1019d8:	dc001a15 	stw	r16,104(sp)
  1019dc:	2821883a 	mov	r16,r5
  1019e0:	dfc01b15 	stw	ra,108(sp)
  1019e4:	d9801c15 	stw	r6,112(sp)
  1019e8:	d9c01d15 	stw	r7,116(sp)
  1019ec:	00c08104 	movi	r3,516
  1019f0:	d8c0030d 	sth	r3,12(sp)
  1019f4:	d9000015 	stw	r4,0(sp)
  1019f8:	d9000415 	stw	r4,16(sp)
  1019fc:	0101ce00 	call	101ce0 <strlen>
  101a00:	00c004b4 	movhi	r3,18
  101a04:	18d56e04 	addi	r3,r3,21944
  101a08:	d8800115 	stw	r2,4(sp)
  101a0c:	d8800515 	stw	r2,20(sp)
  101a10:	19000017 	ldw	r4,0(r3)
  101a14:	00800434 	movhi	r2,16
  101a18:	1086c704 	addi	r2,r2,6940
  101a1c:	d8800815 	stw	r2,32(sp)
  101a20:	d9c01c04 	addi	r7,sp,112
  101a24:	800d883a 	mov	r6,r16
  101a28:	d80b883a 	mov	r5,sp
  101a2c:	00bfffc4 	movi	r2,-1
  101a30:	d8000c15 	stw	zero,48(sp)
  101a34:	d8001115 	stw	zero,68(sp)
  101a38:	d880038d 	sth	r2,14(sp)
  101a3c:	01040d80 	call	1040d8 <__ssvfscanf_r>
  101a40:	dfc01b17 	ldw	ra,108(sp)
  101a44:	dc001a17 	ldw	r16,104(sp)
  101a48:	dec01e04 	addi	sp,sp,120
  101a4c:	f800283a 	ret

00101a50 <_sscanf_r>:
  101a50:	deffe204 	addi	sp,sp,-120
  101a54:	dc001b15 	stw	r16,108(sp)
  101a58:	2021883a 	mov	r16,r4
  101a5c:	dfc01c15 	stw	ra,112(sp)
  101a60:	d9c01d15 	stw	r7,116(sp)
  101a64:	00808104 	movi	r2,516
  101a68:	2809883a 	mov	r4,r5
  101a6c:	d9400015 	stw	r5,0(sp)
  101a70:	d9400415 	stw	r5,16(sp)
  101a74:	d9801a15 	stw	r6,104(sp)
  101a78:	d880030d 	sth	r2,12(sp)
  101a7c:	0101ce00 	call	101ce0 <strlen>
  101a80:	d8800115 	stw	r2,4(sp)
  101a84:	d8800515 	stw	r2,20(sp)
  101a88:	d9801a17 	ldw	r6,104(sp)
  101a8c:	00800434 	movhi	r2,16
  101a90:	1086c704 	addi	r2,r2,6940
  101a94:	d8800815 	stw	r2,32(sp)
  101a98:	d9c01d04 	addi	r7,sp,116
  101a9c:	d80b883a 	mov	r5,sp
  101aa0:	8009883a 	mov	r4,r16
  101aa4:	00bfffc4 	movi	r2,-1
  101aa8:	d8000c15 	stw	zero,48(sp)
  101aac:	d8001115 	stw	zero,68(sp)
  101ab0:	d880038d 	sth	r2,14(sp)
  101ab4:	01040d80 	call	1040d8 <__ssvfscanf_r>
  101ab8:	dfc01c17 	ldw	ra,112(sp)
  101abc:	dc001b17 	ldw	r16,108(sp)
  101ac0:	dec01e04 	addi	sp,sp,120
  101ac4:	f800283a 	ret

00101ac8 <__sread>:
  101ac8:	defffe04 	addi	sp,sp,-8
  101acc:	dc000015 	stw	r16,0(sp)
  101ad0:	2821883a 	mov	r16,r5
  101ad4:	2940038f 	ldh	r5,14(r5)
  101ad8:	dfc00115 	stw	ra,4(sp)
  101adc:	010c9fc0 	call	10c9fc <_read_r>
  101ae0:	10000716 	blt	r2,zero,101b00 <__sread+0x38>
  101ae4:	80c01417 	ldw	r3,80(r16)
  101ae8:	1887883a 	add	r3,r3,r2
  101aec:	80c01415 	stw	r3,80(r16)
  101af0:	dfc00117 	ldw	ra,4(sp)
  101af4:	dc000017 	ldw	r16,0(sp)
  101af8:	dec00204 	addi	sp,sp,8
  101afc:	f800283a 	ret
  101b00:	80c0030b 	ldhu	r3,12(r16)
  101b04:	18fbffcc 	andi	r3,r3,61439
  101b08:	80c0030d 	sth	r3,12(r16)
  101b0c:	dfc00117 	ldw	ra,4(sp)
  101b10:	dc000017 	ldw	r16,0(sp)
  101b14:	dec00204 	addi	sp,sp,8
  101b18:	f800283a 	ret

00101b1c <__seofread>:
  101b1c:	0005883a 	mov	r2,zero
  101b20:	f800283a 	ret

00101b24 <__swrite>:
  101b24:	2880030b 	ldhu	r2,12(r5)
  101b28:	defffb04 	addi	sp,sp,-20
  101b2c:	dcc00315 	stw	r19,12(sp)
  101b30:	dc800215 	stw	r18,8(sp)
  101b34:	dc400115 	stw	r17,4(sp)
  101b38:	dc000015 	stw	r16,0(sp)
  101b3c:	dfc00415 	stw	ra,16(sp)
  101b40:	10c0400c 	andi	r3,r2,256
  101b44:	2821883a 	mov	r16,r5
  101b48:	2023883a 	mov	r17,r4
  101b4c:	3025883a 	mov	r18,r6
  101b50:	3827883a 	mov	r19,r7
  101b54:	18000526 	beq	r3,zero,101b6c <__swrite+0x48>
  101b58:	2940038f 	ldh	r5,14(r5)
  101b5c:	01c00084 	movi	r7,2
  101b60:	000d883a 	mov	r6,zero
  101b64:	010aab80 	call	10aab8 <_lseek_r>
  101b68:	8080030b 	ldhu	r2,12(r16)
  101b6c:	8140038f 	ldh	r5,14(r16)
  101b70:	10bbffcc 	andi	r2,r2,61439
  101b74:	980f883a 	mov	r7,r19
  101b78:	900d883a 	mov	r6,r18
  101b7c:	8809883a 	mov	r4,r17
  101b80:	8080030d 	sth	r2,12(r16)
  101b84:	dfc00417 	ldw	ra,16(sp)
  101b88:	dcc00317 	ldw	r19,12(sp)
  101b8c:	dc800217 	ldw	r18,8(sp)
  101b90:	dc400117 	ldw	r17,4(sp)
  101b94:	dc000017 	ldw	r16,0(sp)
  101b98:	dec00504 	addi	sp,sp,20
  101b9c:	0107e181 	jmpi	107e18 <_write_r>

00101ba0 <__sseek>:
  101ba0:	defffe04 	addi	sp,sp,-8
  101ba4:	dc000015 	stw	r16,0(sp)
  101ba8:	2821883a 	mov	r16,r5
  101bac:	2940038f 	ldh	r5,14(r5)
  101bb0:	dfc00115 	stw	ra,4(sp)
  101bb4:	010aab80 	call	10aab8 <_lseek_r>
  101bb8:	00ffffc4 	movi	r3,-1
  101bbc:	10c00826 	beq	r2,r3,101be0 <__sseek+0x40>
  101bc0:	80c0030b 	ldhu	r3,12(r16)
  101bc4:	80801415 	stw	r2,80(r16)
  101bc8:	18c40014 	ori	r3,r3,4096
  101bcc:	80c0030d 	sth	r3,12(r16)
  101bd0:	dfc00117 	ldw	ra,4(sp)
  101bd4:	dc000017 	ldw	r16,0(sp)
  101bd8:	dec00204 	addi	sp,sp,8
  101bdc:	f800283a 	ret
  101be0:	80c0030b 	ldhu	r3,12(r16)
  101be4:	18fbffcc 	andi	r3,r3,61439
  101be8:	80c0030d 	sth	r3,12(r16)
  101bec:	dfc00117 	ldw	ra,4(sp)
  101bf0:	dc000017 	ldw	r16,0(sp)
  101bf4:	dec00204 	addi	sp,sp,8
  101bf8:	f800283a 	ret

00101bfc <__sclose>:
  101bfc:	2940038f 	ldh	r5,14(r5)
  101c00:	0107fcc1 	jmpi	107fcc <_close_r>

00101c04 <strcmp>:
  101c04:	2144b03a 	or	r2,r4,r5
  101c08:	108000cc 	andi	r2,r2,3
  101c0c:	1000171e 	bne	r2,zero,101c6c <strcmp+0x68>
  101c10:	20800017 	ldw	r2,0(r4)
  101c14:	28c00017 	ldw	r3,0(r5)
  101c18:	10c0141e 	bne	r2,r3,101c6c <strcmp+0x68>
  101c1c:	027fbff4 	movhi	r9,65279
  101c20:	4a7fbfc4 	addi	r9,r9,-257
  101c24:	0086303a 	nor	r3,zero,r2
  101c28:	02202074 	movhi	r8,32897
  101c2c:	1245883a 	add	r2,r2,r9
  101c30:	42202004 	addi	r8,r8,-32640
  101c34:	10c4703a 	and	r2,r2,r3
  101c38:	1204703a 	and	r2,r2,r8
  101c3c:	10000226 	beq	r2,zero,101c48 <strcmp+0x44>
  101c40:	00002306 	br	101cd0 <strcmp+0xcc>
  101c44:	1000221e 	bne	r2,zero,101cd0 <strcmp+0xcc>
  101c48:	21000104 	addi	r4,r4,4
  101c4c:	20c00017 	ldw	r3,0(r4)
  101c50:	29400104 	addi	r5,r5,4
  101c54:	29800017 	ldw	r6,0(r5)
  101c58:	1a4f883a 	add	r7,r3,r9
  101c5c:	00c4303a 	nor	r2,zero,r3
  101c60:	3884703a 	and	r2,r7,r2
  101c64:	1204703a 	and	r2,r2,r8
  101c68:	19bff626 	beq	r3,r6,101c44 <__alt_data_end+0xfffc1c44>
  101c6c:	20800003 	ldbu	r2,0(r4)
  101c70:	10c03fcc 	andi	r3,r2,255
  101c74:	18c0201c 	xori	r3,r3,128
  101c78:	18ffe004 	addi	r3,r3,-128
  101c7c:	18000c26 	beq	r3,zero,101cb0 <strcmp+0xac>
  101c80:	29800007 	ldb	r6,0(r5)
  101c84:	19800326 	beq	r3,r6,101c94 <strcmp+0x90>
  101c88:	00001306 	br	101cd8 <strcmp+0xd4>
  101c8c:	29800007 	ldb	r6,0(r5)
  101c90:	11800b1e 	bne	r2,r6,101cc0 <strcmp+0xbc>
  101c94:	21000044 	addi	r4,r4,1
  101c98:	20c00003 	ldbu	r3,0(r4)
  101c9c:	29400044 	addi	r5,r5,1
  101ca0:	18803fcc 	andi	r2,r3,255
  101ca4:	1080201c 	xori	r2,r2,128
  101ca8:	10bfe004 	addi	r2,r2,-128
  101cac:	103ff71e 	bne	r2,zero,101c8c <__alt_data_end+0xfffc1c8c>
  101cb0:	0007883a 	mov	r3,zero
  101cb4:	28800003 	ldbu	r2,0(r5)
  101cb8:	1885c83a 	sub	r2,r3,r2
  101cbc:	f800283a 	ret
  101cc0:	28800003 	ldbu	r2,0(r5)
  101cc4:	18c03fcc 	andi	r3,r3,255
  101cc8:	1885c83a 	sub	r2,r3,r2
  101ccc:	f800283a 	ret
  101cd0:	0005883a 	mov	r2,zero
  101cd4:	f800283a 	ret
  101cd8:	10c03fcc 	andi	r3,r2,255
  101cdc:	003ff506 	br	101cb4 <__alt_data_end+0xfffc1cb4>

00101ce0 <strlen>:
  101ce0:	208000cc 	andi	r2,r4,3
  101ce4:	10002026 	beq	r2,zero,101d68 <strlen+0x88>
  101ce8:	20800007 	ldb	r2,0(r4)
  101cec:	10002026 	beq	r2,zero,101d70 <strlen+0x90>
  101cf0:	2005883a 	mov	r2,r4
  101cf4:	00000206 	br	101d00 <strlen+0x20>
  101cf8:	10c00007 	ldb	r3,0(r2)
  101cfc:	18001826 	beq	r3,zero,101d60 <strlen+0x80>
  101d00:	10800044 	addi	r2,r2,1
  101d04:	10c000cc 	andi	r3,r2,3
  101d08:	183ffb1e 	bne	r3,zero,101cf8 <__alt_data_end+0xfffc1cf8>
  101d0c:	10c00017 	ldw	r3,0(r2)
  101d10:	01ffbff4 	movhi	r7,65279
  101d14:	39ffbfc4 	addi	r7,r7,-257
  101d18:	00ca303a 	nor	r5,zero,r3
  101d1c:	01a02074 	movhi	r6,32897
  101d20:	19c7883a 	add	r3,r3,r7
  101d24:	31a02004 	addi	r6,r6,-32640
  101d28:	1946703a 	and	r3,r3,r5
  101d2c:	1986703a 	and	r3,r3,r6
  101d30:	1800091e 	bne	r3,zero,101d58 <strlen+0x78>
  101d34:	10800104 	addi	r2,r2,4
  101d38:	10c00017 	ldw	r3,0(r2)
  101d3c:	19cb883a 	add	r5,r3,r7
  101d40:	00c6303a 	nor	r3,zero,r3
  101d44:	28c6703a 	and	r3,r5,r3
  101d48:	1986703a 	and	r3,r3,r6
  101d4c:	183ff926 	beq	r3,zero,101d34 <__alt_data_end+0xfffc1d34>
  101d50:	00000106 	br	101d58 <strlen+0x78>
  101d54:	10800044 	addi	r2,r2,1
  101d58:	10c00007 	ldb	r3,0(r2)
  101d5c:	183ffd1e 	bne	r3,zero,101d54 <__alt_data_end+0xfffc1d54>
  101d60:	1105c83a 	sub	r2,r2,r4
  101d64:	f800283a 	ret
  101d68:	2005883a 	mov	r2,r4
  101d6c:	003fe706 	br	101d0c <__alt_data_end+0xfffc1d0c>
  101d70:	0005883a 	mov	r2,zero
  101d74:	f800283a 	ret

00101d78 <__strtok_r>:
  101d78:	20001f26 	beq	r4,zero,101df8 <__strtok_r+0x80>
  101d7c:	2005883a 	mov	r2,r4
  101d80:	22400007 	ldb	r9,0(r4)
  101d84:	2807883a 	mov	r3,r5
  101d88:	21000044 	addi	r4,r4,1
  101d8c:	00000106 	br	101d94 <__strtok_r+0x1c>
  101d90:	4a001226 	beq	r9,r8,101ddc <__strtok_r+0x64>
  101d94:	1a000007 	ldb	r8,0(r3)
  101d98:	18c00044 	addi	r3,r3,1
  101d9c:	403ffc1e 	bne	r8,zero,101d90 <__alt_data_end+0xfffc1d90>
  101da0:	48001926 	beq	r9,zero,101e08 <__strtok_r+0x90>
  101da4:	22000007 	ldb	r8,0(r4)
  101da8:	2013883a 	mov	r9,r4
  101dac:	21000044 	addi	r4,r4,1
  101db0:	2015883a 	mov	r10,r4
  101db4:	2807883a 	mov	r3,r5
  101db8:	00000106 	br	101dc0 <__strtok_r+0x48>
  101dbc:	383ff926 	beq	r7,zero,101da4 <__alt_data_end+0xfffc1da4>
  101dc0:	19c00007 	ldb	r7,0(r3)
  101dc4:	18c00044 	addi	r3,r3,1
  101dc8:	41fffc1e 	bne	r8,r7,101dbc <__alt_data_end+0xfffc1dbc>
  101dcc:	40000726 	beq	r8,zero,101dec <__strtok_r+0x74>
  101dd0:	48000005 	stb	zero,0(r9)
  101dd4:	32800015 	stw	r10,0(r6)
  101dd8:	f800283a 	ret
  101ddc:	383fe71e 	bne	r7,zero,101d7c <__alt_data_end+0xfffc1d7c>
  101de0:	31000015 	stw	r4,0(r6)
  101de4:	10000005 	stb	zero,0(r2)
  101de8:	f800283a 	ret
  101dec:	0015883a 	mov	r10,zero
  101df0:	32800015 	stw	r10,0(r6)
  101df4:	f800283a 	ret
  101df8:	31000017 	ldw	r4,0(r6)
  101dfc:	203fdf1e 	bne	r4,zero,101d7c <__alt_data_end+0xfffc1d7c>
  101e00:	0005883a 	mov	r2,zero
  101e04:	f800283a 	ret
  101e08:	30000015 	stw	zero,0(r6)
  101e0c:	0005883a 	mov	r2,zero
  101e10:	f800283a 	ret

00101e14 <strtok_r>:
  101e14:	01c00044 	movi	r7,1
  101e18:	0101d781 	jmpi	101d78 <__strtok_r>

00101e1c <___svfprintf_internal_r>:
  101e1c:	deffb704 	addi	sp,sp,-292
  101e20:	dfc04815 	stw	ra,288(sp)
  101e24:	ddc04615 	stw	r23,280(sp)
  101e28:	d9402d15 	stw	r5,180(sp)
  101e2c:	d9003915 	stw	r4,228(sp)
  101e30:	302f883a 	mov	r23,r6
  101e34:	d9c02e15 	stw	r7,184(sp)
  101e38:	df004715 	stw	fp,284(sp)
  101e3c:	dd804515 	stw	r22,276(sp)
  101e40:	dd404415 	stw	r21,272(sp)
  101e44:	dd004315 	stw	r20,268(sp)
  101e48:	dcc04215 	stw	r19,264(sp)
  101e4c:	dc804115 	stw	r18,260(sp)
  101e50:	dc404015 	stw	r17,256(sp)
  101e54:	dc003f15 	stw	r16,252(sp)
  101e58:	010aa880 	call	10aa88 <_localeconv_r>
  101e5c:	10800017 	ldw	r2,0(r2)
  101e60:	1009883a 	mov	r4,r2
  101e64:	d8803415 	stw	r2,208(sp)
  101e68:	0101ce00 	call	101ce0 <strlen>
  101e6c:	d8c02d17 	ldw	r3,180(sp)
  101e70:	d8803815 	stw	r2,224(sp)
  101e74:	1880030b 	ldhu	r2,12(r3)
  101e78:	1080200c 	andi	r2,r2,128
  101e7c:	10000226 	beq	r2,zero,101e88 <___svfprintf_internal_r+0x6c>
  101e80:	18800417 	ldw	r2,16(r3)
  101e84:	1006b126 	beq	r2,zero,10394c <___svfprintf_internal_r+0x1b30>
  101e88:	dcc03917 	ldw	r19,228(sp)
  101e8c:	d8c00404 	addi	r3,sp,16
  101e90:	054004b4 	movhi	r21,18
  101e94:	d9001e04 	addi	r4,sp,120
  101e98:	ad4c9184 	addi	r21,r21,12870
  101e9c:	d8c01e15 	stw	r3,120(sp)
  101ea0:	d8002015 	stw	zero,128(sp)
  101ea4:	d8001f15 	stw	zero,124(sp)
  101ea8:	d8003315 	stw	zero,204(sp)
  101eac:	d8003615 	stw	zero,216(sp)
  101eb0:	d8003715 	stw	zero,220(sp)
  101eb4:	1811883a 	mov	r8,r3
  101eb8:	d8003a15 	stw	zero,232(sp)
  101ebc:	d8003b15 	stw	zero,236(sp)
  101ec0:	d8002f15 	stw	zero,188(sp)
  101ec4:	d9002815 	stw	r4,160(sp)
  101ec8:	b8800007 	ldb	r2,0(r23)
  101ecc:	10027726 	beq	r2,zero,1028ac <___svfprintf_internal_r+0xa90>
  101ed0:	00c00944 	movi	r3,37
  101ed4:	b823883a 	mov	r17,r23
  101ed8:	10c0021e 	bne	r2,r3,101ee4 <___svfprintf_internal_r+0xc8>
  101edc:	00001406 	br	101f30 <___svfprintf_internal_r+0x114>
  101ee0:	10c00326 	beq	r2,r3,101ef0 <___svfprintf_internal_r+0xd4>
  101ee4:	8c400044 	addi	r17,r17,1
  101ee8:	88800007 	ldb	r2,0(r17)
  101eec:	103ffc1e 	bne	r2,zero,101ee0 <__alt_data_end+0xfffc1ee0>
  101ef0:	8de1c83a 	sub	r16,r17,r23
  101ef4:	80000e26 	beq	r16,zero,101f30 <___svfprintf_internal_r+0x114>
  101ef8:	d8c02017 	ldw	r3,128(sp)
  101efc:	d8801f17 	ldw	r2,124(sp)
  101f00:	45c00015 	stw	r23,0(r8)
  101f04:	1c07883a 	add	r3,r3,r16
  101f08:	10800044 	addi	r2,r2,1
  101f0c:	d8c02015 	stw	r3,128(sp)
  101f10:	44000115 	stw	r16,4(r8)
  101f14:	d8801f15 	stw	r2,124(sp)
  101f18:	00c001c4 	movi	r3,7
  101f1c:	18809916 	blt	r3,r2,102184 <___svfprintf_internal_r+0x368>
  101f20:	42000204 	addi	r8,r8,8
  101f24:	d9402f17 	ldw	r5,188(sp)
  101f28:	2c0b883a 	add	r5,r5,r16
  101f2c:	d9402f15 	stw	r5,188(sp)
  101f30:	88800007 	ldb	r2,0(r17)
  101f34:	10009a26 	beq	r2,zero,1021a0 <___svfprintf_internal_r+0x384>
  101f38:	8dc00044 	addi	r23,r17,1
  101f3c:	8c400047 	ldb	r17,1(r17)
  101f40:	0021883a 	mov	r16,zero
  101f44:	00bfffc4 	movi	r2,-1
  101f48:	0025883a 	mov	r18,zero
  101f4c:	dc002905 	stb	r16,164(sp)
  101f50:	d8002785 	stb	zero,158(sp)
  101f54:	d8002b05 	stb	zero,172(sp)
  101f58:	d8802a15 	stw	r2,168(sp)
  101f5c:	d8003115 	stw	zero,196(sp)
  101f60:	05001604 	movi	r20,88
  101f64:	05800244 	movi	r22,9
  101f68:	4039883a 	mov	fp,r8
  101f6c:	9021883a 	mov	r16,r18
  101f70:	bdc00044 	addi	r23,r23,1
  101f74:	88bff804 	addi	r2,r17,-32
  101f78:	a0831e36 	bltu	r20,r2,102bf4 <___svfprintf_internal_r+0xdd8>
  101f7c:	100490ba 	slli	r2,r2,2
  101f80:	00c00434 	movhi	r3,16
  101f84:	18c7e504 	addi	r3,r3,8084
  101f88:	10c5883a 	add	r2,r2,r3
  101f8c:	10800017 	ldw	r2,0(r2)
  101f90:	1000683a 	jmp	r2
  101f94:	00102b3c 	xorhi	zero,zero,16556
  101f98:	00102bf4 	movhi	zero,16559
  101f9c:	00102bf4 	movhi	zero,16559
  101fa0:	00102b30 	cmpltui	zero,zero,16556
  101fa4:	00102bf4 	movhi	zero,16559
  101fa8:	00102bf4 	movhi	zero,16559
  101fac:	00102bf4 	movhi	zero,16559
  101fb0:	00102bf4 	movhi	zero,16559
  101fb4:	00102bf4 	movhi	zero,16559
  101fb8:	00102bf4 	movhi	zero,16559
  101fbc:	001021fc 	xorhi	zero,zero,16519
  101fc0:	00102a40 	call	102a4 <OSCtxSw_SWITCH_PC+0x10264>
  101fc4:	00102bf4 	movhi	zero,16559
  101fc8:	00102108 	cmpgei	zero,zero,16516
  101fcc:	00102220 	cmpeqi	zero,zero,16520
  101fd0:	00102bf4 	movhi	zero,16559
  101fd4:	001022ac 	andhi	zero,zero,16522
  101fd8:	00102270 	cmpltui	zero,zero,16521
  101fdc:	00102270 	cmpltui	zero,zero,16521
  101fe0:	00102270 	cmpltui	zero,zero,16521
  101fe4:	00102270 	cmpltui	zero,zero,16521
  101fe8:	00102270 	cmpltui	zero,zero,16521
  101fec:	00102270 	cmpltui	zero,zero,16521
  101ff0:	00102270 	cmpltui	zero,zero,16521
  101ff4:	00102270 	cmpltui	zero,zero,16521
  101ff8:	00102270 	cmpltui	zero,zero,16521
  101ffc:	00102bf4 	movhi	zero,16559
  102000:	00102bf4 	movhi	zero,16559
  102004:	00102bf4 	movhi	zero,16559
  102008:	00102bf4 	movhi	zero,16559
  10200c:	00102bf4 	movhi	zero,16559
  102010:	00102bf4 	movhi	zero,16559
  102014:	00102bf4 	movhi	zero,16559
  102018:	00102bf4 	movhi	zero,16559
  10201c:	00102bf4 	movhi	zero,16559
  102020:	00102bf4 	movhi	zero,16559
  102024:	00102370 	cmpltui	zero,zero,16525
  102028:	001022b8 	rdprs	zero,zero,16522
  10202c:	00102bf4 	movhi	zero,16559
  102030:	001022b8 	rdprs	zero,zero,16522
  102034:	00102bf4 	movhi	zero,16559
  102038:	00102bf4 	movhi	zero,16559
  10203c:	00102bf4 	movhi	zero,16559
  102040:	00102bf4 	movhi	zero,16559
  102044:	00102364 	muli	zero,zero,16525
  102048:	00102bf4 	movhi	zero,16559
  10204c:	00102bf4 	movhi	zero,16559
  102050:	00102438 	rdprs	zero,zero,16528
  102054:	00102bf4 	movhi	zero,16559
  102058:	00102bf4 	movhi	zero,16559
  10205c:	00102bf4 	movhi	zero,16559
  102060:	00102bf4 	movhi	zero,16559
  102064:	00102bf4 	movhi	zero,16559
  102068:	001028b4 	movhi	zero,16546
  10206c:	00102bf4 	movhi	zero,16559
  102070:	00102bf4 	movhi	zero,16559
  102074:	00102920 	cmpeqi	zero,zero,16548
  102078:	00102bf4 	movhi	zero,16559
  10207c:	00102bf4 	movhi	zero,16559
  102080:	00102bf4 	movhi	zero,16559
  102084:	00102bf4 	movhi	zero,16559
  102088:	00102bf4 	movhi	zero,16559
  10208c:	00102bf4 	movhi	zero,16559
  102090:	00102bf4 	movhi	zero,16559
  102094:	00102bf4 	movhi	zero,16559
  102098:	00102bf4 	movhi	zero,16559
  10209c:	00102bf4 	movhi	zero,16559
  1020a0:	001029dc 	xori	zero,zero,16551
  1020a4:	00102b5c 	xori	zero,zero,16557
  1020a8:	001022b8 	rdprs	zero,zero,16522
  1020ac:	001022b8 	rdprs	zero,zero,16522
  1020b0:	001022b8 	rdprs	zero,zero,16522
  1020b4:	00102bd0 	cmplti	zero,zero,16559
  1020b8:	00102b5c 	xori	zero,zero,16557
  1020bc:	00102bf4 	movhi	zero,16559
  1020c0:	00102bf4 	movhi	zero,16559
  1020c4:	00102b7c 	xorhi	zero,zero,16557
  1020c8:	00102bf4 	movhi	zero,16559
  1020cc:	00102b90 	cmplti	zero,zero,16558
  1020d0:	00102a20 	cmpeqi	zero,zero,16552
  1020d4:	00102114 	movui	zero,16516
  1020d8:	00102a58 	cmpnei	zero,zero,16553
  1020dc:	00102bf4 	movhi	zero,16559
  1020e0:	00102a64 	muli	zero,zero,16553
  1020e4:	00102bf4 	movhi	zero,16559
  1020e8:	00102ac8 	cmpgei	zero,zero,16555
  1020ec:	00102bf4 	movhi	zero,16559
  1020f0:	00102bf4 	movhi	zero,16559
  1020f4:	00102ae8 	cmpgeui	zero,zero,16555
  1020f8:	d8c03117 	ldw	r3,196(sp)
  1020fc:	d8802e15 	stw	r2,184(sp)
  102100:	00c7c83a 	sub	r3,zero,r3
  102104:	d8c03115 	stw	r3,196(sp)
  102108:	84000114 	ori	r16,r16,4
  10210c:	bc400007 	ldb	r17,0(r23)
  102110:	003f9706 	br	101f70 <__alt_data_end+0xfffc1f70>
  102114:	00800c04 	movi	r2,48
  102118:	d8802705 	stb	r2,156(sp)
  10211c:	00801e04 	movi	r2,120
  102120:	d8802745 	stb	r2,157(sp)
  102124:	d9002a17 	ldw	r4,168(sp)
  102128:	d8802e17 	ldw	r2,184(sp)
  10212c:	d8002785 	stb	zero,158(sp)
  102130:	e011883a 	mov	r8,fp
  102134:	10c00104 	addi	r3,r2,4
  102138:	15000017 	ldw	r20,0(r2)
  10213c:	002d883a 	mov	r22,zero
  102140:	80800094 	ori	r2,r16,2
  102144:	2002b616 	blt	r4,zero,102c20 <___svfprintf_internal_r+0xe04>
  102148:	00bfdfc4 	movi	r2,-129
  10214c:	80a4703a 	and	r18,r16,r2
  102150:	d8c02e15 	stw	r3,184(sp)
  102154:	94800094 	ori	r18,r18,2
  102158:	a002a01e 	bne	r20,zero,102bdc <___svfprintf_internal_r+0xdc0>
  10215c:	014004b4 	movhi	r5,18
  102160:	294c8a04 	addi	r5,r5,12840
  102164:	d9403a15 	stw	r5,232(sp)
  102168:	04401e04 	movi	r17,120
  10216c:	d8c02a17 	ldw	r3,168(sp)
  102170:	0039883a 	mov	fp,zero
  102174:	1801e626 	beq	r3,zero,102910 <___svfprintf_internal_r+0xaf4>
  102178:	0029883a 	mov	r20,zero
  10217c:	002d883a 	mov	r22,zero
  102180:	00020506 	br	102998 <___svfprintf_internal_r+0xb7c>
  102184:	d9402d17 	ldw	r5,180(sp)
  102188:	d9801e04 	addi	r6,sp,120
  10218c:	9809883a 	mov	r4,r19
  102190:	010f3ec0 	call	10f3ec <__ssprint_r>
  102194:	1000081e 	bne	r2,zero,1021b8 <___svfprintf_internal_r+0x39c>
  102198:	da000404 	addi	r8,sp,16
  10219c:	003f6106 	br	101f24 <__alt_data_end+0xfffc1f24>
  1021a0:	d8802017 	ldw	r2,128(sp)
  1021a4:	10000426 	beq	r2,zero,1021b8 <___svfprintf_internal_r+0x39c>
  1021a8:	d9402d17 	ldw	r5,180(sp)
  1021ac:	d9003917 	ldw	r4,228(sp)
  1021b0:	d9801e04 	addi	r6,sp,120
  1021b4:	010f3ec0 	call	10f3ec <__ssprint_r>
  1021b8:	d8802d17 	ldw	r2,180(sp)
  1021bc:	10c0030b 	ldhu	r3,12(r2)
  1021c0:	d8802f17 	ldw	r2,188(sp)
  1021c4:	18c0100c 	andi	r3,r3,64
  1021c8:	1806251e 	bne	r3,zero,103a60 <___svfprintf_internal_r+0x1c44>
  1021cc:	dfc04817 	ldw	ra,288(sp)
  1021d0:	df004717 	ldw	fp,284(sp)
  1021d4:	ddc04617 	ldw	r23,280(sp)
  1021d8:	dd804517 	ldw	r22,276(sp)
  1021dc:	dd404417 	ldw	r21,272(sp)
  1021e0:	dd004317 	ldw	r20,268(sp)
  1021e4:	dcc04217 	ldw	r19,264(sp)
  1021e8:	dc804117 	ldw	r18,260(sp)
  1021ec:	dc404017 	ldw	r17,256(sp)
  1021f0:	dc003f17 	ldw	r16,252(sp)
  1021f4:	dec04904 	addi	sp,sp,292
  1021f8:	f800283a 	ret
  1021fc:	d9002e17 	ldw	r4,184(sp)
  102200:	d9402e17 	ldw	r5,184(sp)
  102204:	21000017 	ldw	r4,0(r4)
  102208:	28800104 	addi	r2,r5,4
  10220c:	d9003115 	stw	r4,196(sp)
  102210:	203fb916 	blt	r4,zero,1020f8 <__alt_data_end+0xfffc20f8>
  102214:	d8802e15 	stw	r2,184(sp)
  102218:	bc400007 	ldb	r17,0(r23)
  10221c:	003f5406 	br	101f70 <__alt_data_end+0xfffc1f70>
  102220:	bc400007 	ldb	r17,0(r23)
  102224:	01000a84 	movi	r4,42
  102228:	b8c00044 	addi	r3,r23,1
  10222c:	89076926 	beq	r17,r4,103fd4 <___svfprintf_internal_r+0x21b8>
  102230:	8cbff404 	addi	r18,r17,-48
  102234:	b486b936 	bltu	r22,r18,103d1c <___svfprintf_internal_r+0x1f00>
  102238:	0009883a 	mov	r4,zero
  10223c:	1823883a 	mov	r17,r3
  102240:	01400284 	movi	r5,10
  102244:	01159e00 	call	1159e0 <__mulsi3>
  102248:	88c00007 	ldb	r3,0(r17)
  10224c:	1489883a 	add	r4,r2,r18
  102250:	8dc00044 	addi	r23,r17,1
  102254:	1cbff404 	addi	r18,r3,-48
  102258:	b823883a 	mov	r17,r23
  10225c:	b4bff82e 	bgeu	r22,r18,102240 <__alt_data_end+0xfffc2240>
  102260:	1823883a 	mov	r17,r3
  102264:	20060416 	blt	r4,zero,103a78 <___svfprintf_internal_r+0x1c5c>
  102268:	d9002a15 	stw	r4,168(sp)
  10226c:	003f4106 	br	101f74 <__alt_data_end+0xfffc1f74>
  102270:	8cbff404 	addi	r18,r17,-48
  102274:	d8003115 	stw	zero,196(sp)
  102278:	0009883a 	mov	r4,zero
  10227c:	b823883a 	mov	r17,r23
  102280:	01400284 	movi	r5,10
  102284:	01159e00 	call	1159e0 <__mulsi3>
  102288:	88c00007 	ldb	r3,0(r17)
  10228c:	9089883a 	add	r4,r18,r2
  102290:	bdc00044 	addi	r23,r23,1
  102294:	1cbff404 	addi	r18,r3,-48
  102298:	b823883a 	mov	r17,r23
  10229c:	b4bff82e 	bgeu	r22,r18,102280 <__alt_data_end+0xfffc2280>
  1022a0:	1823883a 	mov	r17,r3
  1022a4:	d9003115 	stw	r4,196(sp)
  1022a8:	003f3206 	br	101f74 <__alt_data_end+0xfffc1f74>
  1022ac:	84002014 	ori	r16,r16,128
  1022b0:	bc400007 	ldb	r17,0(r23)
  1022b4:	003f2e06 	br	101f70 <__alt_data_end+0xfffc1f70>
  1022b8:	8025883a 	mov	r18,r16
  1022bc:	dc002903 	ldbu	r16,164(sp)
  1022c0:	e011883a 	mov	r8,fp
  1022c4:	84003fcc 	andi	r16,r16,255
  1022c8:	8007721e 	bne	r16,zero,104094 <___svfprintf_internal_r+0x2278>
  1022cc:	9080020c 	andi	r2,r18,8
  1022d0:	1004a526 	beq	r2,zero,103568 <___svfprintf_internal_r+0x174c>
  1022d4:	d9002e17 	ldw	r4,184(sp)
  1022d8:	d9402e17 	ldw	r5,184(sp)
  1022dc:	d8802e17 	ldw	r2,184(sp)
  1022e0:	21000017 	ldw	r4,0(r4)
  1022e4:	29400117 	ldw	r5,4(r5)
  1022e8:	10800204 	addi	r2,r2,8
  1022ec:	d9003615 	stw	r4,216(sp)
  1022f0:	d9403715 	stw	r5,220(sp)
  1022f4:	d8802e15 	stw	r2,184(sp)
  1022f8:	d9003617 	ldw	r4,216(sp)
  1022fc:	d9403717 	ldw	r5,220(sp)
  102300:	da003e15 	stw	r8,248(sp)
  102304:	04000044 	movi	r16,1
  102308:	010cfc00 	call	10cfc0 <__fpclassifyd>
  10230c:	da003e17 	ldw	r8,248(sp)
  102310:	1404731e 	bne	r2,r16,1034e0 <___svfprintf_internal_r+0x16c4>
  102314:	d9003617 	ldw	r4,216(sp)
  102318:	d9403717 	ldw	r5,220(sp)
  10231c:	000d883a 	mov	r6,zero
  102320:	000f883a 	mov	r7,zero
  102324:	0116fe40 	call	116fe4 <__ledf2>
  102328:	da003e17 	ldw	r8,248(sp)
  10232c:	10061b16 	blt	r2,zero,103b9c <___svfprintf_internal_r+0x1d80>
  102330:	df002783 	ldbu	fp,158(sp)
  102334:	008011c4 	movi	r2,71
  102338:	1445810e 	bge	r2,r17,103940 <___svfprintf_internal_r+0x1b24>
  10233c:	040004b4 	movhi	r16,18
  102340:	840c8204 	addi	r16,r16,12808
  102344:	00c000c4 	movi	r3,3
  102348:	00bfdfc4 	movi	r2,-129
  10234c:	d8c02915 	stw	r3,164(sp)
  102350:	90a4703a 	and	r18,r18,r2
  102354:	d8c02b15 	stw	r3,172(sp)
  102358:	d8002a15 	stw	zero,168(sp)
  10235c:	d8003215 	stw	zero,200(sp)
  102360:	00006c06 	br	102514 <___svfprintf_internal_r+0x6f8>
  102364:	84000214 	ori	r16,r16,8
  102368:	bc400007 	ldb	r17,0(r23)
  10236c:	003f0006 	br	101f70 <__alt_data_end+0xfffc1f70>
  102370:	8025883a 	mov	r18,r16
  102374:	dc002903 	ldbu	r16,164(sp)
  102378:	e011883a 	mov	r8,fp
  10237c:	84003fcc 	andi	r16,r16,255
  102380:	80073f1e 	bne	r16,zero,104080 <___svfprintf_internal_r+0x2264>
  102384:	94800414 	ori	r18,r18,16
  102388:	9080080c 	andi	r2,r18,32
  10238c:	1003bb26 	beq	r2,zero,10327c <___svfprintf_internal_r+0x1460>
  102390:	d9002e17 	ldw	r4,184(sp)
  102394:	20800117 	ldw	r2,4(r4)
  102398:	25000017 	ldw	r20,0(r4)
  10239c:	21000204 	addi	r4,r4,8
  1023a0:	d9002e15 	stw	r4,184(sp)
  1023a4:	102d883a 	mov	r22,r2
  1023a8:	1003bd16 	blt	r2,zero,1032a0 <___svfprintf_internal_r+0x1484>
  1023ac:	d9002a17 	ldw	r4,168(sp)
  1023b0:	df002783 	ldbu	fp,158(sp)
  1023b4:	2003d016 	blt	r4,zero,1032f8 <___svfprintf_internal_r+0x14dc>
  1023b8:	00ffdfc4 	movi	r3,-129
  1023bc:	a584b03a 	or	r2,r20,r22
  1023c0:	90e4703a 	and	r18,r18,r3
  1023c4:	10015026 	beq	r2,zero,102908 <___svfprintf_internal_r+0xaec>
  1023c8:	b0037026 	beq	r22,zero,10318c <___svfprintf_internal_r+0x1370>
  1023cc:	dc402915 	stw	r17,164(sp)
  1023d0:	dc001e04 	addi	r16,sp,120
  1023d4:	b023883a 	mov	r17,r22
  1023d8:	402d883a 	mov	r22,r8
  1023dc:	a009883a 	mov	r4,r20
  1023e0:	880b883a 	mov	r5,r17
  1023e4:	01800284 	movi	r6,10
  1023e8:	000f883a 	mov	r7,zero
  1023ec:	01152680 	call	115268 <__umoddi3>
  1023f0:	10800c04 	addi	r2,r2,48
  1023f4:	843fffc4 	addi	r16,r16,-1
  1023f8:	a009883a 	mov	r4,r20
  1023fc:	880b883a 	mov	r5,r17
  102400:	80800005 	stb	r2,0(r16)
  102404:	01800284 	movi	r6,10
  102408:	000f883a 	mov	r7,zero
  10240c:	0114c6c0 	call	114c6c <__udivdi3>
  102410:	1029883a 	mov	r20,r2
  102414:	10c4b03a 	or	r2,r2,r3
  102418:	1823883a 	mov	r17,r3
  10241c:	103fef1e 	bne	r2,zero,1023dc <__alt_data_end+0xfffc23dc>
  102420:	d8c02817 	ldw	r3,160(sp)
  102424:	dc402917 	ldw	r17,164(sp)
  102428:	b011883a 	mov	r8,r22
  10242c:	1c07c83a 	sub	r3,r3,r16
  102430:	d8c02b15 	stw	r3,172(sp)
  102434:	00003106 	br	1024fc <___svfprintf_internal_r+0x6e0>
  102438:	8025883a 	mov	r18,r16
  10243c:	dc002903 	ldbu	r16,164(sp)
  102440:	e011883a 	mov	r8,fp
  102444:	84003fcc 	andi	r16,r16,255
  102448:	80070a1e 	bne	r16,zero,104074 <___svfprintf_internal_r+0x2258>
  10244c:	94800414 	ori	r18,r18,16
  102450:	9080080c 	andi	r2,r18,32
  102454:	1002f626 	beq	r2,zero,103030 <___svfprintf_internal_r+0x1214>
  102458:	d9002e17 	ldw	r4,184(sp)
  10245c:	d9402a17 	ldw	r5,168(sp)
  102460:	d8002785 	stb	zero,158(sp)
  102464:	20800204 	addi	r2,r4,8
  102468:	25000017 	ldw	r20,0(r4)
  10246c:	25800117 	ldw	r22,4(r4)
  102470:	28043716 	blt	r5,zero,103550 <___svfprintf_internal_r+0x1734>
  102474:	013fdfc4 	movi	r4,-129
  102478:	a586b03a 	or	r3,r20,r22
  10247c:	d8802e15 	stw	r2,184(sp)
  102480:	9124703a 	and	r18,r18,r4
  102484:	1802f71e 	bne	r3,zero,103064 <___svfprintf_internal_r+0x1248>
  102488:	d9402a17 	ldw	r5,168(sp)
  10248c:	0039883a 	mov	fp,zero
  102490:	2806df26 	beq	r5,zero,104010 <___svfprintf_internal_r+0x21f4>
  102494:	0029883a 	mov	r20,zero
  102498:	002d883a 	mov	r22,zero
  10249c:	dc001e04 	addi	r16,sp,120
  1024a0:	a006d0fa 	srli	r3,r20,3
  1024a4:	b008977a 	slli	r4,r22,29
  1024a8:	b02cd0fa 	srli	r22,r22,3
  1024ac:	a50001cc 	andi	r20,r20,7
  1024b0:	a0800c04 	addi	r2,r20,48
  1024b4:	843fffc4 	addi	r16,r16,-1
  1024b8:	20e8b03a 	or	r20,r4,r3
  1024bc:	80800005 	stb	r2,0(r16)
  1024c0:	a586b03a 	or	r3,r20,r22
  1024c4:	183ff61e 	bne	r3,zero,1024a0 <__alt_data_end+0xfffc24a0>
  1024c8:	90c0004c 	andi	r3,r18,1
  1024cc:	18013f26 	beq	r3,zero,1029cc <___svfprintf_internal_r+0xbb0>
  1024d0:	10803fcc 	andi	r2,r2,255
  1024d4:	1080201c 	xori	r2,r2,128
  1024d8:	10bfe004 	addi	r2,r2,-128
  1024dc:	00c00c04 	movi	r3,48
  1024e0:	10c13a26 	beq	r2,r3,1029cc <___svfprintf_internal_r+0xbb0>
  1024e4:	80ffffc5 	stb	r3,-1(r16)
  1024e8:	d8c02817 	ldw	r3,160(sp)
  1024ec:	80bfffc4 	addi	r2,r16,-1
  1024f0:	1021883a 	mov	r16,r2
  1024f4:	1887c83a 	sub	r3,r3,r2
  1024f8:	d8c02b15 	stw	r3,172(sp)
  1024fc:	d8802b17 	ldw	r2,172(sp)
  102500:	d9002a17 	ldw	r4,168(sp)
  102504:	1100010e 	bge	r2,r4,10250c <___svfprintf_internal_r+0x6f0>
  102508:	2005883a 	mov	r2,r4
  10250c:	d8802915 	stw	r2,164(sp)
  102510:	d8003215 	stw	zero,200(sp)
  102514:	e7003fcc 	andi	fp,fp,255
  102518:	e700201c 	xori	fp,fp,128
  10251c:	e73fe004 	addi	fp,fp,-128
  102520:	e0000326 	beq	fp,zero,102530 <___svfprintf_internal_r+0x714>
  102524:	d8c02917 	ldw	r3,164(sp)
  102528:	18c00044 	addi	r3,r3,1
  10252c:	d8c02915 	stw	r3,164(sp)
  102530:	90c0008c 	andi	r3,r18,2
  102534:	d8c02c15 	stw	r3,176(sp)
  102538:	18000326 	beq	r3,zero,102548 <___svfprintf_internal_r+0x72c>
  10253c:	d8c02917 	ldw	r3,164(sp)
  102540:	18c00084 	addi	r3,r3,2
  102544:	d8c02915 	stw	r3,164(sp)
  102548:	90c0210c 	andi	r3,r18,132
  10254c:	d8c03015 	stw	r3,192(sp)
  102550:	1801c31e 	bne	r3,zero,102c60 <___svfprintf_internal_r+0xe44>
  102554:	d9003117 	ldw	r4,196(sp)
  102558:	d8c02917 	ldw	r3,164(sp)
  10255c:	20e9c83a 	sub	r20,r4,r3
  102560:	0501bf0e 	bge	zero,r20,102c60 <___svfprintf_internal_r+0xe44>
  102564:	02400404 	movi	r9,16
  102568:	d8c02017 	ldw	r3,128(sp)
  10256c:	d8801f17 	ldw	r2,124(sp)
  102570:	4d053d0e 	bge	r9,r20,103a68 <___svfprintf_internal_r+0x1c4c>
  102574:	014004b4 	movhi	r5,18
  102578:	294c9584 	addi	r5,r5,12886
  10257c:	dc403c15 	stw	r17,240(sp)
  102580:	d9403515 	stw	r5,212(sp)
  102584:	a023883a 	mov	r17,r20
  102588:	482d883a 	mov	r22,r9
  10258c:	9029883a 	mov	r20,r18
  102590:	070001c4 	movi	fp,7
  102594:	8025883a 	mov	r18,r16
  102598:	dc002d17 	ldw	r16,180(sp)
  10259c:	00000306 	br	1025ac <___svfprintf_internal_r+0x790>
  1025a0:	8c7ffc04 	addi	r17,r17,-16
  1025a4:	42000204 	addi	r8,r8,8
  1025a8:	b440130e 	bge	r22,r17,1025f8 <___svfprintf_internal_r+0x7dc>
  1025ac:	010004b4 	movhi	r4,18
  1025b0:	18c00404 	addi	r3,r3,16
  1025b4:	10800044 	addi	r2,r2,1
  1025b8:	210c9584 	addi	r4,r4,12886
  1025bc:	41000015 	stw	r4,0(r8)
  1025c0:	45800115 	stw	r22,4(r8)
  1025c4:	d8c02015 	stw	r3,128(sp)
  1025c8:	d8801f15 	stw	r2,124(sp)
  1025cc:	e0bff40e 	bge	fp,r2,1025a0 <__alt_data_end+0xfffc25a0>
  1025d0:	d9801e04 	addi	r6,sp,120
  1025d4:	800b883a 	mov	r5,r16
  1025d8:	9809883a 	mov	r4,r19
  1025dc:	010f3ec0 	call	10f3ec <__ssprint_r>
  1025e0:	103ef51e 	bne	r2,zero,1021b8 <__alt_data_end+0xfffc21b8>
  1025e4:	8c7ffc04 	addi	r17,r17,-16
  1025e8:	d8c02017 	ldw	r3,128(sp)
  1025ec:	d8801f17 	ldw	r2,124(sp)
  1025f0:	da000404 	addi	r8,sp,16
  1025f4:	b47fed16 	blt	r22,r17,1025ac <__alt_data_end+0xfffc25ac>
  1025f8:	9021883a 	mov	r16,r18
  1025fc:	a025883a 	mov	r18,r20
  102600:	8829883a 	mov	r20,r17
  102604:	dc403c17 	ldw	r17,240(sp)
  102608:	d9403517 	ldw	r5,212(sp)
  10260c:	a0c7883a 	add	r3,r20,r3
  102610:	10800044 	addi	r2,r2,1
  102614:	41400015 	stw	r5,0(r8)
  102618:	45000115 	stw	r20,4(r8)
  10261c:	d8c02015 	stw	r3,128(sp)
  102620:	d8801f15 	stw	r2,124(sp)
  102624:	010001c4 	movi	r4,7
  102628:	2082c116 	blt	r4,r2,103130 <___svfprintf_internal_r+0x1314>
  10262c:	df002787 	ldb	fp,158(sp)
  102630:	42000204 	addi	r8,r8,8
  102634:	e0000c26 	beq	fp,zero,102668 <___svfprintf_internal_r+0x84c>
  102638:	d8801f17 	ldw	r2,124(sp)
  10263c:	d9002784 	addi	r4,sp,158
  102640:	18c00044 	addi	r3,r3,1
  102644:	10800044 	addi	r2,r2,1
  102648:	41000015 	stw	r4,0(r8)
  10264c:	01000044 	movi	r4,1
  102650:	41000115 	stw	r4,4(r8)
  102654:	d8c02015 	stw	r3,128(sp)
  102658:	d8801f15 	stw	r2,124(sp)
  10265c:	010001c4 	movi	r4,7
  102660:	20825a16 	blt	r4,r2,102fcc <___svfprintf_internal_r+0x11b0>
  102664:	42000204 	addi	r8,r8,8
  102668:	d8802c17 	ldw	r2,176(sp)
  10266c:	10000c26 	beq	r2,zero,1026a0 <___svfprintf_internal_r+0x884>
  102670:	d8801f17 	ldw	r2,124(sp)
  102674:	d9002704 	addi	r4,sp,156
  102678:	18c00084 	addi	r3,r3,2
  10267c:	10800044 	addi	r2,r2,1
  102680:	41000015 	stw	r4,0(r8)
  102684:	01000084 	movi	r4,2
  102688:	41000115 	stw	r4,4(r8)
  10268c:	d8c02015 	stw	r3,128(sp)
  102690:	d8801f15 	stw	r2,124(sp)
  102694:	010001c4 	movi	r4,7
  102698:	20825416 	blt	r4,r2,102fec <___svfprintf_internal_r+0x11d0>
  10269c:	42000204 	addi	r8,r8,8
  1026a0:	d9003017 	ldw	r4,192(sp)
  1026a4:	00802004 	movi	r2,128
  1026a8:	2081b926 	beq	r4,r2,102d90 <___svfprintf_internal_r+0xf74>
  1026ac:	d9402a17 	ldw	r5,168(sp)
  1026b0:	d8802b17 	ldw	r2,172(sp)
  1026b4:	28adc83a 	sub	r22,r5,r2
  1026b8:	05802f0e 	bge	zero,r22,102778 <___svfprintf_internal_r+0x95c>
  1026bc:	07000404 	movi	fp,16
  1026c0:	d8801f17 	ldw	r2,124(sp)
  1026c4:	e583e20e 	bge	fp,r22,103650 <___svfprintf_internal_r+0x1834>
  1026c8:	014004b4 	movhi	r5,18
  1026cc:	294c9184 	addi	r5,r5,12870
  1026d0:	dc402a15 	stw	r17,168(sp)
  1026d4:	d9402c15 	stw	r5,176(sp)
  1026d8:	b023883a 	mov	r17,r22
  1026dc:	050001c4 	movi	r20,7
  1026e0:	902d883a 	mov	r22,r18
  1026e4:	8025883a 	mov	r18,r16
  1026e8:	dc002d17 	ldw	r16,180(sp)
  1026ec:	00000306 	br	1026fc <___svfprintf_internal_r+0x8e0>
  1026f0:	8c7ffc04 	addi	r17,r17,-16
  1026f4:	42000204 	addi	r8,r8,8
  1026f8:	e440110e 	bge	fp,r17,102740 <___svfprintf_internal_r+0x924>
  1026fc:	18c00404 	addi	r3,r3,16
  102700:	10800044 	addi	r2,r2,1
  102704:	45400015 	stw	r21,0(r8)
  102708:	47000115 	stw	fp,4(r8)
  10270c:	d8c02015 	stw	r3,128(sp)
  102710:	d8801f15 	stw	r2,124(sp)
  102714:	a0bff60e 	bge	r20,r2,1026f0 <__alt_data_end+0xfffc26f0>
  102718:	d9801e04 	addi	r6,sp,120
  10271c:	800b883a 	mov	r5,r16
  102720:	9809883a 	mov	r4,r19
  102724:	010f3ec0 	call	10f3ec <__ssprint_r>
  102728:	103ea31e 	bne	r2,zero,1021b8 <__alt_data_end+0xfffc21b8>
  10272c:	8c7ffc04 	addi	r17,r17,-16
  102730:	d8c02017 	ldw	r3,128(sp)
  102734:	d8801f17 	ldw	r2,124(sp)
  102738:	da000404 	addi	r8,sp,16
  10273c:	e47fef16 	blt	fp,r17,1026fc <__alt_data_end+0xfffc26fc>
  102740:	9021883a 	mov	r16,r18
  102744:	b025883a 	mov	r18,r22
  102748:	882d883a 	mov	r22,r17
  10274c:	dc402a17 	ldw	r17,168(sp)
  102750:	d9002c17 	ldw	r4,176(sp)
  102754:	1d87883a 	add	r3,r3,r22
  102758:	10800044 	addi	r2,r2,1
  10275c:	41000015 	stw	r4,0(r8)
  102760:	45800115 	stw	r22,4(r8)
  102764:	d8c02015 	stw	r3,128(sp)
  102768:	d8801f15 	stw	r2,124(sp)
  10276c:	010001c4 	movi	r4,7
  102770:	20820e16 	blt	r4,r2,102fac <___svfprintf_internal_r+0x1190>
  102774:	42000204 	addi	r8,r8,8
  102778:	9080400c 	andi	r2,r18,256
  10277c:	10013a1e 	bne	r2,zero,102c68 <___svfprintf_internal_r+0xe4c>
  102780:	d9402b17 	ldw	r5,172(sp)
  102784:	d8801f17 	ldw	r2,124(sp)
  102788:	44000015 	stw	r16,0(r8)
  10278c:	1947883a 	add	r3,r3,r5
  102790:	10800044 	addi	r2,r2,1
  102794:	41400115 	stw	r5,4(r8)
  102798:	d8c02015 	stw	r3,128(sp)
  10279c:	d8801f15 	stw	r2,124(sp)
  1027a0:	010001c4 	movi	r4,7
  1027a4:	2081f316 	blt	r4,r2,102f74 <___svfprintf_internal_r+0x1158>
  1027a8:	42000204 	addi	r8,r8,8
  1027ac:	9480010c 	andi	r18,r18,4
  1027b0:	90003226 	beq	r18,zero,10287c <___svfprintf_internal_r+0xa60>
  1027b4:	d9403117 	ldw	r5,196(sp)
  1027b8:	d8802917 	ldw	r2,164(sp)
  1027bc:	28a1c83a 	sub	r16,r5,r2
  1027c0:	04002e0e 	bge	zero,r16,10287c <___svfprintf_internal_r+0xa60>
  1027c4:	04400404 	movi	r17,16
  1027c8:	d8801f17 	ldw	r2,124(sp)
  1027cc:	8c04db0e 	bge	r17,r16,103b3c <___svfprintf_internal_r+0x1d20>
  1027d0:	014004b4 	movhi	r5,18
  1027d4:	294c9584 	addi	r5,r5,12886
  1027d8:	d9403515 	stw	r5,212(sp)
  1027dc:	048001c4 	movi	r18,7
  1027e0:	dd002d17 	ldw	r20,180(sp)
  1027e4:	00000306 	br	1027f4 <___svfprintf_internal_r+0x9d8>
  1027e8:	843ffc04 	addi	r16,r16,-16
  1027ec:	42000204 	addi	r8,r8,8
  1027f0:	8c00130e 	bge	r17,r16,102840 <___svfprintf_internal_r+0xa24>
  1027f4:	010004b4 	movhi	r4,18
  1027f8:	18c00404 	addi	r3,r3,16
  1027fc:	10800044 	addi	r2,r2,1
  102800:	210c9584 	addi	r4,r4,12886
  102804:	41000015 	stw	r4,0(r8)
  102808:	44400115 	stw	r17,4(r8)
  10280c:	d8c02015 	stw	r3,128(sp)
  102810:	d8801f15 	stw	r2,124(sp)
  102814:	90bff40e 	bge	r18,r2,1027e8 <__alt_data_end+0xfffc27e8>
  102818:	d9801e04 	addi	r6,sp,120
  10281c:	a00b883a 	mov	r5,r20
  102820:	9809883a 	mov	r4,r19
  102824:	010f3ec0 	call	10f3ec <__ssprint_r>
  102828:	103e631e 	bne	r2,zero,1021b8 <__alt_data_end+0xfffc21b8>
  10282c:	843ffc04 	addi	r16,r16,-16
  102830:	d8c02017 	ldw	r3,128(sp)
  102834:	d8801f17 	ldw	r2,124(sp)
  102838:	da000404 	addi	r8,sp,16
  10283c:	8c3fed16 	blt	r17,r16,1027f4 <__alt_data_end+0xfffc27f4>
  102840:	d9403517 	ldw	r5,212(sp)
  102844:	1c07883a 	add	r3,r3,r16
  102848:	10800044 	addi	r2,r2,1
  10284c:	41400015 	stw	r5,0(r8)
  102850:	44000115 	stw	r16,4(r8)
  102854:	d8c02015 	stw	r3,128(sp)
  102858:	d8801f15 	stw	r2,124(sp)
  10285c:	010001c4 	movi	r4,7
  102860:	2080060e 	bge	r4,r2,10287c <___svfprintf_internal_r+0xa60>
  102864:	d9402d17 	ldw	r5,180(sp)
  102868:	d9801e04 	addi	r6,sp,120
  10286c:	9809883a 	mov	r4,r19
  102870:	010f3ec0 	call	10f3ec <__ssprint_r>
  102874:	103e501e 	bne	r2,zero,1021b8 <__alt_data_end+0xfffc21b8>
  102878:	d8c02017 	ldw	r3,128(sp)
  10287c:	d8803117 	ldw	r2,196(sp)
  102880:	d9002917 	ldw	r4,164(sp)
  102884:	1100010e 	bge	r2,r4,10288c <___svfprintf_internal_r+0xa70>
  102888:	2005883a 	mov	r2,r4
  10288c:	d9402f17 	ldw	r5,188(sp)
  102890:	288b883a 	add	r5,r5,r2
  102894:	d9402f15 	stw	r5,188(sp)
  102898:	1801be1e 	bne	r3,zero,102f94 <___svfprintf_internal_r+0x1178>
  10289c:	b8800007 	ldb	r2,0(r23)
  1028a0:	d8001f15 	stw	zero,124(sp)
  1028a4:	da000404 	addi	r8,sp,16
  1028a8:	103d891e 	bne	r2,zero,101ed0 <__alt_data_end+0xfffc1ed0>
  1028ac:	b823883a 	mov	r17,r23
  1028b0:	003d9f06 	br	101f30 <__alt_data_end+0xfffc1f30>
  1028b4:	8025883a 	mov	r18,r16
  1028b8:	dc002903 	ldbu	r16,164(sp)
  1028bc:	e011883a 	mov	r8,fp
  1028c0:	84003fcc 	andi	r16,r16,255
  1028c4:	8005e61e 	bne	r16,zero,104060 <___svfprintf_internal_r+0x2244>
  1028c8:	94800414 	ori	r18,r18,16
  1028cc:	9080080c 	andi	r2,r18,32
  1028d0:	10022026 	beq	r2,zero,103154 <___svfprintf_internal_r+0x1338>
  1028d4:	d9002e17 	ldw	r4,184(sp)
  1028d8:	d9402a17 	ldw	r5,168(sp)
  1028dc:	d8002785 	stb	zero,158(sp)
  1028e0:	20c00204 	addi	r3,r4,8
  1028e4:	25000017 	ldw	r20,0(r4)
  1028e8:	25800117 	ldw	r22,4(r4)
  1028ec:	2803ad16 	blt	r5,zero,1037a4 <___svfprintf_internal_r+0x1988>
  1028f0:	013fdfc4 	movi	r4,-129
  1028f4:	a584b03a 	or	r2,r20,r22
  1028f8:	d8c02e15 	stw	r3,184(sp)
  1028fc:	9124703a 	and	r18,r18,r4
  102900:	0039883a 	mov	fp,zero
  102904:	103eb01e 	bne	r2,zero,1023c8 <__alt_data_end+0xfffc23c8>
  102908:	d8802a17 	ldw	r2,168(sp)
  10290c:	1002e71e 	bne	r2,zero,1034ac <___svfprintf_internal_r+0x1690>
  102910:	d8002a15 	stw	zero,168(sp)
  102914:	d8002b15 	stw	zero,172(sp)
  102918:	dc001e04 	addi	r16,sp,120
  10291c:	003ef706 	br	1024fc <__alt_data_end+0xfffc24fc>
  102920:	8025883a 	mov	r18,r16
  102924:	dc002903 	ldbu	r16,164(sp)
  102928:	e011883a 	mov	r8,fp
  10292c:	84003fcc 	andi	r16,r16,255
  102930:	8005c81e 	bne	r16,zero,104054 <___svfprintf_internal_r+0x2238>
  102934:	010004b4 	movhi	r4,18
  102938:	210c8504 	addi	r4,r4,12820
  10293c:	d9003a15 	stw	r4,232(sp)
  102940:	9080080c 	andi	r2,r18,32
  102944:	10007226 	beq	r2,zero,102b10 <___svfprintf_internal_r+0xcf4>
  102948:	d9402e17 	ldw	r5,184(sp)
  10294c:	2d000017 	ldw	r20,0(r5)
  102950:	2d800117 	ldw	r22,4(r5)
  102954:	29400204 	addi	r5,r5,8
  102958:	d9402e15 	stw	r5,184(sp)
  10295c:	9080004c 	andi	r2,r18,1
  102960:	1001aa26 	beq	r2,zero,10300c <___svfprintf_internal_r+0x11f0>
  102964:	a584b03a 	or	r2,r20,r22
  102968:	10032526 	beq	r2,zero,103600 <___svfprintf_internal_r+0x17e4>
  10296c:	d8c02a17 	ldw	r3,168(sp)
  102970:	00800c04 	movi	r2,48
  102974:	d8802705 	stb	r2,156(sp)
  102978:	dc402745 	stb	r17,157(sp)
  10297c:	d8002785 	stb	zero,158(sp)
  102980:	90800094 	ori	r2,r18,2
  102984:	1804a316 	blt	r3,zero,103c14 <___svfprintf_internal_r+0x1df8>
  102988:	00bfdfc4 	movi	r2,-129
  10298c:	90a4703a 	and	r18,r18,r2
  102990:	94800094 	ori	r18,r18,2
  102994:	0039883a 	mov	fp,zero
  102998:	d9003a17 	ldw	r4,232(sp)
  10299c:	dc001e04 	addi	r16,sp,120
  1029a0:	a08003cc 	andi	r2,r20,15
  1029a4:	b006973a 	slli	r3,r22,28
  1029a8:	2085883a 	add	r2,r4,r2
  1029ac:	a028d13a 	srli	r20,r20,4
  1029b0:	10800003 	ldbu	r2,0(r2)
  1029b4:	b02cd13a 	srli	r22,r22,4
  1029b8:	843fffc4 	addi	r16,r16,-1
  1029bc:	1d28b03a 	or	r20,r3,r20
  1029c0:	80800005 	stb	r2,0(r16)
  1029c4:	a584b03a 	or	r2,r20,r22
  1029c8:	103ff51e 	bne	r2,zero,1029a0 <__alt_data_end+0xfffc29a0>
  1029cc:	d8c02817 	ldw	r3,160(sp)
  1029d0:	1c07c83a 	sub	r3,r3,r16
  1029d4:	d8c02b15 	stw	r3,172(sp)
  1029d8:	003ec806 	br	1024fc <__alt_data_end+0xfffc24fc>
  1029dc:	d8c02e17 	ldw	r3,184(sp)
  1029e0:	d9002e17 	ldw	r4,184(sp)
  1029e4:	8025883a 	mov	r18,r16
  1029e8:	18800017 	ldw	r2,0(r3)
  1029ec:	21000104 	addi	r4,r4,4
  1029f0:	00c00044 	movi	r3,1
  1029f4:	e011883a 	mov	r8,fp
  1029f8:	d8c02915 	stw	r3,164(sp)
  1029fc:	d8002785 	stb	zero,158(sp)
  102a00:	d8801405 	stb	r2,80(sp)
  102a04:	d9002e15 	stw	r4,184(sp)
  102a08:	d8c02b15 	stw	r3,172(sp)
  102a0c:	d8002a15 	stw	zero,168(sp)
  102a10:	d8003215 	stw	zero,200(sp)
  102a14:	dc001404 	addi	r16,sp,80
  102a18:	0039883a 	mov	fp,zero
  102a1c:	003ec406 	br	102530 <__alt_data_end+0xfffc2530>
  102a20:	8025883a 	mov	r18,r16
  102a24:	dc002903 	ldbu	r16,164(sp)
  102a28:	e011883a 	mov	r8,fp
  102a2c:	84003fcc 	andi	r16,r16,255
  102a30:	803e8726 	beq	r16,zero,102450 <__alt_data_end+0xfffc2450>
  102a34:	d8c02b03 	ldbu	r3,172(sp)
  102a38:	d8c02785 	stb	r3,158(sp)
  102a3c:	003e8406 	br	102450 <__alt_data_end+0xfffc2450>
  102a40:	00c00044 	movi	r3,1
  102a44:	d8c02905 	stb	r3,164(sp)
  102a48:	00c00ac4 	movi	r3,43
  102a4c:	d8c02b05 	stb	r3,172(sp)
  102a50:	bc400007 	ldb	r17,0(r23)
  102a54:	003d4606 	br	101f70 <__alt_data_end+0xfffc1f70>
  102a58:	84000814 	ori	r16,r16,32
  102a5c:	bc400007 	ldb	r17,0(r23)
  102a60:	003d4306 	br	101f70 <__alt_data_end+0xfffc1f70>
  102a64:	d8802e17 	ldw	r2,184(sp)
  102a68:	8025883a 	mov	r18,r16
  102a6c:	d8002785 	stb	zero,158(sp)
  102a70:	14000017 	ldw	r16,0(r2)
  102a74:	e011883a 	mov	r8,fp
  102a78:	15000104 	addi	r20,r2,4
  102a7c:	80042126 	beq	r16,zero,103b04 <___svfprintf_internal_r+0x1ce8>
  102a80:	d8c02a17 	ldw	r3,168(sp)
  102a84:	1803ee16 	blt	r3,zero,103a40 <___svfprintf_internal_r+0x1c24>
  102a88:	180d883a 	mov	r6,r3
  102a8c:	000b883a 	mov	r5,zero
  102a90:	8009883a 	mov	r4,r16
  102a94:	df003e15 	stw	fp,248(sp)
  102a98:	010b7040 	call	10b704 <memchr>
  102a9c:	da003e17 	ldw	r8,248(sp)
  102aa0:	10046a26 	beq	r2,zero,103c4c <___svfprintf_internal_r+0x1e30>
  102aa4:	1405c83a 	sub	r2,r2,r16
  102aa8:	d8802b15 	stw	r2,172(sp)
  102aac:	1003ea16 	blt	r2,zero,103a58 <___svfprintf_internal_r+0x1c3c>
  102ab0:	df002783 	ldbu	fp,158(sp)
  102ab4:	d8802915 	stw	r2,164(sp)
  102ab8:	dd002e15 	stw	r20,184(sp)
  102abc:	d8002a15 	stw	zero,168(sp)
  102ac0:	d8003215 	stw	zero,200(sp)
  102ac4:	003e9306 	br	102514 <__alt_data_end+0xfffc2514>
  102ac8:	8025883a 	mov	r18,r16
  102acc:	dc002903 	ldbu	r16,164(sp)
  102ad0:	e011883a 	mov	r8,fp
  102ad4:	84003fcc 	andi	r16,r16,255
  102ad8:	803f7c26 	beq	r16,zero,1028cc <__alt_data_end+0xfffc28cc>
  102adc:	d8c02b03 	ldbu	r3,172(sp)
  102ae0:	d8c02785 	stb	r3,158(sp)
  102ae4:	003f7906 	br	1028cc <__alt_data_end+0xfffc28cc>
  102ae8:	8025883a 	mov	r18,r16
  102aec:	dc002903 	ldbu	r16,164(sp)
  102af0:	e011883a 	mov	r8,fp
  102af4:	84003fcc 	andi	r16,r16,255
  102af8:	8005741e 	bne	r16,zero,1040cc <___svfprintf_internal_r+0x22b0>
  102afc:	010004b4 	movhi	r4,18
  102b00:	210c8a04 	addi	r4,r4,12840
  102b04:	d9003a15 	stw	r4,232(sp)
  102b08:	9080080c 	andi	r2,r18,32
  102b0c:	103f8e1e 	bne	r2,zero,102948 <__alt_data_end+0xfffc2948>
  102b10:	9080040c 	andi	r2,r18,16
  102b14:	1002a726 	beq	r2,zero,1035b4 <___svfprintf_internal_r+0x1798>
  102b18:	d8802e17 	ldw	r2,184(sp)
  102b1c:	002d883a 	mov	r22,zero
  102b20:	15000017 	ldw	r20,0(r2)
  102b24:	10800104 	addi	r2,r2,4
  102b28:	d8802e15 	stw	r2,184(sp)
  102b2c:	003f8b06 	br	10295c <__alt_data_end+0xfffc295c>
  102b30:	84000054 	ori	r16,r16,1
  102b34:	bc400007 	ldb	r17,0(r23)
  102b38:	003d0d06 	br	101f70 <__alt_data_end+0xfffc1f70>
  102b3c:	d8802b07 	ldb	r2,172(sp)
  102b40:	1002a41e 	bne	r2,zero,1035d4 <___svfprintf_internal_r+0x17b8>
  102b44:	00c00044 	movi	r3,1
  102b48:	d8c02905 	stb	r3,164(sp)
  102b4c:	00c00804 	movi	r3,32
  102b50:	d8c02b05 	stb	r3,172(sp)
  102b54:	bc400007 	ldb	r17,0(r23)
  102b58:	003d0506 	br	101f70 <__alt_data_end+0xfffc1f70>
  102b5c:	8025883a 	mov	r18,r16
  102b60:	dc002903 	ldbu	r16,164(sp)
  102b64:	e011883a 	mov	r8,fp
  102b68:	84003fcc 	andi	r16,r16,255
  102b6c:	803e0626 	beq	r16,zero,102388 <__alt_data_end+0xfffc2388>
  102b70:	d8c02b03 	ldbu	r3,172(sp)
  102b74:	d8c02785 	stb	r3,158(sp)
  102b78:	003e0306 	br	102388 <__alt_data_end+0xfffc2388>
  102b7c:	bc400007 	ldb	r17,0(r23)
  102b80:	00801b04 	movi	r2,108
  102b84:	88830a26 	beq	r17,r2,1037b0 <___svfprintf_internal_r+0x1994>
  102b88:	84000414 	ori	r16,r16,16
  102b8c:	003cf806 	br	101f70 <__alt_data_end+0xfffc1f70>
  102b90:	8025883a 	mov	r18,r16
  102b94:	dc002903 	ldbu	r16,164(sp)
  102b98:	e011883a 	mov	r8,fp
  102b9c:	84003fcc 	andi	r16,r16,255
  102ba0:	8005471e 	bne	r16,zero,1040c0 <___svfprintf_internal_r+0x22a4>
  102ba4:	9080080c 	andi	r2,r18,32
  102ba8:	10028c26 	beq	r2,zero,1035dc <___svfprintf_internal_r+0x17c0>
  102bac:	d9002e17 	ldw	r4,184(sp)
  102bb0:	d9402f17 	ldw	r5,188(sp)
  102bb4:	20800017 	ldw	r2,0(r4)
  102bb8:	2807d7fa 	srai	r3,r5,31
  102bbc:	21000104 	addi	r4,r4,4
  102bc0:	d9002e15 	stw	r4,184(sp)
  102bc4:	11400015 	stw	r5,0(r2)
  102bc8:	10c00115 	stw	r3,4(r2)
  102bcc:	003cbe06 	br	101ec8 <__alt_data_end+0xfffc1ec8>
  102bd0:	84001014 	ori	r16,r16,64
  102bd4:	bc400007 	ldb	r17,0(r23)
  102bd8:	003ce506 	br	101f70 <__alt_data_end+0xfffc1f70>
  102bdc:	010004b4 	movhi	r4,18
  102be0:	210c8a04 	addi	r4,r4,12840
  102be4:	0039883a 	mov	fp,zero
  102be8:	d9003a15 	stw	r4,232(sp)
  102bec:	04401e04 	movi	r17,120
  102bf0:	003f6906 	br	102998 <__alt_data_end+0xfffc2998>
  102bf4:	8025883a 	mov	r18,r16
  102bf8:	dc002903 	ldbu	r16,164(sp)
  102bfc:	e011883a 	mov	r8,fp
  102c00:	84003fcc 	andi	r16,r16,255
  102c04:	8005261e 	bne	r16,zero,1040a0 <___svfprintf_internal_r+0x2284>
  102c08:	883d6526 	beq	r17,zero,1021a0 <__alt_data_end+0xfffc21a0>
  102c0c:	00c00044 	movi	r3,1
  102c10:	d8c02915 	stw	r3,164(sp)
  102c14:	dc401405 	stb	r17,80(sp)
  102c18:	d8002785 	stb	zero,158(sp)
  102c1c:	003f7a06 	br	102a08 <__alt_data_end+0xfffc2a08>
  102c20:	010004b4 	movhi	r4,18
  102c24:	210c8a04 	addi	r4,r4,12840
  102c28:	d9003a15 	stw	r4,232(sp)
  102c2c:	d8c02e15 	stw	r3,184(sp)
  102c30:	1025883a 	mov	r18,r2
  102c34:	04401e04 	movi	r17,120
  102c38:	a584b03a 	or	r2,r20,r22
  102c3c:	1000fa1e 	bne	r2,zero,103028 <___svfprintf_internal_r+0x120c>
  102c40:	0039883a 	mov	fp,zero
  102c44:	00800084 	movi	r2,2
  102c48:	10803fcc 	andi	r2,r2,255
  102c4c:	00c00044 	movi	r3,1
  102c50:	10c21626 	beq	r2,r3,1034ac <___svfprintf_internal_r+0x1690>
  102c54:	00c00084 	movi	r3,2
  102c58:	10fe0e1e 	bne	r2,r3,102494 <__alt_data_end+0xfffc2494>
  102c5c:	003d4606 	br	102178 <__alt_data_end+0xfffc2178>
  102c60:	d8c02017 	ldw	r3,128(sp)
  102c64:	003e7306 	br	102634 <__alt_data_end+0xfffc2634>
  102c68:	00801944 	movi	r2,101
  102c6c:	14407c0e 	bge	r2,r17,102e60 <___svfprintf_internal_r+0x1044>
  102c70:	d9003617 	ldw	r4,216(sp)
  102c74:	d9403717 	ldw	r5,220(sp)
  102c78:	000d883a 	mov	r6,zero
  102c7c:	000f883a 	mov	r7,zero
  102c80:	d8c03d15 	stw	r3,244(sp)
  102c84:	da003e15 	stw	r8,248(sp)
  102c88:	0116e800 	call	116e80 <__eqdf2>
  102c8c:	d8c03d17 	ldw	r3,244(sp)
  102c90:	da003e17 	ldw	r8,248(sp)
  102c94:	1000f51e 	bne	r2,zero,10306c <___svfprintf_internal_r+0x1250>
  102c98:	d8801f17 	ldw	r2,124(sp)
  102c9c:	010004b4 	movhi	r4,18
  102ca0:	210c9104 	addi	r4,r4,12868
  102ca4:	18c00044 	addi	r3,r3,1
  102ca8:	10800044 	addi	r2,r2,1
  102cac:	41000015 	stw	r4,0(r8)
  102cb0:	01000044 	movi	r4,1
  102cb4:	41000115 	stw	r4,4(r8)
  102cb8:	d8c02015 	stw	r3,128(sp)
  102cbc:	d8801f15 	stw	r2,124(sp)
  102cc0:	010001c4 	movi	r4,7
  102cc4:	20826616 	blt	r4,r2,103660 <___svfprintf_internal_r+0x1844>
  102cc8:	42000204 	addi	r8,r8,8
  102ccc:	d8802617 	ldw	r2,152(sp)
  102cd0:	d9403317 	ldw	r5,204(sp)
  102cd4:	11400216 	blt	r2,r5,102ce0 <___svfprintf_internal_r+0xec4>
  102cd8:	9080004c 	andi	r2,r18,1
  102cdc:	103eb326 	beq	r2,zero,1027ac <__alt_data_end+0xfffc27ac>
  102ce0:	d8803817 	ldw	r2,224(sp)
  102ce4:	d9003417 	ldw	r4,208(sp)
  102ce8:	d9403817 	ldw	r5,224(sp)
  102cec:	1887883a 	add	r3,r3,r2
  102cf0:	d8801f17 	ldw	r2,124(sp)
  102cf4:	41000015 	stw	r4,0(r8)
  102cf8:	41400115 	stw	r5,4(r8)
  102cfc:	10800044 	addi	r2,r2,1
  102d00:	d8c02015 	stw	r3,128(sp)
  102d04:	d8801f15 	stw	r2,124(sp)
  102d08:	010001c4 	movi	r4,7
  102d0c:	2082af16 	blt	r4,r2,1037cc <___svfprintf_internal_r+0x19b0>
  102d10:	42000204 	addi	r8,r8,8
  102d14:	d8803317 	ldw	r2,204(sp)
  102d18:	143fffc4 	addi	r16,r2,-1
  102d1c:	043ea30e 	bge	zero,r16,1027ac <__alt_data_end+0xfffc27ac>
  102d20:	04400404 	movi	r17,16
  102d24:	d8801f17 	ldw	r2,124(sp)
  102d28:	8c00860e 	bge	r17,r16,102f44 <___svfprintf_internal_r+0x1128>
  102d2c:	014004b4 	movhi	r5,18
  102d30:	294c9184 	addi	r5,r5,12870
  102d34:	d9402c15 	stw	r5,176(sp)
  102d38:	058001c4 	movi	r22,7
  102d3c:	dd002d17 	ldw	r20,180(sp)
  102d40:	00000306 	br	102d50 <___svfprintf_internal_r+0xf34>
  102d44:	42000204 	addi	r8,r8,8
  102d48:	843ffc04 	addi	r16,r16,-16
  102d4c:	8c00800e 	bge	r17,r16,102f50 <___svfprintf_internal_r+0x1134>
  102d50:	18c00404 	addi	r3,r3,16
  102d54:	10800044 	addi	r2,r2,1
  102d58:	45400015 	stw	r21,0(r8)
  102d5c:	44400115 	stw	r17,4(r8)
  102d60:	d8c02015 	stw	r3,128(sp)
  102d64:	d8801f15 	stw	r2,124(sp)
  102d68:	b0bff60e 	bge	r22,r2,102d44 <__alt_data_end+0xfffc2d44>
  102d6c:	d9801e04 	addi	r6,sp,120
  102d70:	a00b883a 	mov	r5,r20
  102d74:	9809883a 	mov	r4,r19
  102d78:	010f3ec0 	call	10f3ec <__ssprint_r>
  102d7c:	103d0e1e 	bne	r2,zero,1021b8 <__alt_data_end+0xfffc21b8>
  102d80:	d8c02017 	ldw	r3,128(sp)
  102d84:	d8801f17 	ldw	r2,124(sp)
  102d88:	da000404 	addi	r8,sp,16
  102d8c:	003fee06 	br	102d48 <__alt_data_end+0xfffc2d48>
  102d90:	d9403117 	ldw	r5,196(sp)
  102d94:	d8802917 	ldw	r2,164(sp)
  102d98:	28adc83a 	sub	r22,r5,r2
  102d9c:	05be430e 	bge	zero,r22,1026ac <__alt_data_end+0xfffc26ac>
  102da0:	07000404 	movi	fp,16
  102da4:	d8801f17 	ldw	r2,124(sp)
  102da8:	e583a20e 	bge	fp,r22,103c34 <___svfprintf_internal_r+0x1e18>
  102dac:	014004b4 	movhi	r5,18
  102db0:	294c9184 	addi	r5,r5,12870
  102db4:	dc403015 	stw	r17,192(sp)
  102db8:	d9402c15 	stw	r5,176(sp)
  102dbc:	b023883a 	mov	r17,r22
  102dc0:	050001c4 	movi	r20,7
  102dc4:	902d883a 	mov	r22,r18
  102dc8:	8025883a 	mov	r18,r16
  102dcc:	dc002d17 	ldw	r16,180(sp)
  102dd0:	00000306 	br	102de0 <___svfprintf_internal_r+0xfc4>
  102dd4:	8c7ffc04 	addi	r17,r17,-16
  102dd8:	42000204 	addi	r8,r8,8
  102ddc:	e440110e 	bge	fp,r17,102e24 <___svfprintf_internal_r+0x1008>
  102de0:	18c00404 	addi	r3,r3,16
  102de4:	10800044 	addi	r2,r2,1
  102de8:	45400015 	stw	r21,0(r8)
  102dec:	47000115 	stw	fp,4(r8)
  102df0:	d8c02015 	stw	r3,128(sp)
  102df4:	d8801f15 	stw	r2,124(sp)
  102df8:	a0bff60e 	bge	r20,r2,102dd4 <__alt_data_end+0xfffc2dd4>
  102dfc:	d9801e04 	addi	r6,sp,120
  102e00:	800b883a 	mov	r5,r16
  102e04:	9809883a 	mov	r4,r19
  102e08:	010f3ec0 	call	10f3ec <__ssprint_r>
  102e0c:	103cea1e 	bne	r2,zero,1021b8 <__alt_data_end+0xfffc21b8>
  102e10:	8c7ffc04 	addi	r17,r17,-16
  102e14:	d8c02017 	ldw	r3,128(sp)
  102e18:	d8801f17 	ldw	r2,124(sp)
  102e1c:	da000404 	addi	r8,sp,16
  102e20:	e47fef16 	blt	fp,r17,102de0 <__alt_data_end+0xfffc2de0>
  102e24:	9021883a 	mov	r16,r18
  102e28:	b025883a 	mov	r18,r22
  102e2c:	882d883a 	mov	r22,r17
  102e30:	dc403017 	ldw	r17,192(sp)
  102e34:	d9002c17 	ldw	r4,176(sp)
  102e38:	1d87883a 	add	r3,r3,r22
  102e3c:	10800044 	addi	r2,r2,1
  102e40:	41000015 	stw	r4,0(r8)
  102e44:	45800115 	stw	r22,4(r8)
  102e48:	d8c02015 	stw	r3,128(sp)
  102e4c:	d8801f15 	stw	r2,124(sp)
  102e50:	010001c4 	movi	r4,7
  102e54:	20819a16 	blt	r4,r2,1034c0 <___svfprintf_internal_r+0x16a4>
  102e58:	42000204 	addi	r8,r8,8
  102e5c:	003e1306 	br	1026ac <__alt_data_end+0xfffc26ac>
  102e60:	d9403317 	ldw	r5,204(sp)
  102e64:	00800044 	movi	r2,1
  102e68:	18c00044 	addi	r3,r3,1
  102e6c:	1141710e 	bge	r2,r5,103434 <___svfprintf_internal_r+0x1618>
  102e70:	dc401f17 	ldw	r17,124(sp)
  102e74:	00800044 	movi	r2,1
  102e78:	40800115 	stw	r2,4(r8)
  102e7c:	8c400044 	addi	r17,r17,1
  102e80:	44000015 	stw	r16,0(r8)
  102e84:	d8c02015 	stw	r3,128(sp)
  102e88:	dc401f15 	stw	r17,124(sp)
  102e8c:	008001c4 	movi	r2,7
  102e90:	14417416 	blt	r2,r17,103464 <___svfprintf_internal_r+0x1648>
  102e94:	42000204 	addi	r8,r8,8
  102e98:	d8803817 	ldw	r2,224(sp)
  102e9c:	d9003417 	ldw	r4,208(sp)
  102ea0:	8c400044 	addi	r17,r17,1
  102ea4:	10c7883a 	add	r3,r2,r3
  102ea8:	40800115 	stw	r2,4(r8)
  102eac:	41000015 	stw	r4,0(r8)
  102eb0:	d8c02015 	stw	r3,128(sp)
  102eb4:	dc401f15 	stw	r17,124(sp)
  102eb8:	008001c4 	movi	r2,7
  102ebc:	14417216 	blt	r2,r17,103488 <___svfprintf_internal_r+0x166c>
  102ec0:	45800204 	addi	r22,r8,8
  102ec4:	d9003617 	ldw	r4,216(sp)
  102ec8:	d9403717 	ldw	r5,220(sp)
  102ecc:	000d883a 	mov	r6,zero
  102ed0:	000f883a 	mov	r7,zero
  102ed4:	d8c03d15 	stw	r3,244(sp)
  102ed8:	0116e800 	call	116e80 <__eqdf2>
  102edc:	d8c03d17 	ldw	r3,244(sp)
  102ee0:	1000b326 	beq	r2,zero,1031b0 <___svfprintf_internal_r+0x1394>
  102ee4:	d9403317 	ldw	r5,204(sp)
  102ee8:	84000044 	addi	r16,r16,1
  102eec:	8c400044 	addi	r17,r17,1
  102ef0:	28bfffc4 	addi	r2,r5,-1
  102ef4:	1887883a 	add	r3,r3,r2
  102ef8:	b0800115 	stw	r2,4(r22)
  102efc:	b4000015 	stw	r16,0(r22)
  102f00:	d8c02015 	stw	r3,128(sp)
  102f04:	dc401f15 	stw	r17,124(sp)
  102f08:	008001c4 	movi	r2,7
  102f0c:	1440d216 	blt	r2,r17,103258 <___svfprintf_internal_r+0x143c>
  102f10:	b5800204 	addi	r22,r22,8
  102f14:	d9003b17 	ldw	r4,236(sp)
  102f18:	df0022c4 	addi	fp,sp,139
  102f1c:	8c400044 	addi	r17,r17,1
  102f20:	20c7883a 	add	r3,r4,r3
  102f24:	b7000015 	stw	fp,0(r22)
  102f28:	b1000115 	stw	r4,4(r22)
  102f2c:	d8c02015 	stw	r3,128(sp)
  102f30:	dc401f15 	stw	r17,124(sp)
  102f34:	008001c4 	movi	r2,7
  102f38:	14400e16 	blt	r2,r17,102f74 <___svfprintf_internal_r+0x1158>
  102f3c:	b2000204 	addi	r8,r22,8
  102f40:	003e1a06 	br	1027ac <__alt_data_end+0xfffc27ac>
  102f44:	010004b4 	movhi	r4,18
  102f48:	210c9184 	addi	r4,r4,12870
  102f4c:	d9002c15 	stw	r4,176(sp)
  102f50:	d9002c17 	ldw	r4,176(sp)
  102f54:	1c07883a 	add	r3,r3,r16
  102f58:	44000115 	stw	r16,4(r8)
  102f5c:	41000015 	stw	r4,0(r8)
  102f60:	10800044 	addi	r2,r2,1
  102f64:	d8c02015 	stw	r3,128(sp)
  102f68:	d8801f15 	stw	r2,124(sp)
  102f6c:	010001c4 	movi	r4,7
  102f70:	20be0d0e 	bge	r4,r2,1027a8 <__alt_data_end+0xfffc27a8>
  102f74:	d9402d17 	ldw	r5,180(sp)
  102f78:	d9801e04 	addi	r6,sp,120
  102f7c:	9809883a 	mov	r4,r19
  102f80:	010f3ec0 	call	10f3ec <__ssprint_r>
  102f84:	103c8c1e 	bne	r2,zero,1021b8 <__alt_data_end+0xfffc21b8>
  102f88:	d8c02017 	ldw	r3,128(sp)
  102f8c:	da000404 	addi	r8,sp,16
  102f90:	003e0606 	br	1027ac <__alt_data_end+0xfffc27ac>
  102f94:	d9402d17 	ldw	r5,180(sp)
  102f98:	d9801e04 	addi	r6,sp,120
  102f9c:	9809883a 	mov	r4,r19
  102fa0:	010f3ec0 	call	10f3ec <__ssprint_r>
  102fa4:	103e3d26 	beq	r2,zero,10289c <__alt_data_end+0xfffc289c>
  102fa8:	003c8306 	br	1021b8 <__alt_data_end+0xfffc21b8>
  102fac:	d9402d17 	ldw	r5,180(sp)
  102fb0:	d9801e04 	addi	r6,sp,120
  102fb4:	9809883a 	mov	r4,r19
  102fb8:	010f3ec0 	call	10f3ec <__ssprint_r>
  102fbc:	103c7e1e 	bne	r2,zero,1021b8 <__alt_data_end+0xfffc21b8>
  102fc0:	d8c02017 	ldw	r3,128(sp)
  102fc4:	da000404 	addi	r8,sp,16
  102fc8:	003deb06 	br	102778 <__alt_data_end+0xfffc2778>
  102fcc:	d9402d17 	ldw	r5,180(sp)
  102fd0:	d9801e04 	addi	r6,sp,120
  102fd4:	9809883a 	mov	r4,r19
  102fd8:	010f3ec0 	call	10f3ec <__ssprint_r>
  102fdc:	103c761e 	bne	r2,zero,1021b8 <__alt_data_end+0xfffc21b8>
  102fe0:	d8c02017 	ldw	r3,128(sp)
  102fe4:	da000404 	addi	r8,sp,16
  102fe8:	003d9f06 	br	102668 <__alt_data_end+0xfffc2668>
  102fec:	d9402d17 	ldw	r5,180(sp)
  102ff0:	d9801e04 	addi	r6,sp,120
  102ff4:	9809883a 	mov	r4,r19
  102ff8:	010f3ec0 	call	10f3ec <__ssprint_r>
  102ffc:	103c6e1e 	bne	r2,zero,1021b8 <__alt_data_end+0xfffc21b8>
  103000:	d8c02017 	ldw	r3,128(sp)
  103004:	da000404 	addi	r8,sp,16
  103008:	003da506 	br	1026a0 <__alt_data_end+0xfffc26a0>
  10300c:	d9402a17 	ldw	r5,168(sp)
  103010:	d8002785 	stb	zero,158(sp)
  103014:	283f0816 	blt	r5,zero,102c38 <__alt_data_end+0xfffc2c38>
  103018:	00ffdfc4 	movi	r3,-129
  10301c:	a584b03a 	or	r2,r20,r22
  103020:	90e4703a 	and	r18,r18,r3
  103024:	103c5126 	beq	r2,zero,10216c <__alt_data_end+0xfffc216c>
  103028:	0039883a 	mov	fp,zero
  10302c:	003e5a06 	br	102998 <__alt_data_end+0xfffc2998>
  103030:	9080040c 	andi	r2,r18,16
  103034:	10013d26 	beq	r2,zero,10352c <___svfprintf_internal_r+0x1710>
  103038:	d8c02e17 	ldw	r3,184(sp)
  10303c:	d9002a17 	ldw	r4,168(sp)
  103040:	d8002785 	stb	zero,158(sp)
  103044:	18800104 	addi	r2,r3,4
  103048:	1d000017 	ldw	r20,0(r3)
  10304c:	002d883a 	mov	r22,zero
  103050:	20013f16 	blt	r4,zero,103550 <___svfprintf_internal_r+0x1734>
  103054:	00ffdfc4 	movi	r3,-129
  103058:	d8802e15 	stw	r2,184(sp)
  10305c:	90e4703a 	and	r18,r18,r3
  103060:	a03d0926 	beq	r20,zero,102488 <__alt_data_end+0xfffc2488>
  103064:	0039883a 	mov	fp,zero
  103068:	003d0c06 	br	10249c <__alt_data_end+0xfffc249c>
  10306c:	dc402617 	ldw	r17,152(sp)
  103070:	0441830e 	bge	zero,r17,103680 <___svfprintf_internal_r+0x1864>
  103074:	dc403217 	ldw	r17,200(sp)
  103078:	d8803317 	ldw	r2,204(sp)
  10307c:	1440010e 	bge	r2,r17,103084 <___svfprintf_internal_r+0x1268>
  103080:	1023883a 	mov	r17,r2
  103084:	04400a0e 	bge	zero,r17,1030b0 <___svfprintf_internal_r+0x1294>
  103088:	d8801f17 	ldw	r2,124(sp)
  10308c:	1c47883a 	add	r3,r3,r17
  103090:	44000015 	stw	r16,0(r8)
  103094:	10800044 	addi	r2,r2,1
  103098:	44400115 	stw	r17,4(r8)
  10309c:	d8c02015 	stw	r3,128(sp)
  1030a0:	d8801f15 	stw	r2,124(sp)
  1030a4:	010001c4 	movi	r4,7
  1030a8:	20827516 	blt	r4,r2,103a80 <___svfprintf_internal_r+0x1c64>
  1030ac:	42000204 	addi	r8,r8,8
  1030b0:	88027b16 	blt	r17,zero,103aa0 <___svfprintf_internal_r+0x1c84>
  1030b4:	d9003217 	ldw	r4,200(sp)
  1030b8:	2463c83a 	sub	r17,r4,r17
  1030bc:	0440990e 	bge	zero,r17,103324 <___svfprintf_internal_r+0x1508>
  1030c0:	05800404 	movi	r22,16
  1030c4:	d8801f17 	ldw	r2,124(sp)
  1030c8:	b441530e 	bge	r22,r17,103618 <___svfprintf_internal_r+0x17fc>
  1030cc:	010004b4 	movhi	r4,18
  1030d0:	210c9184 	addi	r4,r4,12870
  1030d4:	d9002c15 	stw	r4,176(sp)
  1030d8:	070001c4 	movi	fp,7
  1030dc:	dd002d17 	ldw	r20,180(sp)
  1030e0:	00000306 	br	1030f0 <___svfprintf_internal_r+0x12d4>
  1030e4:	42000204 	addi	r8,r8,8
  1030e8:	8c7ffc04 	addi	r17,r17,-16
  1030ec:	b4414d0e 	bge	r22,r17,103624 <___svfprintf_internal_r+0x1808>
  1030f0:	18c00404 	addi	r3,r3,16
  1030f4:	10800044 	addi	r2,r2,1
  1030f8:	45400015 	stw	r21,0(r8)
  1030fc:	45800115 	stw	r22,4(r8)
  103100:	d8c02015 	stw	r3,128(sp)
  103104:	d8801f15 	stw	r2,124(sp)
  103108:	e0bff60e 	bge	fp,r2,1030e4 <__alt_data_end+0xfffc30e4>
  10310c:	d9801e04 	addi	r6,sp,120
  103110:	a00b883a 	mov	r5,r20
  103114:	9809883a 	mov	r4,r19
  103118:	010f3ec0 	call	10f3ec <__ssprint_r>
  10311c:	103c261e 	bne	r2,zero,1021b8 <__alt_data_end+0xfffc21b8>
  103120:	d8c02017 	ldw	r3,128(sp)
  103124:	d8801f17 	ldw	r2,124(sp)
  103128:	da000404 	addi	r8,sp,16
  10312c:	003fee06 	br	1030e8 <__alt_data_end+0xfffc30e8>
  103130:	d9402d17 	ldw	r5,180(sp)
  103134:	d9801e04 	addi	r6,sp,120
  103138:	9809883a 	mov	r4,r19
  10313c:	010f3ec0 	call	10f3ec <__ssprint_r>
  103140:	103c1d1e 	bne	r2,zero,1021b8 <__alt_data_end+0xfffc21b8>
  103144:	d8c02017 	ldw	r3,128(sp)
  103148:	df002787 	ldb	fp,158(sp)
  10314c:	da000404 	addi	r8,sp,16
  103150:	003d3806 	br	102634 <__alt_data_end+0xfffc2634>
  103154:	9080040c 	andi	r2,r18,16
  103158:	10005c26 	beq	r2,zero,1032cc <___svfprintf_internal_r+0x14b0>
  10315c:	d8c02e17 	ldw	r3,184(sp)
  103160:	d9002a17 	ldw	r4,168(sp)
  103164:	d8002785 	stb	zero,158(sp)
  103168:	18800104 	addi	r2,r3,4
  10316c:	1d000017 	ldw	r20,0(r3)
  103170:	002d883a 	mov	r22,zero
  103174:	20005e16 	blt	r4,zero,1032f0 <___svfprintf_internal_r+0x14d4>
  103178:	00ffdfc4 	movi	r3,-129
  10317c:	d8802e15 	stw	r2,184(sp)
  103180:	90e4703a 	and	r18,r18,r3
  103184:	0039883a 	mov	fp,zero
  103188:	a03ddf26 	beq	r20,zero,102908 <__alt_data_end+0xfffc2908>
  10318c:	00800244 	movi	r2,9
  103190:	153c8e36 	bltu	r2,r20,1023cc <__alt_data_end+0xfffc23cc>
  103194:	a5000c04 	addi	r20,r20,48
  103198:	dc001dc4 	addi	r16,sp,119
  10319c:	dd001dc5 	stb	r20,119(sp)
  1031a0:	d8c02817 	ldw	r3,160(sp)
  1031a4:	1c07c83a 	sub	r3,r3,r16
  1031a8:	d8c02b15 	stw	r3,172(sp)
  1031ac:	003cd306 	br	1024fc <__alt_data_end+0xfffc24fc>
  1031b0:	d8803317 	ldw	r2,204(sp)
  1031b4:	143fffc4 	addi	r16,r2,-1
  1031b8:	043f560e 	bge	zero,r16,102f14 <__alt_data_end+0xfffc2f14>
  1031bc:	07000404 	movi	fp,16
  1031c0:	e403530e 	bge	fp,r16,103f10 <___svfprintf_internal_r+0x20f4>
  1031c4:	014004b4 	movhi	r5,18
  1031c8:	294c9184 	addi	r5,r5,12870
  1031cc:	d9402c15 	stw	r5,176(sp)
  1031d0:	01c001c4 	movi	r7,7
  1031d4:	dd002d17 	ldw	r20,180(sp)
  1031d8:	00000306 	br	1031e8 <___svfprintf_internal_r+0x13cc>
  1031dc:	843ffc04 	addi	r16,r16,-16
  1031e0:	b5800204 	addi	r22,r22,8
  1031e4:	e400130e 	bge	fp,r16,103234 <___svfprintf_internal_r+0x1418>
  1031e8:	18c00404 	addi	r3,r3,16
  1031ec:	8c400044 	addi	r17,r17,1
  1031f0:	b5400015 	stw	r21,0(r22)
  1031f4:	b7000115 	stw	fp,4(r22)
  1031f8:	d8c02015 	stw	r3,128(sp)
  1031fc:	dc401f15 	stw	r17,124(sp)
  103200:	3c7ff60e 	bge	r7,r17,1031dc <__alt_data_end+0xfffc31dc>
  103204:	d9801e04 	addi	r6,sp,120
  103208:	a00b883a 	mov	r5,r20
  10320c:	9809883a 	mov	r4,r19
  103210:	d9c03d15 	stw	r7,244(sp)
  103214:	010f3ec0 	call	10f3ec <__ssprint_r>
  103218:	d9c03d17 	ldw	r7,244(sp)
  10321c:	103be61e 	bne	r2,zero,1021b8 <__alt_data_end+0xfffc21b8>
  103220:	843ffc04 	addi	r16,r16,-16
  103224:	d8c02017 	ldw	r3,128(sp)
  103228:	dc401f17 	ldw	r17,124(sp)
  10322c:	dd800404 	addi	r22,sp,16
  103230:	e43fed16 	blt	fp,r16,1031e8 <__alt_data_end+0xfffc31e8>
  103234:	d8802c17 	ldw	r2,176(sp)
  103238:	1c07883a 	add	r3,r3,r16
  10323c:	8c400044 	addi	r17,r17,1
  103240:	b0800015 	stw	r2,0(r22)
  103244:	b4000115 	stw	r16,4(r22)
  103248:	d8c02015 	stw	r3,128(sp)
  10324c:	dc401f15 	stw	r17,124(sp)
  103250:	008001c4 	movi	r2,7
  103254:	147f2e0e 	bge	r2,r17,102f10 <__alt_data_end+0xfffc2f10>
  103258:	d9402d17 	ldw	r5,180(sp)
  10325c:	d9801e04 	addi	r6,sp,120
  103260:	9809883a 	mov	r4,r19
  103264:	010f3ec0 	call	10f3ec <__ssprint_r>
  103268:	103bd31e 	bne	r2,zero,1021b8 <__alt_data_end+0xfffc21b8>
  10326c:	d8c02017 	ldw	r3,128(sp)
  103270:	dc401f17 	ldw	r17,124(sp)
  103274:	dd800404 	addi	r22,sp,16
  103278:	003f2606 	br	102f14 <__alt_data_end+0xfffc2f14>
  10327c:	9080040c 	andi	r2,r18,16
  103280:	1000c326 	beq	r2,zero,103590 <___svfprintf_internal_r+0x1774>
  103284:	d9402e17 	ldw	r5,184(sp)
  103288:	2d000017 	ldw	r20,0(r5)
  10328c:	29400104 	addi	r5,r5,4
  103290:	d9402e15 	stw	r5,184(sp)
  103294:	a02dd7fa 	srai	r22,r20,31
  103298:	b005883a 	mov	r2,r22
  10329c:	103c430e 	bge	r2,zero,1023ac <__alt_data_end+0xfffc23ac>
  1032a0:	d9402a17 	ldw	r5,168(sp)
  1032a4:	0529c83a 	sub	r20,zero,r20
  1032a8:	07000b44 	movi	fp,45
  1032ac:	a004c03a 	cmpne	r2,r20,zero
  1032b0:	05adc83a 	sub	r22,zero,r22
  1032b4:	df002785 	stb	fp,158(sp)
  1032b8:	b0adc83a 	sub	r22,r22,r2
  1032bc:	28022e16 	blt	r5,zero,103b78 <___svfprintf_internal_r+0x1d5c>
  1032c0:	00bfdfc4 	movi	r2,-129
  1032c4:	90a4703a 	and	r18,r18,r2
  1032c8:	003c3f06 	br	1023c8 <__alt_data_end+0xfffc23c8>
  1032cc:	9080100c 	andi	r2,r18,64
  1032d0:	d8002785 	stb	zero,158(sp)
  1032d4:	10012526 	beq	r2,zero,10376c <___svfprintf_internal_r+0x1950>
  1032d8:	d9402e17 	ldw	r5,184(sp)
  1032dc:	d8c02a17 	ldw	r3,168(sp)
  1032e0:	002d883a 	mov	r22,zero
  1032e4:	28800104 	addi	r2,r5,4
  1032e8:	2d00000b 	ldhu	r20,0(r5)
  1032ec:	183fa20e 	bge	r3,zero,103178 <__alt_data_end+0xfffc3178>
  1032f0:	d8802e15 	stw	r2,184(sp)
  1032f4:	0039883a 	mov	fp,zero
  1032f8:	a584b03a 	or	r2,r20,r22
  1032fc:	103c321e 	bne	r2,zero,1023c8 <__alt_data_end+0xfffc23c8>
  103300:	00800044 	movi	r2,1
  103304:	003e5006 	br	102c48 <__alt_data_end+0xfffc2c48>
  103308:	d9402d17 	ldw	r5,180(sp)
  10330c:	d9801e04 	addi	r6,sp,120
  103310:	9809883a 	mov	r4,r19
  103314:	010f3ec0 	call	10f3ec <__ssprint_r>
  103318:	103ba71e 	bne	r2,zero,1021b8 <__alt_data_end+0xfffc21b8>
  10331c:	d8c02017 	ldw	r3,128(sp)
  103320:	da000404 	addi	r8,sp,16
  103324:	d9003217 	ldw	r4,200(sp)
  103328:	d8802617 	ldw	r2,152(sp)
  10332c:	d9403317 	ldw	r5,204(sp)
  103330:	8123883a 	add	r17,r16,r4
  103334:	11400216 	blt	r2,r5,103340 <___svfprintf_internal_r+0x1524>
  103338:	9100004c 	andi	r4,r18,1
  10333c:	20000d26 	beq	r4,zero,103374 <___svfprintf_internal_r+0x1558>
  103340:	d9003817 	ldw	r4,224(sp)
  103344:	d9403417 	ldw	r5,208(sp)
  103348:	1907883a 	add	r3,r3,r4
  10334c:	d9001f17 	ldw	r4,124(sp)
  103350:	41400015 	stw	r5,0(r8)
  103354:	d9403817 	ldw	r5,224(sp)
  103358:	21000044 	addi	r4,r4,1
  10335c:	d8c02015 	stw	r3,128(sp)
  103360:	41400115 	stw	r5,4(r8)
  103364:	d9001f15 	stw	r4,124(sp)
  103368:	014001c4 	movi	r5,7
  10336c:	2901dc16 	blt	r5,r4,103ae0 <___svfprintf_internal_r+0x1cc4>
  103370:	42000204 	addi	r8,r8,8
  103374:	d9003317 	ldw	r4,204(sp)
  103378:	8121883a 	add	r16,r16,r4
  10337c:	2085c83a 	sub	r2,r4,r2
  103380:	8461c83a 	sub	r16,r16,r17
  103384:	1400010e 	bge	r2,r16,10338c <___svfprintf_internal_r+0x1570>
  103388:	1021883a 	mov	r16,r2
  10338c:	04000a0e 	bge	zero,r16,1033b8 <___svfprintf_internal_r+0x159c>
  103390:	d9001f17 	ldw	r4,124(sp)
  103394:	1c07883a 	add	r3,r3,r16
  103398:	44400015 	stw	r17,0(r8)
  10339c:	21000044 	addi	r4,r4,1
  1033a0:	44000115 	stw	r16,4(r8)
  1033a4:	d8c02015 	stw	r3,128(sp)
  1033a8:	d9001f15 	stw	r4,124(sp)
  1033ac:	014001c4 	movi	r5,7
  1033b0:	2901e616 	blt	r5,r4,103b4c <___svfprintf_internal_r+0x1d30>
  1033b4:	42000204 	addi	r8,r8,8
  1033b8:	8001f616 	blt	r16,zero,103b94 <___svfprintf_internal_r+0x1d78>
  1033bc:	1421c83a 	sub	r16,r2,r16
  1033c0:	043cfa0e 	bge	zero,r16,1027ac <__alt_data_end+0xfffc27ac>
  1033c4:	04400404 	movi	r17,16
  1033c8:	d8801f17 	ldw	r2,124(sp)
  1033cc:	8c3edd0e 	bge	r17,r16,102f44 <__alt_data_end+0xfffc2f44>
  1033d0:	014004b4 	movhi	r5,18
  1033d4:	294c9184 	addi	r5,r5,12870
  1033d8:	d9402c15 	stw	r5,176(sp)
  1033dc:	058001c4 	movi	r22,7
  1033e0:	dd002d17 	ldw	r20,180(sp)
  1033e4:	00000306 	br	1033f4 <___svfprintf_internal_r+0x15d8>
  1033e8:	42000204 	addi	r8,r8,8
  1033ec:	843ffc04 	addi	r16,r16,-16
  1033f0:	8c3ed70e 	bge	r17,r16,102f50 <__alt_data_end+0xfffc2f50>
  1033f4:	18c00404 	addi	r3,r3,16
  1033f8:	10800044 	addi	r2,r2,1
  1033fc:	45400015 	stw	r21,0(r8)
  103400:	44400115 	stw	r17,4(r8)
  103404:	d8c02015 	stw	r3,128(sp)
  103408:	d8801f15 	stw	r2,124(sp)
  10340c:	b0bff60e 	bge	r22,r2,1033e8 <__alt_data_end+0xfffc33e8>
  103410:	d9801e04 	addi	r6,sp,120
  103414:	a00b883a 	mov	r5,r20
  103418:	9809883a 	mov	r4,r19
  10341c:	010f3ec0 	call	10f3ec <__ssprint_r>
  103420:	103b651e 	bne	r2,zero,1021b8 <__alt_data_end+0xfffc21b8>
  103424:	d8c02017 	ldw	r3,128(sp)
  103428:	d8801f17 	ldw	r2,124(sp)
  10342c:	da000404 	addi	r8,sp,16
  103430:	003fee06 	br	1033ec <__alt_data_end+0xfffc33ec>
  103434:	9088703a 	and	r4,r18,r2
  103438:	203e8d1e 	bne	r4,zero,102e70 <__alt_data_end+0xfffc2e70>
  10343c:	dc401f17 	ldw	r17,124(sp)
  103440:	40800115 	stw	r2,4(r8)
  103444:	44000015 	stw	r16,0(r8)
  103448:	8c400044 	addi	r17,r17,1
  10344c:	d8c02015 	stw	r3,128(sp)
  103450:	dc401f15 	stw	r17,124(sp)
  103454:	008001c4 	movi	r2,7
  103458:	147f7f16 	blt	r2,r17,103258 <__alt_data_end+0xfffc3258>
  10345c:	45800204 	addi	r22,r8,8
  103460:	003eac06 	br	102f14 <__alt_data_end+0xfffc2f14>
  103464:	d9402d17 	ldw	r5,180(sp)
  103468:	d9801e04 	addi	r6,sp,120
  10346c:	9809883a 	mov	r4,r19
  103470:	010f3ec0 	call	10f3ec <__ssprint_r>
  103474:	103b501e 	bne	r2,zero,1021b8 <__alt_data_end+0xfffc21b8>
  103478:	d8c02017 	ldw	r3,128(sp)
  10347c:	dc401f17 	ldw	r17,124(sp)
  103480:	da000404 	addi	r8,sp,16
  103484:	003e8406 	br	102e98 <__alt_data_end+0xfffc2e98>
  103488:	d9402d17 	ldw	r5,180(sp)
  10348c:	d9801e04 	addi	r6,sp,120
  103490:	9809883a 	mov	r4,r19
  103494:	010f3ec0 	call	10f3ec <__ssprint_r>
  103498:	103b471e 	bne	r2,zero,1021b8 <__alt_data_end+0xfffc21b8>
  10349c:	d8c02017 	ldw	r3,128(sp)
  1034a0:	dc401f17 	ldw	r17,124(sp)
  1034a4:	dd800404 	addi	r22,sp,16
  1034a8:	003e8606 	br	102ec4 <__alt_data_end+0xfffc2ec4>
  1034ac:	0029883a 	mov	r20,zero
  1034b0:	a5000c04 	addi	r20,r20,48
  1034b4:	dc001dc4 	addi	r16,sp,119
  1034b8:	dd001dc5 	stb	r20,119(sp)
  1034bc:	003f3806 	br	1031a0 <__alt_data_end+0xfffc31a0>
  1034c0:	d9402d17 	ldw	r5,180(sp)
  1034c4:	d9801e04 	addi	r6,sp,120
  1034c8:	9809883a 	mov	r4,r19
  1034cc:	010f3ec0 	call	10f3ec <__ssprint_r>
  1034d0:	103b391e 	bne	r2,zero,1021b8 <__alt_data_end+0xfffc21b8>
  1034d4:	d8c02017 	ldw	r3,128(sp)
  1034d8:	da000404 	addi	r8,sp,16
  1034dc:	003c7306 	br	1026ac <__alt_data_end+0xfffc26ac>
  1034e0:	d9003617 	ldw	r4,216(sp)
  1034e4:	d9403717 	ldw	r5,220(sp)
  1034e8:	da003e15 	stw	r8,248(sp)
  1034ec:	010cfc00 	call	10cfc0 <__fpclassifyd>
  1034f0:	da003e17 	ldw	r8,248(sp)
  1034f4:	1000bd1e 	bne	r2,zero,1037ec <___svfprintf_internal_r+0x19d0>
  1034f8:	008011c4 	movi	r2,71
  1034fc:	14411e0e 	bge	r2,r17,103978 <___svfprintf_internal_r+0x1b5c>
  103500:	040004b4 	movhi	r16,18
  103504:	840c8404 	addi	r16,r16,12816
  103508:	00c000c4 	movi	r3,3
  10350c:	00bfdfc4 	movi	r2,-129
  103510:	d8c02915 	stw	r3,164(sp)
  103514:	90a4703a 	and	r18,r18,r2
  103518:	df002783 	ldbu	fp,158(sp)
  10351c:	d8c02b15 	stw	r3,172(sp)
  103520:	d8002a15 	stw	zero,168(sp)
  103524:	d8003215 	stw	zero,200(sp)
  103528:	003bfa06 	br	102514 <__alt_data_end+0xfffc2514>
  10352c:	9080100c 	andi	r2,r18,64
  103530:	d8002785 	stb	zero,158(sp)
  103534:	10009426 	beq	r2,zero,103788 <___svfprintf_internal_r+0x196c>
  103538:	d9402e17 	ldw	r5,184(sp)
  10353c:	d8c02a17 	ldw	r3,168(sp)
  103540:	002d883a 	mov	r22,zero
  103544:	28800104 	addi	r2,r5,4
  103548:	2d00000b 	ldhu	r20,0(r5)
  10354c:	183ec10e 	bge	r3,zero,103054 <__alt_data_end+0xfffc3054>
  103550:	a586b03a 	or	r3,r20,r22
  103554:	d8802e15 	stw	r2,184(sp)
  103558:	183ec21e 	bne	r3,zero,103064 <__alt_data_end+0xfffc3064>
  10355c:	0039883a 	mov	fp,zero
  103560:	0005883a 	mov	r2,zero
  103564:	003db806 	br	102c48 <__alt_data_end+0xfffc2c48>
  103568:	d8c02e17 	ldw	r3,184(sp)
  10356c:	d9002e17 	ldw	r4,184(sp)
  103570:	d9402e17 	ldw	r5,184(sp)
  103574:	18c00017 	ldw	r3,0(r3)
  103578:	21000117 	ldw	r4,4(r4)
  10357c:	29400204 	addi	r5,r5,8
  103580:	d8c03615 	stw	r3,216(sp)
  103584:	d9003715 	stw	r4,220(sp)
  103588:	d9402e15 	stw	r5,184(sp)
  10358c:	003b5a06 	br	1022f8 <__alt_data_end+0xfffc22f8>
  103590:	9080100c 	andi	r2,r18,64
  103594:	10010726 	beq	r2,zero,1039b4 <___svfprintf_internal_r+0x1b98>
  103598:	d8802e17 	ldw	r2,184(sp)
  10359c:	1500000f 	ldh	r20,0(r2)
  1035a0:	10800104 	addi	r2,r2,4
  1035a4:	d8802e15 	stw	r2,184(sp)
  1035a8:	a02dd7fa 	srai	r22,r20,31
  1035ac:	b005883a 	mov	r2,r22
  1035b0:	003b7d06 	br	1023a8 <__alt_data_end+0xfffc23a8>
  1035b4:	9080100c 	andi	r2,r18,64
  1035b8:	10010526 	beq	r2,zero,1039d0 <___svfprintf_internal_r+0x1bb4>
  1035bc:	d8c02e17 	ldw	r3,184(sp)
  1035c0:	002d883a 	mov	r22,zero
  1035c4:	1d00000b 	ldhu	r20,0(r3)
  1035c8:	18c00104 	addi	r3,r3,4
  1035cc:	d8c02e15 	stw	r3,184(sp)
  1035d0:	003ce206 	br	10295c <__alt_data_end+0xfffc295c>
  1035d4:	bc400007 	ldb	r17,0(r23)
  1035d8:	003a6506 	br	101f70 <__alt_data_end+0xfffc1f70>
  1035dc:	9080040c 	andi	r2,r18,16
  1035e0:	10010126 	beq	r2,zero,1039e8 <___svfprintf_internal_r+0x1bcc>
  1035e4:	d8c02e17 	ldw	r3,184(sp)
  1035e8:	d9002f17 	ldw	r4,188(sp)
  1035ec:	18800017 	ldw	r2,0(r3)
  1035f0:	18c00104 	addi	r3,r3,4
  1035f4:	d8c02e15 	stw	r3,184(sp)
  1035f8:	11000015 	stw	r4,0(r2)
  1035fc:	003a3206 	br	101ec8 <__alt_data_end+0xfffc1ec8>
  103600:	d9002a17 	ldw	r4,168(sp)
  103604:	d8002785 	stb	zero,158(sp)
  103608:	203d8d16 	blt	r4,zero,102c40 <__alt_data_end+0xfffc2c40>
  10360c:	00bfdfc4 	movi	r2,-129
  103610:	90a4703a 	and	r18,r18,r2
  103614:	003ad506 	br	10216c <__alt_data_end+0xfffc216c>
  103618:	014004b4 	movhi	r5,18
  10361c:	294c9184 	addi	r5,r5,12870
  103620:	d9402c15 	stw	r5,176(sp)
  103624:	d9402c17 	ldw	r5,176(sp)
  103628:	1c47883a 	add	r3,r3,r17
  10362c:	10800044 	addi	r2,r2,1
  103630:	41400015 	stw	r5,0(r8)
  103634:	44400115 	stw	r17,4(r8)
  103638:	d8c02015 	stw	r3,128(sp)
  10363c:	d8801f15 	stw	r2,124(sp)
  103640:	010001c4 	movi	r4,7
  103644:	20bf3016 	blt	r4,r2,103308 <__alt_data_end+0xfffc3308>
  103648:	42000204 	addi	r8,r8,8
  10364c:	003f3506 	br	103324 <__alt_data_end+0xfffc3324>
  103650:	010004b4 	movhi	r4,18
  103654:	210c9184 	addi	r4,r4,12870
  103658:	d9002c15 	stw	r4,176(sp)
  10365c:	003c3c06 	br	102750 <__alt_data_end+0xfffc2750>
  103660:	d9402d17 	ldw	r5,180(sp)
  103664:	d9801e04 	addi	r6,sp,120
  103668:	9809883a 	mov	r4,r19
  10366c:	010f3ec0 	call	10f3ec <__ssprint_r>
  103670:	103ad11e 	bne	r2,zero,1021b8 <__alt_data_end+0xfffc21b8>
  103674:	d8c02017 	ldw	r3,128(sp)
  103678:	da000404 	addi	r8,sp,16
  10367c:	003d9306 	br	102ccc <__alt_data_end+0xfffc2ccc>
  103680:	d8801f17 	ldw	r2,124(sp)
  103684:	014004b4 	movhi	r5,18
  103688:	01000044 	movi	r4,1
  10368c:	18c00044 	addi	r3,r3,1
  103690:	10800044 	addi	r2,r2,1
  103694:	294c9104 	addi	r5,r5,12868
  103698:	41000115 	stw	r4,4(r8)
  10369c:	41400015 	stw	r5,0(r8)
  1036a0:	d8c02015 	stw	r3,128(sp)
  1036a4:	d8801f15 	stw	r2,124(sp)
  1036a8:	010001c4 	movi	r4,7
  1036ac:	2080b516 	blt	r4,r2,103984 <___svfprintf_internal_r+0x1b68>
  1036b0:	42000204 	addi	r8,r8,8
  1036b4:	8800041e 	bne	r17,zero,1036c8 <___svfprintf_internal_r+0x18ac>
  1036b8:	d8803317 	ldw	r2,204(sp)
  1036bc:	1000021e 	bne	r2,zero,1036c8 <___svfprintf_internal_r+0x18ac>
  1036c0:	9080004c 	andi	r2,r18,1
  1036c4:	103c3926 	beq	r2,zero,1027ac <__alt_data_end+0xfffc27ac>
  1036c8:	d9003817 	ldw	r4,224(sp)
  1036cc:	d8801f17 	ldw	r2,124(sp)
  1036d0:	d9403417 	ldw	r5,208(sp)
  1036d4:	20c7883a 	add	r3,r4,r3
  1036d8:	10800044 	addi	r2,r2,1
  1036dc:	41000115 	stw	r4,4(r8)
  1036e0:	41400015 	stw	r5,0(r8)
  1036e4:	d8c02015 	stw	r3,128(sp)
  1036e8:	d8801f15 	stw	r2,124(sp)
  1036ec:	010001c4 	movi	r4,7
  1036f0:	20818016 	blt	r4,r2,103cf4 <___svfprintf_internal_r+0x1ed8>
  1036f4:	42000204 	addi	r8,r8,8
  1036f8:	0463c83a 	sub	r17,zero,r17
  1036fc:	0440cb0e 	bge	zero,r17,103a2c <___svfprintf_internal_r+0x1c10>
  103700:	05800404 	movi	r22,16
  103704:	b440e80e 	bge	r22,r17,103aa8 <___svfprintf_internal_r+0x1c8c>
  103708:	014004b4 	movhi	r5,18
  10370c:	294c9184 	addi	r5,r5,12870
  103710:	d9402c15 	stw	r5,176(sp)
  103714:	070001c4 	movi	fp,7
  103718:	dd002d17 	ldw	r20,180(sp)
  10371c:	00000306 	br	10372c <___svfprintf_internal_r+0x1910>
  103720:	42000204 	addi	r8,r8,8
  103724:	8c7ffc04 	addi	r17,r17,-16
  103728:	b440e20e 	bge	r22,r17,103ab4 <___svfprintf_internal_r+0x1c98>
  10372c:	18c00404 	addi	r3,r3,16
  103730:	10800044 	addi	r2,r2,1
  103734:	45400015 	stw	r21,0(r8)
  103738:	45800115 	stw	r22,4(r8)
  10373c:	d8c02015 	stw	r3,128(sp)
  103740:	d8801f15 	stw	r2,124(sp)
  103744:	e0bff60e 	bge	fp,r2,103720 <__alt_data_end+0xfffc3720>
  103748:	d9801e04 	addi	r6,sp,120
  10374c:	a00b883a 	mov	r5,r20
  103750:	9809883a 	mov	r4,r19
  103754:	010f3ec0 	call	10f3ec <__ssprint_r>
  103758:	103a971e 	bne	r2,zero,1021b8 <__alt_data_end+0xfffc21b8>
  10375c:	d8c02017 	ldw	r3,128(sp)
  103760:	d8801f17 	ldw	r2,124(sp)
  103764:	da000404 	addi	r8,sp,16
  103768:	003fee06 	br	103724 <__alt_data_end+0xfffc3724>
  10376c:	d9002e17 	ldw	r4,184(sp)
  103770:	d9402a17 	ldw	r5,168(sp)
  103774:	002d883a 	mov	r22,zero
  103778:	20800104 	addi	r2,r4,4
  10377c:	25000017 	ldw	r20,0(r4)
  103780:	283e7d0e 	bge	r5,zero,103178 <__alt_data_end+0xfffc3178>
  103784:	003eda06 	br	1032f0 <__alt_data_end+0xfffc32f0>
  103788:	d9002e17 	ldw	r4,184(sp)
  10378c:	d9402a17 	ldw	r5,168(sp)
  103790:	002d883a 	mov	r22,zero
  103794:	20800104 	addi	r2,r4,4
  103798:	25000017 	ldw	r20,0(r4)
  10379c:	283e2d0e 	bge	r5,zero,103054 <__alt_data_end+0xfffc3054>
  1037a0:	003f6b06 	br	103550 <__alt_data_end+0xfffc3550>
  1037a4:	d8c02e15 	stw	r3,184(sp)
  1037a8:	0039883a 	mov	fp,zero
  1037ac:	003ed206 	br	1032f8 <__alt_data_end+0xfffc32f8>
  1037b0:	bc400043 	ldbu	r17,1(r23)
  1037b4:	84000814 	ori	r16,r16,32
  1037b8:	bdc00044 	addi	r23,r23,1
  1037bc:	8c403fcc 	andi	r17,r17,255
  1037c0:	8c40201c 	xori	r17,r17,128
  1037c4:	8c7fe004 	addi	r17,r17,-128
  1037c8:	0039e906 	br	101f70 <__alt_data_end+0xfffc1f70>
  1037cc:	d9402d17 	ldw	r5,180(sp)
  1037d0:	d9801e04 	addi	r6,sp,120
  1037d4:	9809883a 	mov	r4,r19
  1037d8:	010f3ec0 	call	10f3ec <__ssprint_r>
  1037dc:	103a761e 	bne	r2,zero,1021b8 <__alt_data_end+0xfffc21b8>
  1037e0:	d8c02017 	ldw	r3,128(sp)
  1037e4:	da000404 	addi	r8,sp,16
  1037e8:	003d4a06 	br	102d14 <__alt_data_end+0xfffc2d14>
  1037ec:	d9002a17 	ldw	r4,168(sp)
  1037f0:	05bff7c4 	movi	r22,-33
  1037f4:	00bfffc4 	movi	r2,-1
  1037f8:	8dac703a 	and	r22,r17,r22
  1037fc:	20806a26 	beq	r4,r2,1039a8 <___svfprintf_internal_r+0x1b8c>
  103800:	008011c4 	movi	r2,71
  103804:	b0813726 	beq	r22,r2,103ce4 <___svfprintf_internal_r+0x1ec8>
  103808:	d9003717 	ldw	r4,220(sp)
  10380c:	90c04014 	ori	r3,r18,256
  103810:	d8c02c15 	stw	r3,176(sp)
  103814:	20015d16 	blt	r4,zero,103d8c <___svfprintf_internal_r+0x1f70>
  103818:	dd003717 	ldw	r20,220(sp)
  10381c:	d8002905 	stb	zero,164(sp)
  103820:	00801984 	movi	r2,102
  103824:	88814026 	beq	r17,r2,103d28 <___svfprintf_internal_r+0x1f0c>
  103828:	00801184 	movi	r2,70
  10382c:	88817126 	beq	r17,r2,103df4 <___svfprintf_internal_r+0x1fd8>
  103830:	00801144 	movi	r2,69
  103834:	b0816226 	beq	r22,r2,103dc0 <___svfprintf_internal_r+0x1fa4>
  103838:	d8c02a17 	ldw	r3,168(sp)
  10383c:	d8802104 	addi	r2,sp,132
  103840:	d8800315 	stw	r2,12(sp)
  103844:	d9403617 	ldw	r5,216(sp)
  103848:	d8802504 	addi	r2,sp,148
  10384c:	d8800215 	stw	r2,8(sp)
  103850:	d8802604 	addi	r2,sp,152
  103854:	d8c00015 	stw	r3,0(sp)
  103858:	d8800115 	stw	r2,4(sp)
  10385c:	01c00084 	movi	r7,2
  103860:	a00d883a 	mov	r6,r20
  103864:	9809883a 	mov	r4,r19
  103868:	d8c03d15 	stw	r3,244(sp)
  10386c:	da003e15 	stw	r8,248(sp)
  103870:	01082480 	call	108248 <_dtoa_r>
  103874:	1021883a 	mov	r16,r2
  103878:	008019c4 	movi	r2,103
  10387c:	d8c03d17 	ldw	r3,244(sp)
  103880:	da003e17 	ldw	r8,248(sp)
  103884:	8880e726 	beq	r17,r2,103c24 <___svfprintf_internal_r+0x1e08>
  103888:	008011c4 	movi	r2,71
  10388c:	8880d426 	beq	r17,r2,103be0 <___svfprintf_internal_r+0x1dc4>
  103890:	80f9883a 	add	fp,r16,r3
  103894:	d9003617 	ldw	r4,216(sp)
  103898:	000d883a 	mov	r6,zero
  10389c:	000f883a 	mov	r7,zero
  1038a0:	a00b883a 	mov	r5,r20
  1038a4:	da003e15 	stw	r8,248(sp)
  1038a8:	0116e800 	call	116e80 <__eqdf2>
  1038ac:	da003e17 	ldw	r8,248(sp)
  1038b0:	1000e426 	beq	r2,zero,103c44 <___svfprintf_internal_r+0x1e28>
  1038b4:	d8802117 	ldw	r2,132(sp)
  1038b8:	1700062e 	bgeu	r2,fp,1038d4 <___svfprintf_internal_r+0x1ab8>
  1038bc:	01000c04 	movi	r4,48
  1038c0:	10c00044 	addi	r3,r2,1
  1038c4:	d8c02115 	stw	r3,132(sp)
  1038c8:	11000005 	stb	r4,0(r2)
  1038cc:	d8802117 	ldw	r2,132(sp)
  1038d0:	173ffb36 	bltu	r2,fp,1038c0 <__alt_data_end+0xfffc38c0>
  1038d4:	1405c83a 	sub	r2,r2,r16
  1038d8:	d8803315 	stw	r2,204(sp)
  1038dc:	008011c4 	movi	r2,71
  1038e0:	b080c526 	beq	r22,r2,103bf8 <___svfprintf_internal_r+0x1ddc>
  1038e4:	00801944 	movi	r2,101
  1038e8:	1441d80e 	bge	r2,r17,10404c <___svfprintf_internal_r+0x2230>
  1038ec:	d8c02617 	ldw	r3,152(sp)
  1038f0:	00801984 	movi	r2,102
  1038f4:	d8c03215 	stw	r3,200(sp)
  1038f8:	88813426 	beq	r17,r2,103dcc <___svfprintf_internal_r+0x1fb0>
  1038fc:	d8c03217 	ldw	r3,200(sp)
  103900:	d9003317 	ldw	r4,204(sp)
  103904:	19012516 	blt	r3,r4,103d9c <___svfprintf_internal_r+0x1f80>
  103908:	9480004c 	andi	r18,r18,1
  10390c:	9001841e 	bne	r18,zero,103f20 <___svfprintf_internal_r+0x2104>
  103910:	1805883a 	mov	r2,r3
  103914:	1801cb16 	blt	r3,zero,104044 <___svfprintf_internal_r+0x2228>
  103918:	d8c03217 	ldw	r3,200(sp)
  10391c:	044019c4 	movi	r17,103
  103920:	d8c02b15 	stw	r3,172(sp)
  103924:	df002907 	ldb	fp,164(sp)
  103928:	e000a61e 	bne	fp,zero,103bc4 <___svfprintf_internal_r+0x1da8>
  10392c:	df002783 	ldbu	fp,158(sp)
  103930:	d8802915 	stw	r2,164(sp)
  103934:	dc802c17 	ldw	r18,176(sp)
  103938:	d8002a15 	stw	zero,168(sp)
  10393c:	003af506 	br	102514 <__alt_data_end+0xfffc2514>
  103940:	040004b4 	movhi	r16,18
  103944:	840c8104 	addi	r16,r16,12804
  103948:	003a7e06 	br	102344 <__alt_data_end+0xfffc2344>
  10394c:	d9003917 	ldw	r4,228(sp)
  103950:	04001004 	movi	r16,64
  103954:	800b883a 	mov	r5,r16
  103958:	010acd40 	call	10acd4 <_malloc_r>
  10395c:	d9002d17 	ldw	r4,180(sp)
  103960:	20800015 	stw	r2,0(r4)
  103964:	20800415 	stw	r2,16(r4)
  103968:	1001d026 	beq	r2,zero,1040ac <___svfprintf_internal_r+0x2290>
  10396c:	d8802d17 	ldw	r2,180(sp)
  103970:	14000515 	stw	r16,20(r2)
  103974:	00394406 	br	101e88 <__alt_data_end+0xfffc1e88>
  103978:	040004b4 	movhi	r16,18
  10397c:	840c8304 	addi	r16,r16,12812
  103980:	003ee106 	br	103508 <__alt_data_end+0xfffc3508>
  103984:	d9402d17 	ldw	r5,180(sp)
  103988:	d9801e04 	addi	r6,sp,120
  10398c:	9809883a 	mov	r4,r19
  103990:	010f3ec0 	call	10f3ec <__ssprint_r>
  103994:	103a081e 	bne	r2,zero,1021b8 <__alt_data_end+0xfffc21b8>
  103998:	dc402617 	ldw	r17,152(sp)
  10399c:	d8c02017 	ldw	r3,128(sp)
  1039a0:	da000404 	addi	r8,sp,16
  1039a4:	003f4306 	br	1036b4 <__alt_data_end+0xfffc36b4>
  1039a8:	01400184 	movi	r5,6
  1039ac:	d9402a15 	stw	r5,168(sp)
  1039b0:	003f9506 	br	103808 <__alt_data_end+0xfffc3808>
  1039b4:	d8c02e17 	ldw	r3,184(sp)
  1039b8:	1d000017 	ldw	r20,0(r3)
  1039bc:	18c00104 	addi	r3,r3,4
  1039c0:	d8c02e15 	stw	r3,184(sp)
  1039c4:	a02dd7fa 	srai	r22,r20,31
  1039c8:	b005883a 	mov	r2,r22
  1039cc:	003a7606 	br	1023a8 <__alt_data_end+0xfffc23a8>
  1039d0:	d9002e17 	ldw	r4,184(sp)
  1039d4:	002d883a 	mov	r22,zero
  1039d8:	25000017 	ldw	r20,0(r4)
  1039dc:	21000104 	addi	r4,r4,4
  1039e0:	d9002e15 	stw	r4,184(sp)
  1039e4:	003bdd06 	br	10295c <__alt_data_end+0xfffc295c>
  1039e8:	9480100c 	andi	r18,r18,64
  1039ec:	90006e26 	beq	r18,zero,103ba8 <___svfprintf_internal_r+0x1d8c>
  1039f0:	d9402e17 	ldw	r5,184(sp)
  1039f4:	d8c02f17 	ldw	r3,188(sp)
  1039f8:	28800017 	ldw	r2,0(r5)
  1039fc:	29400104 	addi	r5,r5,4
  103a00:	d9402e15 	stw	r5,184(sp)
  103a04:	10c0000d 	sth	r3,0(r2)
  103a08:	00392f06 	br	101ec8 <__alt_data_end+0xfffc1ec8>
  103a0c:	d9402d17 	ldw	r5,180(sp)
  103a10:	d9801e04 	addi	r6,sp,120
  103a14:	9809883a 	mov	r4,r19
  103a18:	010f3ec0 	call	10f3ec <__ssprint_r>
  103a1c:	1039e61e 	bne	r2,zero,1021b8 <__alt_data_end+0xfffc21b8>
  103a20:	d8c02017 	ldw	r3,128(sp)
  103a24:	d8801f17 	ldw	r2,124(sp)
  103a28:	da000404 	addi	r8,sp,16
  103a2c:	d9403317 	ldw	r5,204(sp)
  103a30:	10800044 	addi	r2,r2,1
  103a34:	44000015 	stw	r16,0(r8)
  103a38:	28c7883a 	add	r3,r5,r3
  103a3c:	003b5506 	br	102794 <__alt_data_end+0xfffc2794>
  103a40:	8009883a 	mov	r4,r16
  103a44:	df003e15 	stw	fp,248(sp)
  103a48:	0101ce00 	call	101ce0 <strlen>
  103a4c:	d8802b15 	stw	r2,172(sp)
  103a50:	da003e17 	ldw	r8,248(sp)
  103a54:	103c160e 	bge	r2,zero,102ab0 <__alt_data_end+0xfffc2ab0>
  103a58:	0005883a 	mov	r2,zero
  103a5c:	003c1406 	br	102ab0 <__alt_data_end+0xfffc2ab0>
  103a60:	00bfffc4 	movi	r2,-1
  103a64:	0039d906 	br	1021cc <__alt_data_end+0xfffc21cc>
  103a68:	010004b4 	movhi	r4,18
  103a6c:	210c9584 	addi	r4,r4,12886
  103a70:	d9003515 	stw	r4,212(sp)
  103a74:	003ae406 	br	102608 <__alt_data_end+0xfffc2608>
  103a78:	013fffc4 	movi	r4,-1
  103a7c:	0039fa06 	br	102268 <__alt_data_end+0xfffc2268>
  103a80:	d9402d17 	ldw	r5,180(sp)
  103a84:	d9801e04 	addi	r6,sp,120
  103a88:	9809883a 	mov	r4,r19
  103a8c:	010f3ec0 	call	10f3ec <__ssprint_r>
  103a90:	1039c91e 	bne	r2,zero,1021b8 <__alt_data_end+0xfffc21b8>
  103a94:	d8c02017 	ldw	r3,128(sp)
  103a98:	da000404 	addi	r8,sp,16
  103a9c:	003d8406 	br	1030b0 <__alt_data_end+0xfffc30b0>
  103aa0:	0023883a 	mov	r17,zero
  103aa4:	003d8306 	br	1030b4 <__alt_data_end+0xfffc30b4>
  103aa8:	010004b4 	movhi	r4,18
  103aac:	210c9184 	addi	r4,r4,12870
  103ab0:	d9002c15 	stw	r4,176(sp)
  103ab4:	d9002c17 	ldw	r4,176(sp)
  103ab8:	1c47883a 	add	r3,r3,r17
  103abc:	10800044 	addi	r2,r2,1
  103ac0:	41000015 	stw	r4,0(r8)
  103ac4:	44400115 	stw	r17,4(r8)
  103ac8:	d8c02015 	stw	r3,128(sp)
  103acc:	d8801f15 	stw	r2,124(sp)
  103ad0:	010001c4 	movi	r4,7
  103ad4:	20bfcd16 	blt	r4,r2,103a0c <__alt_data_end+0xfffc3a0c>
  103ad8:	42000204 	addi	r8,r8,8
  103adc:	003fd306 	br	103a2c <__alt_data_end+0xfffc3a2c>
  103ae0:	d9402d17 	ldw	r5,180(sp)
  103ae4:	d9801e04 	addi	r6,sp,120
  103ae8:	9809883a 	mov	r4,r19
  103aec:	010f3ec0 	call	10f3ec <__ssprint_r>
  103af0:	1039b11e 	bne	r2,zero,1021b8 <__alt_data_end+0xfffc21b8>
  103af4:	d8802617 	ldw	r2,152(sp)
  103af8:	d8c02017 	ldw	r3,128(sp)
  103afc:	da000404 	addi	r8,sp,16
  103b00:	003e1c06 	br	103374 <__alt_data_end+0xfffc3374>
  103b04:	d8802a17 	ldw	r2,168(sp)
  103b08:	00c00184 	movi	r3,6
  103b0c:	1880012e 	bgeu	r3,r2,103b14 <___svfprintf_internal_r+0x1cf8>
  103b10:	1805883a 	mov	r2,r3
  103b14:	d8802b15 	stw	r2,172(sp)
  103b18:	1000f316 	blt	r2,zero,103ee8 <___svfprintf_internal_r+0x20cc>
  103b1c:	040004b4 	movhi	r16,18
  103b20:	d8802915 	stw	r2,164(sp)
  103b24:	dd002e15 	stw	r20,184(sp)
  103b28:	d8002a15 	stw	zero,168(sp)
  103b2c:	d8003215 	stw	zero,200(sp)
  103b30:	840c8f04 	addi	r16,r16,12860
  103b34:	0039883a 	mov	fp,zero
  103b38:	003a7d06 	br	102530 <__alt_data_end+0xfffc2530>
  103b3c:	010004b4 	movhi	r4,18
  103b40:	210c9584 	addi	r4,r4,12886
  103b44:	d9003515 	stw	r4,212(sp)
  103b48:	003b3d06 	br	102840 <__alt_data_end+0xfffc2840>
  103b4c:	d9402d17 	ldw	r5,180(sp)
  103b50:	d9801e04 	addi	r6,sp,120
  103b54:	9809883a 	mov	r4,r19
  103b58:	010f3ec0 	call	10f3ec <__ssprint_r>
  103b5c:	1039961e 	bne	r2,zero,1021b8 <__alt_data_end+0xfffc21b8>
  103b60:	d8802617 	ldw	r2,152(sp)
  103b64:	d9403317 	ldw	r5,204(sp)
  103b68:	d8c02017 	ldw	r3,128(sp)
  103b6c:	da000404 	addi	r8,sp,16
  103b70:	2885c83a 	sub	r2,r5,r2
  103b74:	003e1006 	br	1033b8 <__alt_data_end+0xfffc33b8>
  103b78:	00800044 	movi	r2,1
  103b7c:	10803fcc 	andi	r2,r2,255
  103b80:	00c00044 	movi	r3,1
  103b84:	10fa1026 	beq	r2,r3,1023c8 <__alt_data_end+0xfffc23c8>
  103b88:	00c00084 	movi	r3,2
  103b8c:	10fb8226 	beq	r2,r3,102998 <__alt_data_end+0xfffc2998>
  103b90:	003a4206 	br	10249c <__alt_data_end+0xfffc249c>
  103b94:	0021883a 	mov	r16,zero
  103b98:	003e0806 	br	1033bc <__alt_data_end+0xfffc33bc>
  103b9c:	07000b44 	movi	fp,45
  103ba0:	df002785 	stb	fp,158(sp)
  103ba4:	0039e306 	br	102334 <__alt_data_end+0xfffc2334>
  103ba8:	d9002e17 	ldw	r4,184(sp)
  103bac:	d9402f17 	ldw	r5,188(sp)
  103bb0:	20800017 	ldw	r2,0(r4)
  103bb4:	21000104 	addi	r4,r4,4
  103bb8:	d9002e15 	stw	r4,184(sp)
  103bbc:	11400015 	stw	r5,0(r2)
  103bc0:	0038c106 	br	101ec8 <__alt_data_end+0xfffc1ec8>
  103bc4:	00c00b44 	movi	r3,45
  103bc8:	d8c02785 	stb	r3,158(sp)
  103bcc:	d8802915 	stw	r2,164(sp)
  103bd0:	dc802c17 	ldw	r18,176(sp)
  103bd4:	d8002a15 	stw	zero,168(sp)
  103bd8:	07000b44 	movi	fp,45
  103bdc:	003a5106 	br	102524 <__alt_data_end+0xfffc2524>
  103be0:	9080004c 	andi	r2,r18,1
  103be4:	1000941e 	bne	r2,zero,103e38 <___svfprintf_internal_r+0x201c>
  103be8:	d8802117 	ldw	r2,132(sp)
  103bec:	1405c83a 	sub	r2,r2,r16
  103bf0:	d8803315 	stw	r2,204(sp)
  103bf4:	b441151e 	bne	r22,r17,10404c <___svfprintf_internal_r+0x2230>
  103bf8:	dd802617 	ldw	r22,152(sp)
  103bfc:	00bfff44 	movi	r2,-3
  103c00:	b0801a16 	blt	r22,r2,103c6c <___svfprintf_internal_r+0x1e50>
  103c04:	d9402a17 	ldw	r5,168(sp)
  103c08:	2d801816 	blt	r5,r22,103c6c <___svfprintf_internal_r+0x1e50>
  103c0c:	dd803215 	stw	r22,200(sp)
  103c10:	003f3a06 	br	1038fc <__alt_data_end+0xfffc38fc>
  103c14:	1025883a 	mov	r18,r2
  103c18:	0039883a 	mov	fp,zero
  103c1c:	00800084 	movi	r2,2
  103c20:	003fd606 	br	103b7c <__alt_data_end+0xfffc3b7c>
  103c24:	9080004c 	andi	r2,r18,1
  103c28:	103f191e 	bne	r2,zero,103890 <__alt_data_end+0xfffc3890>
  103c2c:	d8802117 	ldw	r2,132(sp)
  103c30:	003f2806 	br	1038d4 <__alt_data_end+0xfffc38d4>
  103c34:	010004b4 	movhi	r4,18
  103c38:	210c9184 	addi	r4,r4,12870
  103c3c:	d9002c15 	stw	r4,176(sp)
  103c40:	003c7c06 	br	102e34 <__alt_data_end+0xfffc2e34>
  103c44:	e005883a 	mov	r2,fp
  103c48:	003f2206 	br	1038d4 <__alt_data_end+0xfffc38d4>
  103c4c:	d9002a17 	ldw	r4,168(sp)
  103c50:	df002783 	ldbu	fp,158(sp)
  103c54:	dd002e15 	stw	r20,184(sp)
  103c58:	d9002915 	stw	r4,164(sp)
  103c5c:	d9002b15 	stw	r4,172(sp)
  103c60:	d8002a15 	stw	zero,168(sp)
  103c64:	d8003215 	stw	zero,200(sp)
  103c68:	003a2a06 	br	102514 <__alt_data_end+0xfffc2514>
  103c6c:	8c7fff84 	addi	r17,r17,-2
  103c70:	b5bfffc4 	addi	r22,r22,-1
  103c74:	dd802615 	stw	r22,152(sp)
  103c78:	dc4022c5 	stb	r17,139(sp)
  103c7c:	b000c316 	blt	r22,zero,103f8c <___svfprintf_internal_r+0x2170>
  103c80:	00800ac4 	movi	r2,43
  103c84:	d8802305 	stb	r2,140(sp)
  103c88:	00800244 	movi	r2,9
  103c8c:	15806e16 	blt	r2,r22,103e48 <___svfprintf_internal_r+0x202c>
  103c90:	00800c04 	movi	r2,48
  103c94:	b5800c04 	addi	r22,r22,48
  103c98:	d8802345 	stb	r2,141(sp)
  103c9c:	dd802385 	stb	r22,142(sp)
  103ca0:	d88023c4 	addi	r2,sp,143
  103ca4:	df0022c4 	addi	fp,sp,139
  103ca8:	d8c03317 	ldw	r3,204(sp)
  103cac:	1739c83a 	sub	fp,r2,fp
  103cb0:	d9003317 	ldw	r4,204(sp)
  103cb4:	e0c7883a 	add	r3,fp,r3
  103cb8:	df003b15 	stw	fp,236(sp)
  103cbc:	d8c02b15 	stw	r3,172(sp)
  103cc0:	00800044 	movi	r2,1
  103cc4:	1100b70e 	bge	r2,r4,103fa4 <___svfprintf_internal_r+0x2188>
  103cc8:	d8c02b17 	ldw	r3,172(sp)
  103ccc:	18c00044 	addi	r3,r3,1
  103cd0:	d8c02b15 	stw	r3,172(sp)
  103cd4:	1805883a 	mov	r2,r3
  103cd8:	1800b016 	blt	r3,zero,103f9c <___svfprintf_internal_r+0x2180>
  103cdc:	d8003215 	stw	zero,200(sp)
  103ce0:	003f1006 	br	103924 <__alt_data_end+0xfffc3924>
  103ce4:	d8802a17 	ldw	r2,168(sp)
  103ce8:	103ec71e 	bne	r2,zero,103808 <__alt_data_end+0xfffc3808>
  103cec:	dc002a15 	stw	r16,168(sp)
  103cf0:	003ec506 	br	103808 <__alt_data_end+0xfffc3808>
  103cf4:	d9402d17 	ldw	r5,180(sp)
  103cf8:	d9801e04 	addi	r6,sp,120
  103cfc:	9809883a 	mov	r4,r19
  103d00:	010f3ec0 	call	10f3ec <__ssprint_r>
  103d04:	10392c1e 	bne	r2,zero,1021b8 <__alt_data_end+0xfffc21b8>
  103d08:	dc402617 	ldw	r17,152(sp)
  103d0c:	d8c02017 	ldw	r3,128(sp)
  103d10:	d8801f17 	ldw	r2,124(sp)
  103d14:	da000404 	addi	r8,sp,16
  103d18:	003e7706 	br	1036f8 <__alt_data_end+0xfffc36f8>
  103d1c:	182f883a 	mov	r23,r3
  103d20:	d8002a15 	stw	zero,168(sp)
  103d24:	00389306 	br	101f74 <__alt_data_end+0xfffc1f74>
  103d28:	d8c02a17 	ldw	r3,168(sp)
  103d2c:	d8802104 	addi	r2,sp,132
  103d30:	d8800315 	stw	r2,12(sp)
  103d34:	d9403617 	ldw	r5,216(sp)
  103d38:	d8802504 	addi	r2,sp,148
  103d3c:	d8800215 	stw	r2,8(sp)
  103d40:	d8802604 	addi	r2,sp,152
  103d44:	d8c00015 	stw	r3,0(sp)
  103d48:	9809883a 	mov	r4,r19
  103d4c:	d8800115 	stw	r2,4(sp)
  103d50:	01c000c4 	movi	r7,3
  103d54:	a00d883a 	mov	r6,r20
  103d58:	da003e15 	stw	r8,248(sp)
  103d5c:	01082480 	call	108248 <_dtoa_r>
  103d60:	d9002a17 	ldw	r4,168(sp)
  103d64:	da003e17 	ldw	r8,248(sp)
  103d68:	1021883a 	mov	r16,r2
  103d6c:	1139883a 	add	fp,r2,r4
  103d70:	2007883a 	mov	r3,r4
  103d74:	81000007 	ldb	r4,0(r16)
  103d78:	00800c04 	movi	r2,48
  103d7c:	20806f26 	beq	r4,r2,103f3c <___svfprintf_internal_r+0x2120>
  103d80:	d8c02617 	ldw	r3,152(sp)
  103d84:	e0f9883a 	add	fp,fp,r3
  103d88:	003ec206 	br	103894 <__alt_data_end+0xfffc3894>
  103d8c:	00c00b44 	movi	r3,45
  103d90:	2520003c 	xorhi	r20,r4,32768
  103d94:	d8c02905 	stb	r3,164(sp)
  103d98:	003ea106 	br	103820 <__alt_data_end+0xfffc3820>
  103d9c:	d8c03217 	ldw	r3,200(sp)
  103da0:	00c0890e 	bge	zero,r3,103fc8 <___svfprintf_internal_r+0x21ac>
  103da4:	00800044 	movi	r2,1
  103da8:	d9003317 	ldw	r4,204(sp)
  103dac:	1105883a 	add	r2,r2,r4
  103db0:	d8802b15 	stw	r2,172(sp)
  103db4:	10005f16 	blt	r2,zero,103f34 <___svfprintf_internal_r+0x2118>
  103db8:	044019c4 	movi	r17,103
  103dbc:	003ed906 	br	103924 <__alt_data_end+0xfffc3924>
  103dc0:	d9002a17 	ldw	r4,168(sp)
  103dc4:	20c00044 	addi	r3,r4,1
  103dc8:	003e9c06 	br	10383c <__alt_data_end+0xfffc383c>
  103dcc:	d9002a17 	ldw	r4,168(sp)
  103dd0:	00c0680e 	bge	zero,r3,103f74 <___svfprintf_internal_r+0x2158>
  103dd4:	2000461e 	bne	r4,zero,103ef0 <___svfprintf_internal_r+0x20d4>
  103dd8:	9480004c 	andi	r18,r18,1
  103ddc:	9000441e 	bne	r18,zero,103ef0 <___svfprintf_internal_r+0x20d4>
  103de0:	1805883a 	mov	r2,r3
  103de4:	1800a116 	blt	r3,zero,10406c <___svfprintf_internal_r+0x2250>
  103de8:	d8c03217 	ldw	r3,200(sp)
  103dec:	d8c02b15 	stw	r3,172(sp)
  103df0:	003ecc06 	br	103924 <__alt_data_end+0xfffc3924>
  103df4:	d9402a17 	ldw	r5,168(sp)
  103df8:	d8802104 	addi	r2,sp,132
  103dfc:	d8800315 	stw	r2,12(sp)
  103e00:	d9400015 	stw	r5,0(sp)
  103e04:	d8802504 	addi	r2,sp,148
  103e08:	d9403617 	ldw	r5,216(sp)
  103e0c:	d8800215 	stw	r2,8(sp)
  103e10:	d8802604 	addi	r2,sp,152
  103e14:	d8800115 	stw	r2,4(sp)
  103e18:	01c000c4 	movi	r7,3
  103e1c:	a00d883a 	mov	r6,r20
  103e20:	9809883a 	mov	r4,r19
  103e24:	da003e15 	stw	r8,248(sp)
  103e28:	01082480 	call	108248 <_dtoa_r>
  103e2c:	d8c02a17 	ldw	r3,168(sp)
  103e30:	da003e17 	ldw	r8,248(sp)
  103e34:	1021883a 	mov	r16,r2
  103e38:	00801184 	movi	r2,70
  103e3c:	80f9883a 	add	fp,r16,r3
  103e40:	88bfcc26 	beq	r17,r2,103d74 <__alt_data_end+0xfffc3d74>
  103e44:	003e9306 	br	103894 <__alt_data_end+0xfffc3894>
  103e48:	df0022c4 	addi	fp,sp,139
  103e4c:	dc002a15 	stw	r16,168(sp)
  103e50:	9829883a 	mov	r20,r19
  103e54:	e021883a 	mov	r16,fp
  103e58:	4027883a 	mov	r19,r8
  103e5c:	b009883a 	mov	r4,r22
  103e60:	01400284 	movi	r5,10
  103e64:	01158b00 	call	1158b0 <__modsi3>
  103e68:	10800c04 	addi	r2,r2,48
  103e6c:	843fffc4 	addi	r16,r16,-1
  103e70:	b009883a 	mov	r4,r22
  103e74:	01400284 	movi	r5,10
  103e78:	80800005 	stb	r2,0(r16)
  103e7c:	011582c0 	call	11582c <__divsi3>
  103e80:	102d883a 	mov	r22,r2
  103e84:	00800244 	movi	r2,9
  103e88:	15bff416 	blt	r2,r22,103e5c <__alt_data_end+0xfffc3e5c>
  103e8c:	9811883a 	mov	r8,r19
  103e90:	b0800c04 	addi	r2,r22,48
  103e94:	a027883a 	mov	r19,r20
  103e98:	8029883a 	mov	r20,r16
  103e9c:	a17fffc4 	addi	r5,r20,-1
  103ea0:	a0bfffc5 	stb	r2,-1(r20)
  103ea4:	dc002a17 	ldw	r16,168(sp)
  103ea8:	2f00782e 	bgeu	r5,fp,10408c <___svfprintf_internal_r+0x2270>
  103eac:	d9c02384 	addi	r7,sp,142
  103eb0:	3d0fc83a 	sub	r7,r7,r20
  103eb4:	d9002344 	addi	r4,sp,141
  103eb8:	e1cf883a 	add	r7,fp,r7
  103ebc:	00000106 	br	103ec4 <___svfprintf_internal_r+0x20a8>
  103ec0:	28800003 	ldbu	r2,0(r5)
  103ec4:	20800005 	stb	r2,0(r4)
  103ec8:	21000044 	addi	r4,r4,1
  103ecc:	29400044 	addi	r5,r5,1
  103ed0:	21fffb1e 	bne	r4,r7,103ec0 <__alt_data_end+0xfffc3ec0>
  103ed4:	d8802304 	addi	r2,sp,140
  103ed8:	1505c83a 	sub	r2,r2,r20
  103edc:	d8c02344 	addi	r3,sp,141
  103ee0:	1885883a 	add	r2,r3,r2
  103ee4:	003f7006 	br	103ca8 <__alt_data_end+0xfffc3ca8>
  103ee8:	0005883a 	mov	r2,zero
  103eec:	003f0b06 	br	103b1c <__alt_data_end+0xfffc3b1c>
  103ef0:	d9002a17 	ldw	r4,168(sp)
  103ef4:	d8c03217 	ldw	r3,200(sp)
  103ef8:	20800044 	addi	r2,r4,1
  103efc:	1885883a 	add	r2,r3,r2
  103f00:	d8802b15 	stw	r2,172(sp)
  103f04:	103e870e 	bge	r2,zero,103924 <__alt_data_end+0xfffc3924>
  103f08:	0005883a 	mov	r2,zero
  103f0c:	003e8506 	br	103924 <__alt_data_end+0xfffc3924>
  103f10:	010004b4 	movhi	r4,18
  103f14:	210c9184 	addi	r4,r4,12870
  103f18:	d9002c15 	stw	r4,176(sp)
  103f1c:	003cc506 	br	103234 <__alt_data_end+0xfffc3234>
  103f20:	d8c03217 	ldw	r3,200(sp)
  103f24:	18c00044 	addi	r3,r3,1
  103f28:	d8c02b15 	stw	r3,172(sp)
  103f2c:	1805883a 	mov	r2,r3
  103f30:	183fa10e 	bge	r3,zero,103db8 <__alt_data_end+0xfffc3db8>
  103f34:	0005883a 	mov	r2,zero
  103f38:	003f9f06 	br	103db8 <__alt_data_end+0xfffc3db8>
  103f3c:	d9003617 	ldw	r4,216(sp)
  103f40:	000d883a 	mov	r6,zero
  103f44:	000f883a 	mov	r7,zero
  103f48:	a00b883a 	mov	r5,r20
  103f4c:	d8c03d15 	stw	r3,244(sp)
  103f50:	da003e15 	stw	r8,248(sp)
  103f54:	0116e800 	call	116e80 <__eqdf2>
  103f58:	d8c03d17 	ldw	r3,244(sp)
  103f5c:	da003e17 	ldw	r8,248(sp)
  103f60:	103f8726 	beq	r2,zero,103d80 <__alt_data_end+0xfffc3d80>
  103f64:	00800044 	movi	r2,1
  103f68:	10c7c83a 	sub	r3,r2,r3
  103f6c:	d8c02615 	stw	r3,152(sp)
  103f70:	003f8406 	br	103d84 <__alt_data_end+0xfffc3d84>
  103f74:	20000e1e 	bne	r4,zero,103fb0 <___svfprintf_internal_r+0x2194>
  103f78:	9480004c 	andi	r18,r18,1
  103f7c:	90000c1e 	bne	r18,zero,103fb0 <___svfprintf_internal_r+0x2194>
  103f80:	00800044 	movi	r2,1
  103f84:	d8802b15 	stw	r2,172(sp)
  103f88:	003e6606 	br	103924 <__alt_data_end+0xfffc3924>
  103f8c:	00800b44 	movi	r2,45
  103f90:	05adc83a 	sub	r22,zero,r22
  103f94:	d8802305 	stb	r2,140(sp)
  103f98:	003f3b06 	br	103c88 <__alt_data_end+0xfffc3c88>
  103f9c:	0005883a 	mov	r2,zero
  103fa0:	003f4e06 	br	103cdc <__alt_data_end+0xfffc3cdc>
  103fa4:	90a4703a 	and	r18,r18,r2
  103fa8:	903f4a26 	beq	r18,zero,103cd4 <__alt_data_end+0xfffc3cd4>
  103fac:	003f4606 	br	103cc8 <__alt_data_end+0xfffc3cc8>
  103fb0:	d8c02a17 	ldw	r3,168(sp)
  103fb4:	18c00084 	addi	r3,r3,2
  103fb8:	d8c02b15 	stw	r3,172(sp)
  103fbc:	1805883a 	mov	r2,r3
  103fc0:	183e580e 	bge	r3,zero,103924 <__alt_data_end+0xfffc3924>
  103fc4:	003fd006 	br	103f08 <__alt_data_end+0xfffc3f08>
  103fc8:	00800084 	movi	r2,2
  103fcc:	10c5c83a 	sub	r2,r2,r3
  103fd0:	003f7506 	br	103da8 <__alt_data_end+0xfffc3da8>
  103fd4:	d9402e17 	ldw	r5,184(sp)
  103fd8:	d9002e17 	ldw	r4,184(sp)
  103fdc:	bc400043 	ldbu	r17,1(r23)
  103fe0:	29400017 	ldw	r5,0(r5)
  103fe4:	20800104 	addi	r2,r4,4
  103fe8:	d8802e15 	stw	r2,184(sp)
  103fec:	d9402a15 	stw	r5,168(sp)
  103ff0:	182f883a 	mov	r23,r3
  103ff4:	283df10e 	bge	r5,zero,1037bc <__alt_data_end+0xfffc37bc>
  103ff8:	8c403fcc 	andi	r17,r17,255
  103ffc:	017fffc4 	movi	r5,-1
  104000:	8c40201c 	xori	r17,r17,128
  104004:	d9402a15 	stw	r5,168(sp)
  104008:	8c7fe004 	addi	r17,r17,-128
  10400c:	0037d806 	br	101f70 <__alt_data_end+0xfffc1f70>
  104010:	9080004c 	andi	r2,r18,1
  104014:	0039883a 	mov	fp,zero
  104018:	10000726 	beq	r2,zero,104038 <___svfprintf_internal_r+0x221c>
  10401c:	d8c02817 	ldw	r3,160(sp)
  104020:	dc001dc4 	addi	r16,sp,119
  104024:	00800c04 	movi	r2,48
  104028:	1c07c83a 	sub	r3,r3,r16
  10402c:	d8801dc5 	stb	r2,119(sp)
  104030:	d8c02b15 	stw	r3,172(sp)
  104034:	00393106 	br	1024fc <__alt_data_end+0xfffc24fc>
  104038:	d8002b15 	stw	zero,172(sp)
  10403c:	dc001e04 	addi	r16,sp,120
  104040:	00392e06 	br	1024fc <__alt_data_end+0xfffc24fc>
  104044:	0005883a 	mov	r2,zero
  104048:	003e3306 	br	103918 <__alt_data_end+0xfffc3918>
  10404c:	dd802617 	ldw	r22,152(sp)
  104050:	003f0706 	br	103c70 <__alt_data_end+0xfffc3c70>
  104054:	d8c02b03 	ldbu	r3,172(sp)
  104058:	d8c02785 	stb	r3,158(sp)
  10405c:	003a3506 	br	102934 <__alt_data_end+0xfffc2934>
  104060:	d8c02b03 	ldbu	r3,172(sp)
  104064:	d8c02785 	stb	r3,158(sp)
  104068:	003a1706 	br	1028c8 <__alt_data_end+0xfffc28c8>
  10406c:	0005883a 	mov	r2,zero
  104070:	003f5d06 	br	103de8 <__alt_data_end+0xfffc3de8>
  104074:	d8c02b03 	ldbu	r3,172(sp)
  104078:	d8c02785 	stb	r3,158(sp)
  10407c:	0038f306 	br	10244c <__alt_data_end+0xfffc244c>
  104080:	d8c02b03 	ldbu	r3,172(sp)
  104084:	d8c02785 	stb	r3,158(sp)
  104088:	0038be06 	br	102384 <__alt_data_end+0xfffc2384>
  10408c:	d8802344 	addi	r2,sp,141
  104090:	003f0506 	br	103ca8 <__alt_data_end+0xfffc3ca8>
  104094:	d8c02b03 	ldbu	r3,172(sp)
  104098:	d8c02785 	stb	r3,158(sp)
  10409c:	00388b06 	br	1022cc <__alt_data_end+0xfffc22cc>
  1040a0:	d8c02b03 	ldbu	r3,172(sp)
  1040a4:	d8c02785 	stb	r3,158(sp)
  1040a8:	003ad706 	br	102c08 <__alt_data_end+0xfffc2c08>
  1040ac:	d9403917 	ldw	r5,228(sp)
  1040b0:	00800304 	movi	r2,12
  1040b4:	28800015 	stw	r2,0(r5)
  1040b8:	00bfffc4 	movi	r2,-1
  1040bc:	00384306 	br	1021cc <__alt_data_end+0xfffc21cc>
  1040c0:	d8c02b03 	ldbu	r3,172(sp)
  1040c4:	d8c02785 	stb	r3,158(sp)
  1040c8:	003ab606 	br	102ba4 <__alt_data_end+0xfffc2ba4>
  1040cc:	d8c02b03 	ldbu	r3,172(sp)
  1040d0:	d8c02785 	stb	r3,158(sp)
  1040d4:	003a8906 	br	102afc <__alt_data_end+0xfffc2afc>

001040d8 <__ssvfscanf_r>:
  1040d8:	2880030b 	ldhu	r2,12(r5)
  1040dc:	deff4b04 	addi	sp,sp,-724
  1040e0:	df00b315 	stw	fp,716(sp)
  1040e4:	ddc0b215 	stw	r23,712(sp)
  1040e8:	dfc0b415 	stw	ra,720(sp)
  1040ec:	dd80b115 	stw	r22,708(sp)
  1040f0:	dd40b015 	stw	r21,704(sp)
  1040f4:	dd00af15 	stw	r20,700(sp)
  1040f8:	dcc0ae15 	stw	r19,696(sp)
  1040fc:	dc80ad15 	stw	r18,692(sp)
  104100:	dc40ac15 	stw	r17,688(sp)
  104104:	dc00ab15 	stw	r16,684(sp)
  104108:	10c8000c 	andi	r3,r2,8192
  10410c:	d9c09c15 	stw	r7,624(sp)
  104110:	2839883a 	mov	fp,r5
  104114:	202f883a 	mov	r23,r4
  104118:	1800061e 	bne	r3,zero,104134 <__ssvfscanf_r+0x5c>
  10411c:	29001917 	ldw	r4,100(r5)
  104120:	00f7ffc4 	movi	r3,-8193
  104124:	10880014 	ori	r2,r2,8192
  104128:	20c6703a 	and	r3,r4,r3
  10412c:	2880030d 	sth	r2,12(r5)
  104130:	28c01915 	stw	r3,100(r5)
  104134:	30800003 	ldbu	r2,0(r6)
  104138:	0021883a 	mov	r16,zero
  10413c:	058004b4 	movhi	r22,18
  104140:	d800a115 	stw	zero,644(sp)
  104144:	d8009e15 	stw	zero,632(sp)
  104148:	d800a015 	stw	zero,640(sp)
  10414c:	d8809b15 	stw	r2,620(sp)
  104150:	b5956c04 	addi	r22,r22,21936
  104154:	8025883a 	mov	r18,r16
  104158:	e027883a 	mov	r19,fp
  10415c:	35000044 	addi	r20,r6,1
  104160:	10001e26 	beq	r2,zero,1041dc <__ssvfscanf_r+0x104>
  104164:	b4000017 	ldw	r16,0(r22)
  104168:	8087883a 	add	r3,r16,r2
  10416c:	18c00043 	ldbu	r3,1(r3)
  104170:	18c0020c 	andi	r3,r3,8
  104174:	18001b26 	beq	r3,zero,1041e4 <__ssvfscanf_r+0x10c>
  104178:	98800117 	ldw	r2,4(r19)
  10417c:	00800e0e 	bge	zero,r2,1041b8 <__ssvfscanf_r+0xe0>
  104180:	98c00017 	ldw	r3,0(r19)
  104184:	b1000017 	ldw	r4,0(r22)
  104188:	18800003 	ldbu	r2,0(r3)
  10418c:	2085883a 	add	r2,r4,r2
  104190:	10800043 	ldbu	r2,1(r2)
  104194:	1080020c 	andi	r2,r2,8
  104198:	10000b26 	beq	r2,zero,1041c8 <__ssvfscanf_r+0xf0>
  10419c:	98800117 	ldw	r2,4(r19)
  1041a0:	18c00044 	addi	r3,r3,1
  1041a4:	98c00015 	stw	r3,0(r19)
  1041a8:	10bfffc4 	addi	r2,r2,-1
  1041ac:	98800115 	stw	r2,4(r19)
  1041b0:	94800044 	addi	r18,r18,1
  1041b4:	00bff216 	blt	zero,r2,104180 <__alt_data_end+0xfffc4180>
  1041b8:	980b883a 	mov	r5,r19
  1041bc:	b809883a 	mov	r4,r23
  1041c0:	0110a640 	call	110a64 <__ssrefill_r>
  1041c4:	103fee26 	beq	r2,zero,104180 <__alt_data_end+0xfffc4180>
  1041c8:	a00d883a 	mov	r6,r20
  1041cc:	30800003 	ldbu	r2,0(r6)
  1041d0:	35000044 	addi	r20,r6,1
  1041d4:	d8809b15 	stw	r2,620(sp)
  1041d8:	103fe21e 	bne	r2,zero,104164 <__alt_data_end+0xfffc4164>
  1041dc:	d880a017 	ldw	r2,640(sp)
  1041e0:	00009a06 	br	10444c <__ssvfscanf_r+0x374>
  1041e4:	00c00944 	movi	r3,37
  1041e8:	10c0891e 	bne	r2,r3,104410 <__ssvfscanf_r+0x338>
  1041ec:	0039883a 	mov	fp,zero
  1041f0:	35400043 	ldbu	r21,1(r6)
  1041f4:	0023883a 	mov	r17,zero
  1041f8:	01801e04 	movi	r6,120
  1041fc:	00c01b04 	movi	r3,108
  104200:	e009883a 	mov	r4,fp
  104204:	a1c00044 	addi	r7,r20,1
  104208:	3540a236 	bltu	r6,r21,104494 <__ssvfscanf_r+0x3bc>
  10420c:	a80490ba 	slli	r2,r21,2
  104210:	01400434 	movhi	r5,16
  104214:	29508904 	addi	r5,r5,16932
  104218:	1145883a 	add	r2,r2,r5
  10421c:	10800017 	ldw	r2,0(r2)
  104220:	1000683a 	jmp	r2
  104224:	00104448 	cmpgei	zero,zero,16657
  104228:	00104494 	movui	zero,16658
  10422c:	00104494 	movui	zero,16658
  104230:	00104494 	movui	zero,16658
  104234:	00104494 	movui	zero,16658
  104238:	00104494 	movui	zero,16658
  10423c:	00104494 	movui	zero,16658
  104240:	00104494 	movui	zero,16658
  104244:	00104494 	movui	zero,16658
  104248:	00104494 	movui	zero,16658
  10424c:	00104494 	movui	zero,16658
  104250:	00104494 	movui	zero,16658
  104254:	00104494 	movui	zero,16658
  104258:	00104494 	movui	zero,16658
  10425c:	00104494 	movui	zero,16658
  104260:	00104494 	movui	zero,16658
  104264:	00104494 	movui	zero,16658
  104268:	00104494 	movui	zero,16658
  10426c:	00104494 	movui	zero,16658
  104270:	00104494 	movui	zero,16658
  104274:	00104494 	movui	zero,16658
  104278:	00104494 	movui	zero,16658
  10427c:	00104494 	movui	zero,16658
  104280:	00104494 	movui	zero,16658
  104284:	00104494 	movui	zero,16658
  104288:	00104494 	movui	zero,16658
  10428c:	00104494 	movui	zero,16658
  104290:	00104494 	movui	zero,16658
  104294:	00104494 	movui	zero,16658
  104298:	00104494 	movui	zero,16658
  10429c:	00104494 	movui	zero,16658
  1042a0:	00104494 	movui	zero,16658
  1042a4:	00104494 	movui	zero,16658
  1042a8:	00104494 	movui	zero,16658
  1042ac:	00104494 	movui	zero,16658
  1042b0:	00104494 	movui	zero,16658
  1042b4:	00104494 	movui	zero,16658
  1042b8:	00104408 	cmpgei	zero,zero,16656
  1042bc:	00104494 	movui	zero,16658
  1042c0:	00104494 	movui	zero,16658
  1042c4:	00104494 	movui	zero,16658
  1042c8:	00104494 	movui	zero,16658
  1042cc:	0010447c 	xorhi	zero,zero,16657
  1042d0:	00104494 	movui	zero,16658
  1042d4:	00104494 	movui	zero,16658
  1042d8:	00104494 	movui	zero,16658
  1042dc:	00104494 	movui	zero,16658
  1042e0:	00104494 	movui	zero,16658
  1042e4:	001045dc 	xori	zero,zero,16663
  1042e8:	001045dc 	xori	zero,zero,16663
  1042ec:	001045dc 	xori	zero,zero,16663
  1042f0:	001045dc 	xori	zero,zero,16663
  1042f4:	001045dc 	xori	zero,zero,16663
  1042f8:	001045dc 	xori	zero,zero,16663
  1042fc:	001045dc 	xori	zero,zero,16663
  104300:	001045dc 	xori	zero,zero,16663
  104304:	001045dc 	xori	zero,zero,16663
  104308:	001045dc 	xori	zero,zero,16663
  10430c:	00104494 	movui	zero,16658
  104310:	00104494 	movui	zero,16658
  104314:	00104494 	movui	zero,16658
  104318:	00104494 	movui	zero,16658
  10431c:	00104494 	movui	zero,16658
  104320:	00104494 	movui	zero,16658
  104324:	00104494 	movui	zero,16658
  104328:	00104494 	movui	zero,16658
  10432c:	00104494 	movui	zero,16658
  104330:	00104494 	movui	zero,16658
  104334:	001045ac 	andhi	zero,zero,16662
  104338:	00104688 	cmpgei	zero,zero,16666
  10433c:	00104494 	movui	zero,16658
  104340:	00104688 	cmpgei	zero,zero,16666
  104344:	00104494 	movui	zero,16658
  104348:	00104494 	movui	zero,16658
  10434c:	00104494 	movui	zero,16658
  104350:	00104494 	movui	zero,16658
  104354:	00104674 	movhi	zero,16665
  104358:	00104494 	movui	zero,16658
  10435c:	00104494 	movui	zero,16658
  104360:	00104644 	movi	zero,16665
  104364:	00104494 	movui	zero,16658
  104368:	00104494 	movui	zero,16658
  10436c:	00104494 	movui	zero,16658
  104370:	00104494 	movui	zero,16658
  104374:	00104494 	movui	zero,16658
  104378:	00104494 	movui	zero,16658
  10437c:	00104494 	movui	zero,16658
  104380:	00104494 	movui	zero,16658
  104384:	00104614 	movui	zero,16664
  104388:	00104494 	movui	zero,16658
  10438c:	00104494 	movui	zero,16658
  104390:	001047d0 	cmplti	zero,zero,16671
  104394:	00104494 	movui	zero,16658
  104398:	00104494 	movui	zero,16658
  10439c:	00104494 	movui	zero,16658
  1043a0:	00104494 	movui	zero,16658
  1043a4:	00104494 	movui	zero,16658
  1043a8:	00104494 	movui	zero,16658
  1043ac:	00104494 	movui	zero,16658
  1043b0:	00104750 	cmplti	zero,zero,16669
  1043b4:	00104724 	muli	zero,zero,16668
  1043b8:	00104688 	cmpgei	zero,zero,16666
  1043bc:	00104688 	cmpgei	zero,zero,16666
  1043c0:	00104688 	cmpgei	zero,zero,16666
  1043c4:	00104710 	cmplti	zero,zero,16668
  1043c8:	00104860 	cmpeqi	zero,zero,16673
  1043cc:	00104494 	movui	zero,16658
  1043d0:	00104494 	movui	zero,16658
  1043d4:	001046fc 	xorhi	zero,zero,16667
  1043d8:	00104494 	movui	zero,16658
  1043dc:	001046cc 	andi	zero,zero,16667
  1043e0:	001046a0 	cmpeqi	zero,zero,16666
  1043e4:	0010457c 	xorhi	zero,zero,16661
  1043e8:	00104494 	movui	zero,16658
  1043ec:	00104494 	movui	zero,16658
  1043f0:	00104564 	muli	zero,zero,16661
  1043f4:	00104494 	movui	zero,16658
  1043f8:	001044e8 	cmpgeui	zero,zero,16659
  1043fc:	00104494 	movui	zero,16658
  104400:	00104494 	movui	zero,16658
  104404:	00104614 	movui	zero,16664
  104408:	d9c09d15 	stw	r7,628(sp)
  10440c:	3829883a 	mov	r20,r7
  104410:	98800117 	ldw	r2,4(r19)
  104414:	0081c60e 	bge	zero,r2,104b30 <__ssvfscanf_r+0xa58>
  104418:	98800017 	ldw	r2,0(r19)
  10441c:	a0ffffc3 	ldbu	r3,-1(r20)
  104420:	11000003 	ldbu	r4,0(r2)
  104424:	20ff6d1e 	bne	r4,r3,1041dc <__alt_data_end+0xfffc41dc>
  104428:	98c00117 	ldw	r3,4(r19)
  10442c:	10800044 	addi	r2,r2,1
  104430:	98800015 	stw	r2,0(r19)
  104434:	18bfffc4 	addi	r2,r3,-1
  104438:	98800115 	stw	r2,4(r19)
  10443c:	94800044 	addi	r18,r18,1
  104440:	a00d883a 	mov	r6,r20
  104444:	003f6106 	br	1041cc <__alt_data_end+0xfffc41cc>
  104448:	00bfffc4 	movi	r2,-1
  10444c:	dfc0b417 	ldw	ra,720(sp)
  104450:	df00b317 	ldw	fp,716(sp)
  104454:	ddc0b217 	ldw	r23,712(sp)
  104458:	dd80b117 	ldw	r22,708(sp)
  10445c:	dd40b017 	ldw	r21,704(sp)
  104460:	dd00af17 	ldw	r20,700(sp)
  104464:	dcc0ae17 	ldw	r19,696(sp)
  104468:	dc80ad17 	ldw	r18,692(sp)
  10446c:	dc40ac17 	ldw	r17,688(sp)
  104470:	dc00ab17 	ldw	r16,684(sp)
  104474:	dec0b504 	addi	sp,sp,724
  104478:	f800283a 	ret
  10447c:	a1400043 	ldbu	r5,1(r20)
  104480:	3829883a 	mov	r20,r7
  104484:	8c400414 	ori	r17,r17,16
  104488:	2d403fcc 	andi	r21,r5,255
  10448c:	a1c00044 	addi	r7,r20,1
  104490:	357f5e2e 	bgeu	r6,r21,10420c <__alt_data_end+0xfffc420c>
  104494:	856b883a 	add	r21,r16,r21
  104498:	a8800043 	ldbu	r2,1(r21)
  10449c:	d9c09d15 	stw	r7,628(sp)
  1044a0:	00c00044 	movi	r3,1
  1044a4:	108000cc 	andi	r2,r2,3
  1044a8:	2039883a 	mov	fp,r4
  1044ac:	10c1a526 	beq	r2,r3,104b44 <__ssvfscanf_r+0xa6c>
  1044b0:	98800117 	ldw	r2,4(r19)
  1044b4:	00804216 	blt	zero,r2,1045c0 <__ssvfscanf_r+0x4e8>
  1044b8:	980b883a 	mov	r5,r19
  1044bc:	b809883a 	mov	r4,r23
  1044c0:	0110a640 	call	110a64 <__ssrefill_r>
  1044c4:	10015e1e 	bne	r2,zero,104a40 <__ssvfscanf_r+0x968>
  1044c8:	01000474 	movhi	r4,17
  1044cc:	213a3004 	addi	r4,r4,-5952
  1044d0:	01400284 	movi	r5,10
  1044d4:	b4000017 	ldw	r16,0(r22)
  1044d8:	d900a115 	stw	r4,644(sp)
  1044dc:	d9409e15 	stw	r5,632(sp)
  1044e0:	050000c4 	movi	r20,3
  1044e4:	00000a06 	br	104510 <__ssvfscanf_r+0x438>
  1044e8:	98800117 	ldw	r2,4(r19)
  1044ec:	d9c09d15 	stw	r7,628(sp)
  1044f0:	2039883a 	mov	fp,r4
  1044f4:	0081e20e 	bge	zero,r2,104c80 <__ssvfscanf_r+0xba8>
  1044f8:	00c00474 	movhi	r3,17
  1044fc:	18fb8e04 	addi	r3,r3,-4552
  104500:	01000284 	movi	r4,10
  104504:	d8c0a115 	stw	r3,644(sp)
  104508:	d9009e15 	stw	r4,632(sp)
  10450c:	050000c4 	movi	r20,3
  104510:	98c00017 	ldw	r3,0(r19)
  104514:	00000206 	br	104520 <__ssvfscanf_r+0x448>
  104518:	18c00044 	addi	r3,r3,1
  10451c:	98c00015 	stw	r3,0(r19)
  104520:	19000003 	ldbu	r4,0(r3)
  104524:	20803fcc 	andi	r2,r4,255
  104528:	8085883a 	add	r2,r16,r2
  10452c:	10800043 	ldbu	r2,1(r2)
  104530:	1140020c 	andi	r5,r2,8
  104534:	28020126 	beq	r5,zero,104d3c <__ssvfscanf_r+0xc64>
  104538:	98800117 	ldw	r2,4(r19)
  10453c:	94800044 	addi	r18,r18,1
  104540:	10bfffc4 	addi	r2,r2,-1
  104544:	98800115 	stw	r2,4(r19)
  104548:	00bff316 	blt	zero,r2,104518 <__alt_data_end+0xfffc4518>
  10454c:	980b883a 	mov	r5,r19
  104550:	b809883a 	mov	r4,r23
  104554:	0110a640 	call	110a64 <__ssrefill_r>
  104558:	1001391e 	bne	r2,zero,104a40 <__ssvfscanf_r+0x968>
  10455c:	b4000017 	ldw	r16,0(r22)
  104560:	003feb06 	br	104510 <__alt_data_end+0xfffc4510>
  104564:	98800117 	ldw	r2,4(r19)
  104568:	d9c09d15 	stw	r7,628(sp)
  10456c:	2039883a 	mov	fp,r4
  104570:	0081aa0e 	bge	zero,r2,104c1c <__ssvfscanf_r+0xb44>
  104574:	05000084 	movi	r20,2
  104578:	003fe506 	br	104510 <__alt_data_end+0xfffc4510>
  10457c:	98800117 	ldw	r2,4(r19)
  104580:	d9c09d15 	stw	r7,628(sp)
  104584:	2039883a 	mov	fp,r4
  104588:	8c408814 	ori	r17,r17,544
  10458c:	0081df0e 	bge	zero,r2,104d0c <__ssvfscanf_r+0xc34>
  104590:	00c00474 	movhi	r3,17
  104594:	18fb8e04 	addi	r3,r3,-4552
  104598:	01000404 	movi	r4,16
  10459c:	d8c0a115 	stw	r3,644(sp)
  1045a0:	d9009e15 	stw	r4,632(sp)
  1045a4:	050000c4 	movi	r20,3
  1045a8:	003fd906 	br	104510 <__alt_data_end+0xfffc4510>
  1045ac:	98800117 	ldw	r2,4(r19)
  1045b0:	d9c09d15 	stw	r7,628(sp)
  1045b4:	2039883a 	mov	fp,r4
  1045b8:	8c400054 	ori	r17,r17,1
  1045bc:	0081850e 	bge	zero,r2,104bd4 <__ssvfscanf_r+0xafc>
  1045c0:	00c00474 	movhi	r3,17
  1045c4:	18fa3004 	addi	r3,r3,-5952
  1045c8:	01000284 	movi	r4,10
  1045cc:	d8c0a115 	stw	r3,644(sp)
  1045d0:	d9009e15 	stw	r4,632(sp)
  1045d4:	050000c4 	movi	r20,3
  1045d8:	003fcd06 	br	104510 <__alt_data_end+0xfffc4510>
  1045dc:	01400284 	movi	r5,10
  1045e0:	d8c0a615 	stw	r3,664(sp)
  1045e4:	d980a915 	stw	r6,676(sp)
  1045e8:	d9c0aa15 	stw	r7,680(sp)
  1045ec:	01159e00 	call	1159e0 <__mulsi3>
  1045f0:	a1400043 	ldbu	r5,1(r20)
  1045f4:	d9c0aa17 	ldw	r7,680(sp)
  1045f8:	1545883a 	add	r2,r2,r21
  1045fc:	113ff404 	addi	r4,r2,-48
  104600:	3829883a 	mov	r20,r7
  104604:	2d403fcc 	andi	r21,r5,255
  104608:	d8c0a617 	ldw	r3,664(sp)
  10460c:	d980a917 	ldw	r6,676(sp)
  104610:	003efc06 	br	104204 <__alt_data_end+0xfffc4204>
  104614:	98800117 	ldw	r2,4(r19)
  104618:	d9c09d15 	stw	r7,628(sp)
  10461c:	2039883a 	mov	fp,r4
  104620:	8c408014 	ori	r17,r17,512
  104624:	0081710e 	bge	zero,r2,104bec <__ssvfscanf_r+0xb14>
  104628:	01400474 	movhi	r5,17
  10462c:	297b8e04 	addi	r5,r5,-4552
  104630:	00800404 	movi	r2,16
  104634:	d940a115 	stw	r5,644(sp)
  104638:	d8809e15 	stw	r2,632(sp)
  10463c:	050000c4 	movi	r20,3
  104640:	003fb306 	br	104510 <__alt_data_end+0xfffc4510>
  104644:	98800117 	ldw	r2,4(r19)
  104648:	d9c09d15 	stw	r7,628(sp)
  10464c:	2039883a 	mov	fp,r4
  104650:	8c400054 	ori	r17,r17,1
  104654:	0081840e 	bge	zero,r2,104c68 <__ssvfscanf_r+0xb90>
  104658:	01400474 	movhi	r5,17
  10465c:	297b8e04 	addi	r5,r5,-4552
  104660:	00800204 	movi	r2,8
  104664:	d940a115 	stw	r5,644(sp)
  104668:	d8809e15 	stw	r2,632(sp)
  10466c:	050000c4 	movi	r20,3
  104670:	003fa706 	br	104510 <__alt_data_end+0xfffc4510>
  104674:	a1400043 	ldbu	r5,1(r20)
  104678:	8c400094 	ori	r17,r17,2
  10467c:	3829883a 	mov	r20,r7
  104680:	2d403fcc 	andi	r21,r5,255
  104684:	003edf06 	br	104204 <__alt_data_end+0xfffc4204>
  104688:	98800117 	ldw	r2,4(r19)
  10468c:	d9c09d15 	stw	r7,628(sp)
  104690:	2039883a 	mov	fp,r4
  104694:	00816d0e 	bge	zero,r2,104c4c <__ssvfscanf_r+0xb74>
  104698:	05000104 	movi	r20,4
  10469c:	003f9c06 	br	104510 <__alt_data_end+0xfffc4510>
  1046a0:	98800117 	ldw	r2,4(r19)
  1046a4:	d9c09d15 	stw	r7,628(sp)
  1046a8:	2039883a 	mov	fp,r4
  1046ac:	0081800e 	bge	zero,r2,104cb0 <__ssvfscanf_r+0xbd8>
  1046b0:	01000474 	movhi	r4,17
  1046b4:	213b8e04 	addi	r4,r4,-4552
  1046b8:	01400204 	movi	r5,8
  1046bc:	d900a115 	stw	r4,644(sp)
  1046c0:	d9409e15 	stw	r5,632(sp)
  1046c4:	050000c4 	movi	r20,3
  1046c8:	003f9106 	br	104510 <__alt_data_end+0xfffc4510>
  1046cc:	d9c09d15 	stw	r7,628(sp)
  1046d0:	8880040c 	andi	r2,r17,16
  1046d4:	1000a01e 	bne	r2,zero,104958 <__ssvfscanf_r+0x880>
  1046d8:	8880010c 	andi	r2,r17,4
  1046dc:	10012826 	beq	r2,zero,104b80 <__ssvfscanf_r+0xaa8>
  1046e0:	d9009c17 	ldw	r4,624(sp)
  1046e4:	3829883a 	mov	r20,r7
  1046e8:	20800017 	ldw	r2,0(r4)
  1046ec:	21000104 	addi	r4,r4,4
  1046f0:	d9009c15 	stw	r4,624(sp)
  1046f4:	1480000d 	sth	r18,0(r2)
  1046f8:	003eb306 	br	1041c8 <__alt_data_end+0xfffc41c8>
  1046fc:	a5400043 	ldbu	r21,1(r20)
  104700:	a8c11a26 	beq	r21,r3,104b6c <__ssvfscanf_r+0xa94>
  104704:	8c400054 	ori	r17,r17,1
  104708:	3829883a 	mov	r20,r7
  10470c:	003ebd06 	br	104204 <__alt_data_end+0xfffc4204>
  104710:	a1400043 	ldbu	r5,1(r20)
  104714:	8c400114 	ori	r17,r17,4
  104718:	3829883a 	mov	r20,r7
  10471c:	2d403fcc 	andi	r21,r5,255
  104720:	003eb806 	br	104204 <__alt_data_end+0xfffc4204>
  104724:	98800117 	ldw	r2,4(r19)
  104728:	d9c09d15 	stw	r7,628(sp)
  10472c:	2039883a 	mov	fp,r4
  104730:	00bf610e 	bge	zero,r2,1044b8 <__alt_data_end+0xfffc44b8>
  104734:	00800474 	movhi	r2,17
  104738:	10ba3004 	addi	r2,r2,-5952
  10473c:	00c00284 	movi	r3,10
  104740:	d880a115 	stw	r2,644(sp)
  104744:	d8c09e15 	stw	r3,632(sp)
  104748:	050000c4 	movi	r20,3
  10474c:	003f7006 	br	104510 <__alt_data_end+0xfffc4510>
  104750:	98800117 	ldw	r2,4(r19)
  104754:	d9c09d15 	stw	r7,628(sp)
  104758:	2039883a 	mov	fp,r4
  10475c:	0080c60e 	bge	zero,r2,104a78 <__ssvfscanf_r+0x9a0>
  104760:	e000011e 	bne	fp,zero,104768 <__ssvfscanf_r+0x690>
  104764:	07000044 	movi	fp,1
  104768:	8880004c 	andi	r2,r17,1
  10476c:	1000461e 	bne	r2,zero,104888 <__ssvfscanf_r+0x7b0>
  104770:	8c40040c 	andi	r17,r17,16
  104774:	8800dc26 	beq	r17,zero,104ae8 <__ssvfscanf_r+0xa10>
  104778:	0021883a 	mov	r16,zero
  10477c:	00000806 	br	1047a0 <__ssvfscanf_r+0x6c8>
  104780:	1887883a 	add	r3,r3,r2
  104784:	980b883a 	mov	r5,r19
  104788:	b809883a 	mov	r4,r23
  10478c:	98c00015 	stw	r3,0(r19)
  104790:	80a1883a 	add	r16,r16,r2
  104794:	e0b9c83a 	sub	fp,fp,r2
  104798:	0110a640 	call	110a64 <__ssrefill_r>
  10479c:	1000cc1e 	bne	r2,zero,104ad0 <__ssvfscanf_r+0x9f8>
  1047a0:	98800117 	ldw	r2,4(r19)
  1047a4:	98c00017 	ldw	r3,0(r19)
  1047a8:	173ff516 	blt	r2,fp,104780 <__alt_data_end+0xfffc4780>
  1047ac:	1705c83a 	sub	r2,r2,fp
  1047b0:	1f15883a 	add	r10,r3,fp
  1047b4:	8721883a 	add	r16,r16,fp
  1047b8:	98800115 	stw	r2,4(r19)
  1047bc:	9a800015 	stw	r10,0(r19)
  1047c0:	dd009d17 	ldw	r20,628(sp)
  1047c4:	9425883a 	add	r18,r18,r16
  1047c8:	a00d883a 	mov	r6,r20
  1047cc:	003e7f06 	br	1041cc <__alt_data_end+0xfffc41cc>
  1047d0:	2039883a 	mov	fp,r4
  1047d4:	380b883a 	mov	r5,r7
  1047d8:	d9005884 	addi	r4,sp,354
  1047dc:	d9c09d15 	stw	r7,628(sp)
  1047e0:	010d0880 	call	10d088 <__sccl>
  1047e4:	1029883a 	mov	r20,r2
  1047e8:	98800117 	ldw	r2,4(r19)
  1047ec:	0081120e 	bge	zero,r2,104c38 <__ssvfscanf_r+0xb60>
  1047f0:	99000017 	ldw	r4,0(r19)
  1047f4:	20800003 	ldbu	r2,0(r4)
  1047f8:	e0005a26 	beq	fp,zero,104964 <__ssvfscanf_r+0x88c>
  1047fc:	8c40040c 	andi	r17,r17,16
  104800:	88005b26 	beq	r17,zero,104970 <__ssvfscanf_r+0x898>
  104804:	e023883a 	mov	r17,fp
  104808:	0021883a 	mov	r16,zero
  10480c:	00000106 	br	104814 <__ssvfscanf_r+0x73c>
  104810:	20800003 	ldbu	r2,0(r4)
  104814:	10803fcc 	andi	r2,r2,255
  104818:	d8c05884 	addi	r3,sp,354
  10481c:	1885883a 	add	r2,r3,r2
  104820:	10800007 	ldb	r2,0(r2)
  104824:	1000ae26 	beq	r2,zero,104ae0 <__ssvfscanf_r+0xa08>
  104828:	98800117 	ldw	r2,4(r19)
  10482c:	21000044 	addi	r4,r4,1
  104830:	84000044 	addi	r16,r16,1
  104834:	10bfffc4 	addi	r2,r2,-1
  104838:	98800115 	stw	r2,4(r19)
  10483c:	99000015 	stw	r4,0(r19)
  104840:	8700a126 	beq	r16,fp,104ac8 <__ssvfscanf_r+0x9f0>
  104844:	00bff216 	blt	zero,r2,104810 <__alt_data_end+0xfffc4810>
  104848:	980b883a 	mov	r5,r19
  10484c:	b809883a 	mov	r4,r23
  104850:	0110a640 	call	110a64 <__ssrefill_r>
  104854:	10009b1e 	bne	r2,zero,104ac4 <__ssvfscanf_r+0x9ec>
  104858:	99000017 	ldw	r4,0(r19)
  10485c:	003fec06 	br	104810 <__alt_data_end+0xfffc4810>
  104860:	98800117 	ldw	r2,4(r19)
  104864:	d9c09d15 	stw	r7,628(sp)
  104868:	2039883a 	mov	fp,r4
  10486c:	00811c0e 	bge	zero,r2,104ce0 <__ssvfscanf_r+0xc08>
  104870:	01400474 	movhi	r5,17
  104874:	297a3004 	addi	r5,r5,-5952
  104878:	d940a115 	stw	r5,644(sp)
  10487c:	d8009e15 	stw	zero,632(sp)
  104880:	050000c4 	movi	r20,3
  104884:	003f2206 	br	104510 <__alt_data_end+0xfffc4510>
  104888:	dd409904 	addi	r21,sp,612
  10488c:	8c40040c 	andi	r17,r17,16
  104890:	01800204 	movi	r6,8
  104894:	000b883a 	mov	r5,zero
  104898:	a809883a 	mov	r4,r21
  10489c:	dc409f15 	stw	r17,636(sp)
  1048a0:	01016a80 	call	1016a8 <memset>
  1048a4:	dc409f17 	ldw	r17,636(sp)
  1048a8:	88006e26 	beq	r17,zero,104a64 <__ssvfscanf_r+0x98c>
  1048ac:	0029883a 	mov	r20,zero
  1048b0:	0023883a 	mov	r17,zero
  1048b4:	010aa640 	call	10aa64 <__locale_mb_cur_max>
  1048b8:	14406126 	beq	r2,r17,104a40 <__ssvfscanf_r+0x968>
  1048bc:	98800017 	ldw	r2,0(r19)
  1048c0:	98c00117 	ldw	r3,4(r19)
  1048c4:	d9000104 	addi	r4,sp,4
  1048c8:	12000003 	ldbu	r8,0(r2)
  1048cc:	18ffffc4 	addi	r3,r3,-1
  1048d0:	10800044 	addi	r2,r2,1
  1048d4:	98c00115 	stw	r3,4(r19)
  1048d8:	98800015 	stw	r2,0(r19)
  1048dc:	8c000044 	addi	r16,r17,1
  1048e0:	dd400015 	stw	r21,0(sp)
  1048e4:	2463883a 	add	r17,r4,r17
  1048e8:	200d883a 	mov	r6,r4
  1048ec:	a00b883a 	mov	r5,r20
  1048f0:	800f883a 	mov	r7,r16
  1048f4:	b809883a 	mov	r4,r23
  1048f8:	8a000005 	stb	r8,0(r17)
  1048fc:	010b4e00 	call	10b4e0 <_mbrtowc_r>
  104900:	017fffc4 	movi	r5,-1
  104904:	11404e26 	beq	r2,r5,104a40 <__ssvfscanf_r+0x968>
  104908:	1000601e 	bne	r2,zero,104a8c <__ssvfscanf_r+0x9b4>
  10490c:	d8c09f17 	ldw	r3,636(sp)
  104910:	1800641e 	bne	r3,zero,104aa4 <__ssvfscanf_r+0x9cc>
  104914:	a0000015 	stw	zero,0(r20)
  104918:	9425883a 	add	r18,r18,r16
  10491c:	e179883a 	add	fp,fp,r5
  104920:	a5000104 	addi	r20,r20,4
  104924:	98800117 	ldw	r2,4(r19)
  104928:	0023883a 	mov	r17,zero
  10492c:	00804b16 	blt	zero,r2,104a5c <__ssvfscanf_r+0x984>
  104930:	980b883a 	mov	r5,r19
  104934:	b809883a 	mov	r4,r23
  104938:	0110a640 	call	110a64 <__ssrefill_r>
  10493c:	10004726 	beq	r2,zero,104a5c <__ssvfscanf_r+0x984>
  104940:	88003f1e 	bne	r17,zero,104a40 <__ssvfscanf_r+0x968>
  104944:	d8c09f17 	ldw	r3,636(sp)
  104948:	1800031e 	bne	r3,zero,104958 <__ssvfscanf_r+0x880>
  10494c:	d900a017 	ldw	r4,640(sp)
  104950:	21000044 	addi	r4,r4,1
  104954:	d900a015 	stw	r4,640(sp)
  104958:	dd009d17 	ldw	r20,628(sp)
  10495c:	a00d883a 	mov	r6,r20
  104960:	003e1a06 	br	1041cc <__alt_data_end+0xfffc41cc>
  104964:	8c40040c 	andi	r17,r17,16
  104968:	073fffc4 	movi	fp,-1
  10496c:	883fa51e 	bne	r17,zero,104804 <__alt_data_end+0xfffc4804>
  104970:	d9409c17 	ldw	r5,624(sp)
  104974:	e2bfffc4 	addi	r10,fp,-1
  104978:	2c000017 	ldw	r16,0(r5)
  10497c:	2c400104 	addi	r17,r5,4
  104980:	8007883a 	mov	r3,r16
  104984:	82ab883a 	add	r21,r16,r10
  104988:	00000306 	br	104998 <__ssvfscanf_r+0x8c0>
  10498c:	99000017 	ldw	r4,0(r19)
  104990:	e007883a 	mov	r3,fp
  104994:	20800003 	ldbu	r2,0(r4)
  104998:	10803fcc 	andi	r2,r2,255
  10499c:	d9405884 	addi	r5,sp,354
  1049a0:	2885883a 	add	r2,r5,r2
  1049a4:	10800007 	ldb	r2,0(r2)
  1049a8:	10004b26 	beq	r2,zero,104ad8 <__ssvfscanf_r+0xa00>
  1049ac:	98800117 	ldw	r2,4(r19)
  1049b0:	21400044 	addi	r5,r4,1
  1049b4:	99400015 	stw	r5,0(r19)
  1049b8:	10bfffc4 	addi	r2,r2,-1
  1049bc:	98800115 	stw	r2,4(r19)
  1049c0:	20800003 	ldbu	r2,0(r4)
  1049c4:	1f000044 	addi	fp,r3,1
  1049c8:	18800005 	stb	r2,0(r3)
  1049cc:	1d400726 	beq	r3,r21,1049ec <__ssvfscanf_r+0x914>
  1049d0:	98800117 	ldw	r2,4(r19)
  1049d4:	00bfed16 	blt	zero,r2,10498c <__alt_data_end+0xfffc498c>
  1049d8:	980b883a 	mov	r5,r19
  1049dc:	b809883a 	mov	r4,r23
  1049e0:	0110a640 	call	110a64 <__ssrefill_r>
  1049e4:	103fe926 	beq	r2,zero,10498c <__alt_data_end+0xfffc498c>
  1049e8:	87001526 	beq	r16,fp,104a40 <__ssvfscanf_r+0x968>
  1049ec:	e421c83a 	sub	r16,fp,r16
  1049f0:	803dfa26 	beq	r16,zero,1041dc <__alt_data_end+0xfffc41dc>
  1049f4:	d880a017 	ldw	r2,640(sp)
  1049f8:	e0000005 	stb	zero,0(fp)
  1049fc:	dc409c15 	stw	r17,624(sp)
  104a00:	10800044 	addi	r2,r2,1
  104a04:	d880a015 	stw	r2,640(sp)
  104a08:	9425883a 	add	r18,r18,r16
  104a0c:	a00d883a 	mov	r6,r20
  104a10:	003dee06 	br	1041cc <__alt_data_end+0xfffc41cc>
  104a14:	013fff84 	movi	r4,-2
  104a18:	1103ed1e 	bne	r2,r4,1059d0 <__ssvfscanf_r+0x18f8>
  104a1c:	8821883a 	mov	r16,r17
  104a20:	98800117 	ldw	r2,4(r19)
  104a24:	00834116 	blt	zero,r2,10572c <__ssvfscanf_r+0x1654>
  104a28:	980b883a 	mov	r5,r19
  104a2c:	b809883a 	mov	r4,r23
  104a30:	0110a640 	call	110a64 <__ssrefill_r>
  104a34:	10033d26 	beq	r2,zero,10572c <__ssvfscanf_r+0x1654>
  104a38:	dc409f17 	ldw	r17,636(sp)
  104a3c:	80034426 	beq	r16,zero,105750 <__ssvfscanf_r+0x1678>
  104a40:	d900a017 	ldw	r4,640(sp)
  104a44:	203e8026 	beq	r4,zero,104448 <__alt_data_end+0xfffc4448>
  104a48:	9880030b 	ldhu	r2,12(r19)
  104a4c:	1080100c 	andi	r2,r2,64
  104a50:	103e7d1e 	bne	r2,zero,104448 <__alt_data_end+0xfffc4448>
  104a54:	2005883a 	mov	r2,r4
  104a58:	003e7c06 	br	10444c <__alt_data_end+0xfffc444c>
  104a5c:	e03f951e 	bne	fp,zero,1048b4 <__alt_data_end+0xfffc48b4>
  104a60:	003fb806 	br	104944 <__alt_data_end+0xfffc4944>
  104a64:	d8809c17 	ldw	r2,624(sp)
  104a68:	15000017 	ldw	r20,0(r2)
  104a6c:	10800104 	addi	r2,r2,4
  104a70:	d8809c15 	stw	r2,624(sp)
  104a74:	003f8e06 	br	1048b0 <__alt_data_end+0xfffc48b0>
  104a78:	980b883a 	mov	r5,r19
  104a7c:	b809883a 	mov	r4,r23
  104a80:	0110a640 	call	110a64 <__ssrefill_r>
  104a84:	103f3626 	beq	r2,zero,104760 <__alt_data_end+0xfffc4760>
  104a88:	003fed06 	br	104a40 <__alt_data_end+0xfffc4a40>
  104a8c:	013fff84 	movi	r4,-2
  104a90:	1100071e 	bne	r2,r4,104ab0 <__ssvfscanf_r+0x9d8>
  104a94:	98800117 	ldw	r2,4(r19)
  104a98:	8023883a 	mov	r17,r16
  104a9c:	00bf8516 	blt	zero,r2,1048b4 <__alt_data_end+0xfffc48b4>
  104aa0:	003fa306 	br	104930 <__alt_data_end+0xfffc4930>
  104aa4:	9425883a 	add	r18,r18,r16
  104aa8:	e73fffc4 	addi	fp,fp,-1
  104aac:	003f9d06 	br	104924 <__alt_data_end+0xfffc4924>
  104ab0:	d8c09f17 	ldw	r3,636(sp)
  104ab4:	9425883a 	add	r18,r18,r16
  104ab8:	e73fffc4 	addi	fp,fp,-1
  104abc:	183f9826 	beq	r3,zero,104920 <__alt_data_end+0xfffc4920>
  104ac0:	003f9806 	br	104924 <__alt_data_end+0xfffc4924>
  104ac4:	8023883a 	mov	r17,r16
  104ac8:	8821883a 	mov	r16,r17
  104acc:	003fce06 	br	104a08 <__alt_data_end+0xfffc4a08>
  104ad0:	803f3b1e 	bne	r16,zero,1047c0 <__alt_data_end+0xfffc47c0>
  104ad4:	003fda06 	br	104a40 <__alt_data_end+0xfffc4a40>
  104ad8:	1839883a 	mov	fp,r3
  104adc:	003fc306 	br	1049ec <__alt_data_end+0xfffc49ec>
  104ae0:	803fc91e 	bne	r16,zero,104a08 <__alt_data_end+0xfffc4a08>
  104ae4:	003dbd06 	br	1041dc <__alt_data_end+0xfffc41dc>
  104ae8:	d8809c17 	ldw	r2,624(sp)
  104aec:	dcc00015 	stw	r19,0(sp)
  104af0:	b809883a 	mov	r4,r23
  104af4:	11400017 	ldw	r5,0(r2)
  104af8:	e00f883a 	mov	r7,fp
  104afc:	01800044 	movi	r6,1
  104b00:	0110ad40 	call	110ad4 <_sfread_r>
  104b04:	d9009c17 	ldw	r4,624(sp)
  104b08:	20c00104 	addi	r3,r4,4
  104b0c:	103fcc26 	beq	r2,zero,104a40 <__alt_data_end+0xfffc4a40>
  104b10:	d940a017 	ldw	r5,640(sp)
  104b14:	dd009d17 	ldw	r20,628(sp)
  104b18:	90a5883a 	add	r18,r18,r2
  104b1c:	29400044 	addi	r5,r5,1
  104b20:	d940a015 	stw	r5,640(sp)
  104b24:	d8c09c15 	stw	r3,624(sp)
  104b28:	a00d883a 	mov	r6,r20
  104b2c:	003da706 	br	1041cc <__alt_data_end+0xfffc41cc>
  104b30:	980b883a 	mov	r5,r19
  104b34:	b809883a 	mov	r4,r23
  104b38:	0110a640 	call	110a64 <__ssrefill_r>
  104b3c:	103e3626 	beq	r2,zero,104418 <__alt_data_end+0xfffc4418>
  104b40:	003fbf06 	br	104a40 <__alt_data_end+0xfffc4a40>
  104b44:	98800117 	ldw	r2,4(r19)
  104b48:	88e2b03a 	or	r17,r17,r3
  104b4c:	0080210e 	bge	zero,r2,104bd4 <__ssvfscanf_r+0xafc>
  104b50:	01400474 	movhi	r5,17
  104b54:	297a3004 	addi	r5,r5,-5952
  104b58:	00800284 	movi	r2,10
  104b5c:	d940a115 	stw	r5,644(sp)
  104b60:	d8809e15 	stw	r2,632(sp)
  104b64:	050000c4 	movi	r20,3
  104b68:	003e6906 	br	104510 <__alt_data_end+0xfffc4510>
  104b6c:	a1400083 	ldbu	r5,2(r20)
  104b70:	8c400094 	ori	r17,r17,2
  104b74:	a5000084 	addi	r20,r20,2
  104b78:	2d403fcc 	andi	r21,r5,255
  104b7c:	003da106 	br	104204 <__alt_data_end+0xfffc4204>
  104b80:	8880004c 	andi	r2,r17,1
  104b84:	10000c1e 	bne	r2,zero,104bb8 <__ssvfscanf_r+0xae0>
  104b88:	8c40008c 	andi	r17,r17,2
  104b8c:	88000a26 	beq	r17,zero,104bb8 <__ssvfscanf_r+0xae0>
  104b90:	d8c09c17 	ldw	r3,624(sp)
  104b94:	d9009c17 	ldw	r4,624(sp)
  104b98:	dd009d17 	ldw	r20,628(sp)
  104b9c:	18800017 	ldw	r2,0(r3)
  104ba0:	9007d7fa 	srai	r3,r18,31
  104ba4:	21000104 	addi	r4,r4,4
  104ba8:	14800015 	stw	r18,0(r2)
  104bac:	10c00115 	stw	r3,4(r2)
  104bb0:	d9009c15 	stw	r4,624(sp)
  104bb4:	003d8406 	br	1041c8 <__alt_data_end+0xfffc41c8>
  104bb8:	d9409c17 	ldw	r5,624(sp)
  104bbc:	dd009d17 	ldw	r20,628(sp)
  104bc0:	28800017 	ldw	r2,0(r5)
  104bc4:	29400104 	addi	r5,r5,4
  104bc8:	d9409c15 	stw	r5,624(sp)
  104bcc:	14800015 	stw	r18,0(r2)
  104bd0:	003d7d06 	br	1041c8 <__alt_data_end+0xfffc41c8>
  104bd4:	980b883a 	mov	r5,r19
  104bd8:	b809883a 	mov	r4,r23
  104bdc:	0110a640 	call	110a64 <__ssrefill_r>
  104be0:	103f971e 	bne	r2,zero,104a40 <__alt_data_end+0xfffc4a40>
  104be4:	b4000017 	ldw	r16,0(r22)
  104be8:	003ed206 	br	104734 <__alt_data_end+0xfffc4734>
  104bec:	980b883a 	mov	r5,r19
  104bf0:	b809883a 	mov	r4,r23
  104bf4:	0110a640 	call	110a64 <__ssrefill_r>
  104bf8:	103f911e 	bne	r2,zero,104a40 <__alt_data_end+0xfffc4a40>
  104bfc:	01000474 	movhi	r4,17
  104c00:	213b8e04 	addi	r4,r4,-4552
  104c04:	01400404 	movi	r5,16
  104c08:	b4000017 	ldw	r16,0(r22)
  104c0c:	d900a115 	stw	r4,644(sp)
  104c10:	d9409e15 	stw	r5,632(sp)
  104c14:	050000c4 	movi	r20,3
  104c18:	003e3d06 	br	104510 <__alt_data_end+0xfffc4510>
  104c1c:	980b883a 	mov	r5,r19
  104c20:	b809883a 	mov	r4,r23
  104c24:	0110a640 	call	110a64 <__ssrefill_r>
  104c28:	103f851e 	bne	r2,zero,104a40 <__alt_data_end+0xfffc4a40>
  104c2c:	b4000017 	ldw	r16,0(r22)
  104c30:	05000084 	movi	r20,2
  104c34:	003e3606 	br	104510 <__alt_data_end+0xfffc4510>
  104c38:	980b883a 	mov	r5,r19
  104c3c:	b809883a 	mov	r4,r23
  104c40:	0110a640 	call	110a64 <__ssrefill_r>
  104c44:	103eea26 	beq	r2,zero,1047f0 <__alt_data_end+0xfffc47f0>
  104c48:	003f7d06 	br	104a40 <__alt_data_end+0xfffc4a40>
  104c4c:	980b883a 	mov	r5,r19
  104c50:	b809883a 	mov	r4,r23
  104c54:	0110a640 	call	110a64 <__ssrefill_r>
  104c58:	103f791e 	bne	r2,zero,104a40 <__alt_data_end+0xfffc4a40>
