
tis_nios.elf:     file format elf32-littlenios2
tis_nios.elf
architecture: nios2:r1, flags 0x00000112:
EXEC_P, HAS_SYMS, D_PAGED
start address 0x000c01c0

Program Header:
    LOAD off    0x00001000 vaddr 0x000c0000 paddr 0x000c0000 align 2**12
         filesz 0x00000020 memsz 0x00000020 flags r-x
    LOAD off    0x00001020 vaddr 0x000c0020 paddr 0x000c0020 align 2**12
         filesz 0x0001ad14 memsz 0x0001ad14 flags r-x
    LOAD off    0x0001bd34 vaddr 0x000dad34 paddr 0x000dc828 align 2**12
         filesz 0x00001af4 memsz 0x00001af4 flags rw-
    LOAD off    0x0001e31c vaddr 0x000de31c paddr 0x000de31c align 2**12
         filesz 0x00000000 memsz 0x0000035c flags rw-

Sections:
Idx Name          Size      VMA       LMA       File off  Algn
  0 .entry        00000020  000c0000  000c0000  00001000  2**5
                  CONTENTS, ALLOC, LOAD, READONLY, CODE
  1 .exceptions   000001a0  000c0020  000c0020  00001020  2**2
                  CONTENTS, ALLOC, LOAD, READONLY, CODE
  2 .text         0001a0c0  000c01c0  000c01c0  000011c0  2**2
                  CONTENTS, ALLOC, LOAD, READONLY, CODE
  3 .rodata       00000ab4  000da280  000da280  0001b280  2**2
                  CONTENTS, ALLOC, LOAD, READONLY, DATA
  4 .rwdata       00001af4  000dad34  000dc828  0001bd34  2**2
                  CONTENTS, ALLOC, LOAD, DATA, SMALL_DATA
  5 .bss          0000035c  000de31c  000de31c  0001e31c  2**2
                  ALLOC, SMALL_DATA
  6 .onchip_memory2_0 00000000  000de678  000de678  0001d828  2**0
                  CONTENTS
  7 .comment      00000023  00000000  00000000  0001d828  2**0
                  CONTENTS, READONLY
  8 .debug_aranges 00001310  00000000  00000000  0001d850  2**3
                  CONTENTS, READONLY, DEBUGGING
  9 .debug_info   000319b4  00000000  00000000  0001eb60  2**0
                  CONTENTS, READONLY, DEBUGGING
 10 .debug_abbrev 0000c44f  00000000  00000000  00050514  2**0
                  CONTENTS, READONLY, DEBUGGING
 11 .debug_line   00010bbe  00000000  00000000  0005c963  2**0
                  CONTENTS, READONLY, DEBUGGING
 12 .debug_frame  00002b00  00000000  00000000  0006d524  2**2
                  CONTENTS, READONLY, DEBUGGING
 13 .debug_str    00004221  00000000  00000000  00070024  2**0
                  CONTENTS, READONLY, DEBUGGING
 14 .debug_loc    00026324  00000000  00000000  00074245  2**0
                  CONTENTS, READONLY, DEBUGGING
 15 .debug_alt_sim_info 00000010  00000000  00000000  0009a56c  2**2
                  CONTENTS, READONLY, DEBUGGING
 16 .debug_ranges 000022e8  00000000  00000000  0009a580  2**3
                  CONTENTS, READONLY, DEBUGGING
 17 .thread_model 00000003  00000000  00000000  000a0372  2**0
                  CONTENTS, READONLY
 18 .cpu          0000000c  00000000  00000000  000a0375  2**0
                  CONTENTS, READONLY
 19 .qsys         00000001  00000000  00000000  000a0381  2**0
                  CONTENTS, READONLY
 20 .simulation_enabled 00000001  00000000  00000000  000a0382  2**0
                  CONTENTS, READONLY
 21 .stderr_dev   0000000b  00000000  00000000  000a0383  2**0
                  CONTENTS, READONLY
 22 .stdin_dev    0000000b  00000000  00000000  000a038e  2**0
                  CONTENTS, READONLY
 23 .stdout_dev   0000000b  00000000  00000000  000a0399  2**0
                  CONTENTS, READONLY
 24 .sopc_system_name 0000000a  00000000  00000000  000a03a4  2**0
                  CONTENTS, READONLY
 25 .quartus_project_dir 0000001c  00000000  00000000  000a03ae  2**0
                  CONTENTS, READONLY
 26 .jdi          00004fc5  00000000  00000000  000a03ca  2**0
                  CONTENTS, READONLY
 27 .sopcinfo     0003d703  00000000  00000000  000a538f  2**0
                  CONTENTS, READONLY
SYMBOL TABLE:
000c0000 l    d  .entry	00000000 .entry
000c0020 l    d  .exceptions	00000000 .exceptions
000c01c0 l    d  .text	00000000 .text
000da280 l    d  .rodata	00000000 .rodata
000dad34 l    d  .rwdata	00000000 .rwdata
000de31c l    d  .bss	00000000 .bss
000de678 l    d  .onchip_memory2_0	00000000 .onchip_memory2_0
00000000 l    d  .comment	00000000 .comment
00000000 l    d  .debug_aranges	00000000 .debug_aranges
00000000 l    d  .debug_info	00000000 .debug_info
00000000 l    d  .debug_abbrev	00000000 .debug_abbrev
00000000 l    d  .debug_line	00000000 .debug_line
00000000 l    d  .debug_frame	00000000 .debug_frame
00000000 l    d  .debug_str	00000000 .debug_str
00000000 l    d  .debug_loc	00000000 .debug_loc
00000000 l    d  .debug_alt_sim_info	00000000 .debug_alt_sim_info
00000000 l    d  .debug_ranges	00000000 .debug_ranges
00000000 l    df *ABS*	00000000 ../tis_nios_bsp//obj/HAL/src/crt0.o
000c01f8 l       .text	00000000 alt_after_alt_main
00000000 l    df *ABS*	00000000 alt_exception_entry.o
000c0094 l       .exceptions	00000000 alt_exception_unknown
00000000 l    df *ABS*	00000000 alt_irq_handler.c
00000000 l    df *ABS*	00000000 hello_world.c
00000000 l    df *ABS*	00000000 tis_asm.c
000da580 l     O .rodata	00000020 regs
000da504 l     O .rodata	00000034 opcodes_str
000de350 l     O .bss	00000200 buffer.2800
000da4d0 l     O .rodata	00000034 asm_formats
000da49c l     O .rodata	00000034 asm_operands
000da538 l     O .rodata	00000030 instructions_str
000da568 l     O .rodata	00000018 instructions_bin
00000000 l    df *ABS*	00000000 tis_node.c
00000000 l    df *ABS*	00000000 isspace.c
00000000 l    df *ABS*	00000000 memset.c
00000000 l    df *ABS*	00000000 printf.c
00000000 l    df *ABS*	00000000 puts.c
00000000 l    df *ABS*	00000000 sprintf.c
00000000 l    df *ABS*	00000000 sscanf.c
00000000 l    df *ABS*	00000000 stdio.c
00000000 l    df *ABS*	00000000 strcmp.c
00000000 l    df *ABS*	00000000 strcpy.c
00000000 l    df *ABS*	00000000 strlen.c
00000000 l    df *ABS*	00000000 strncmp.c
00000000 l    df *ABS*	00000000 strtok_r.c
00000000 l    df *ABS*	00000000 vfprintf.c
000da60a l     O .rodata	00000010 zeroes.4389
000da61a l     O .rodata	00000010 blanks.4388
00000000 l    df *ABS*	00000000 vfscanf.c
000da632 l     O .rodata	00000022 basefix.4340
00000000 l    df *ABS*	00000000 vfprintf.c
000da654 l     O .rodata	00000010 zeroes.4404
000c7214 l     F .text	000000bc __sbprintf
000da664 l     O .rodata	00000010 blanks.4403
00000000 l    df *ABS*	00000000 writer.c
00000000 l    df *ABS*	00000000 wsetup.c
00000000 l    df *ABS*	00000000 closer.c
00000000 l    df *ABS*	00000000 ctype_.c
000da775 l     O .rodata	00000180 _ctype_b
00000000 l    df *ABS*	00000000 dtoa.c
000c74d8 l     F .text	00000228 quorem
00000000 l    df *ABS*	00000000 fflush.c
00000000 l    df *ABS*	00000000 findfp.c
000c9030 l     F .text	00000008 __fp_unlock
000c9044 l     F .text	0000019c __sinit.part.1
000c91e0 l     F .text	00000008 __fp_lock
00000000 l    df *ABS*	00000000 mallocr.c
00000000 l    df *ABS*	00000000 fvwrite.c
00000000 l    df *ABS*	00000000 fwalk.c
00000000 l    df *ABS*	00000000 impure.c
000dad34 l     O .rwdata	00000424 impure_data
00000000 l    df *ABS*	00000000 int_errno.c
00000000 l    df *ABS*	00000000 iswspace.c
00000000 l    df *ABS*	00000000 locale.c
000db178 l     O .rwdata	00000020 lc_ctype_charset
000db158 l     O .rwdata	00000020 lc_message_charset
000db198 l     O .rwdata	00000038 lconv
00000000 l    df *ABS*	00000000 lseekr.c
00000000 l    df *ABS*	00000000 makebuf.c
00000000 l    df *ABS*	00000000 mallocr.c
00000000 l    df *ABS*	00000000 mbrtowc.c
00000000 l    df *ABS*	00000000 mbtowc_r.c
00000000 l    df *ABS*	00000000 memchr.c
00000000 l    df *ABS*	00000000 memcpy.c
00000000 l    df *ABS*	00000000 memmove.c
00000000 l    df *ABS*	00000000 mprec.c
000da918 l     O .rodata	0000000c p05.2768
00000000 l    df *ABS*	00000000 readr.c
00000000 l    df *ABS*	00000000 mallocr.c
00000000 l    df *ABS*	00000000 s_fpclassify.c
00000000 l    df *ABS*	00000000 sbrkr.c
00000000 l    df *ABS*	00000000 sccl.c
00000000 l    df *ABS*	00000000 sf_nan.c
00000000 l    df *ABS*	00000000 strtod.c
000cc760 l     F .text	00000064 sulp
000daa4c l     O .rodata	00000014 fpinan.2773
000daa60 l     O .rodata	00000014 fpi.2737
000daa74 l     O .rodata	00000028 tinytens
00000000 l    df *ABS*	00000000 strtol.c
00000000 l    df *ABS*	00000000 strtoll_r.c
00000000 l    df *ABS*	00000000 strtoul.c
00000000 l    df *ABS*	00000000 strtoull_r.c
00000000 l    df *ABS*	00000000 vfprintf.c
000daa9c l     O .rodata	00000010 zeroes.4333
000daaac l     O .rodata	00000010 blanks.4332
00000000 l    df *ABS*	00000000 vfscanf.c
000daabc l     O .rodata	00000022 basefix.3791
00000000 l    df *ABS*	00000000 ungetc.c
00000000 l    df *ABS*	00000000 vfprintf.c
000d15a0 l     F .text	000000fc __sprint_r.part.0
000daade l     O .rodata	00000010 zeroes.4349
000d2bdc l     F .text	000000bc __sbprintf
000daaee l     O .rodata	00000010 blanks.4348
00000000 l    df *ABS*	00000000 mallocr.c
00000000 l    df *ABS*	00000000 fclose.c
00000000 l    df *ABS*	00000000 fputwc.c
00000000 l    df *ABS*	00000000 fstatr.c
00000000 l    df *ABS*	00000000 gdtoa-gethex.c
000d30dc l     F .text	00000100 rshift
00000000 l    df *ABS*	00000000 gdtoa-hexnan.c
00000000 l    df *ABS*	00000000 isattyr.c
00000000 l    df *ABS*	00000000 wbuf.c
00000000 l    df *ABS*	00000000 wcrtomb.c
00000000 l    df *ABS*	00000000 wctomb_r.c
00000000 l    df *ABS*	00000000 libgcc2.c
00000000 l    df *ABS*	00000000 libgcc2.c
00000000 l    df *ABS*	00000000 libgcc2.c
00000000 l    df *ABS*	00000000 libgcc2.c
00000000 l    df *ABS*	00000000 lib2-divmod.c
00000000 l    df *ABS*	00000000 lib2-mul.c
00000000 l    df *ABS*	00000000 eqsf2.c
00000000 l    df *ABS*	00000000 gesf2.c
00000000 l    df *ABS*	00000000 lesf2.c
00000000 l    df *ABS*	00000000 adddf3.c
00000000 l    df *ABS*	00000000 divdf3.c
00000000 l    df *ABS*	00000000 eqdf2.c
00000000 l    df *ABS*	00000000 gedf2.c
00000000 l    df *ABS*	00000000 ledf2.c
00000000 l    df *ABS*	00000000 muldf3.c
00000000 l    df *ABS*	00000000 subdf3.c
00000000 l    df *ABS*	00000000 fixdfsi.c
00000000 l    df *ABS*	00000000 floatsidf.c
00000000 l    df *ABS*	00000000 floatunsidf.c
00000000 l    df *ABS*	00000000 truncdfsf2.c
00000000 l    df *ABS*	00000000 libgcc2.c
00000000 l    df *ABS*	00000000 libgcc2.c
00000000 l    df *ABS*	00000000 alt_close.c
000d7b80 l     F .text	0000003c alt_get_errno
00000000 l    df *ABS*	00000000 alt_dev.c
000d7c94 l     F .text	0000002c alt_dev_null_write
00000000 l    df *ABS*	00000000 alt_errno.c
00000000 l    df *ABS*	00000000 alt_fstat.c
000d7cc0 l     F .text	0000003c alt_get_errno
00000000 l    df *ABS*	00000000 alt_isatty.c
000d7db4 l     F .text	0000003c alt_get_errno
00000000 l    df *ABS*	00000000 alt_load.c
000d7e9c l     F .text	00000068 alt_load_section
00000000 l    df *ABS*	00000000 alt_lseek.c
000d7f88 l     F .text	0000003c alt_get_errno
00000000 l    df *ABS*	00000000 alt_main.c
00000000 l    df *ABS*	00000000 alt_malloc_lock.c
00000000 l    df *ABS*	00000000 alt_read.c
000d8164 l     F .text	0000003c alt_get_errno
00000000 l    df *ABS*	00000000 alt_release_fd.c
00000000 l    df *ABS*	00000000 alt_sbrk.c
000dc818 l     O .rwdata	00000004 heap_end
00000000 l    df *ABS*	00000000 alt_write.c
000d83d8 l     F .text	0000003c alt_get_errno
00000000 l    df *ABS*	00000000 alt_sys_init.c
000d8514 l     F .text	00000034 alt_dev_reg
000db780 l     O .rwdata	00001060 jtag_uart_0
00000000 l    df *ABS*	00000000 altera_avalon_jtag_uart_fd.c
00000000 l    df *ABS*	00000000 altera_avalon_jtag_uart_init.c
000d8800 l     F .text	0000020c altera_avalon_jtag_uart_irq
000d8a0c l     F .text	000000a0 altera_avalon_jtag_uart_timeout
00000000 l    df *ABS*	00000000 altera_avalon_jtag_uart_ioctl.c
00000000 l    df *ABS*	00000000 altera_avalon_jtag_uart_read.c
00000000 l    df *ABS*	00000000 altera_avalon_jtag_uart_write.c
00000000 l    df *ABS*	00000000 altera_avalon_timer_sc.c
000d9044 l     F .text	00000078 alt_avalon_timer_sc_irq
00000000 l    df *ABS*	00000000 alt_alarm_start.c
00000000 l    df *ABS*	00000000 alt_dcache_flush_all.c
00000000 l    df *ABS*	00000000 alt_dev_llist_insert.c
000d9284 l     F .text	0000003c alt_get_errno
00000000 l    df *ABS*	00000000 alt_do_ctors.c
00000000 l    df *ABS*	00000000 alt_do_dtors.c
00000000 l    df *ABS*	00000000 alt_icache_flush_all.c
00000000 l    df *ABS*	00000000 alt_iic.c
00000000 l    df *ABS*	00000000 alt_iic_isr_register.c
00000000 l    df *ABS*	00000000 alt_io_redirect.c
000d96e4 l     F .text	000000e4 alt_open_fd
00000000 l    df *ABS*	00000000 alt_irq_vars.c
00000000 l    df *ABS*	00000000 alt_open.c
000d9844 l     F .text	0000003c alt_get_errno
000d9880 l     F .text	000000ec alt_file_locked
00000000 l    df *ABS*	00000000 alt_tick.c
00000000 l    df *ABS*	00000000 altera_nios2_qsys_irq.c
00000000 l    df *ABS*	00000000 alt_find_dev.c
00000000 l    df *ABS*	00000000 alt_find_file.c
00000000 l    df *ABS*	00000000 alt_get_fd.c
00000000 l    df *ABS*	00000000 atexit.c
00000000 l    df *ABS*	00000000 exit.c
00000000 l    df *ABS*	00000000 memcmp.c
00000000 l    df *ABS*	00000000 __atexit.c
00000000 l    df *ABS*	00000000 __call_atexit.c
00000000 l    df *ABS*	00000000 alt_exit.c
000cbe84 g     F .text	00000074 _mprec_log10
000cbf70 g     F .text	0000008c __any_on
000d3c88 g     F .text	00000054 _isatty_r
000da924 g     O .rodata	00000028 __mprec_tinytens
000d80a0 g     F .text	0000007c alt_main
000c1038 g     F .text	00000090 strcpy
000c0b94 g     F .text	000000c0 _puts_r
000de578 g     O .bss	00000100 alt_irq
000c9f70 g     F .text	00000060 _lseek_r
000dc828 g       *ABS*	00000000 __flash_rwdata_start
000d63b0 g     F .text	00000088 .hidden __eqdf2
000c08c4 g     F .text	00000060 configure_node
000de678 g       *ABS*	00000000 __alt_heap_start
000c12cc g     F .text	00000008 strtok_r
000c0b58 g     F .text	0000003c printf
000d3e34 g     F .text	0000009c _wcrtomb_r
000c0ef8 g     F .text	0000005c __sseek
000c9390 g     F .text	00000010 __sinit
000d3cdc g     F .text	00000140 __swbuf_r
000c9e94 g     F .text	0000007c _setlocale_r
000c91e8 g     F .text	00000078 __sfmoreglue
000d1588 g     F .text	00000018 ungetc
000d8140 g     F .text	00000024 __malloc_unlock
000cc7c4 g     F .text	000015e4 _strtod_r
000c0818 g     F .text	000000ac tis_encode_test
000d00d4 g     F .text	00000100 _sfread_r
000cade8 g     F .text	0000015c memmove
000c9378 g     F .text	00000018 _cleanup
000caf44 g     F .text	000000a8 _Balloc
000c1230 g     F .text	0000009c __strtok_r
000d6438 g     F .text	000000dc .hidden __gtdf2
000c0000 g     F .entry	0000000c __reset
000c0020 g       *ABS*	00000000 __flash_exceptions_start
000d3080 g     F .text	0000005c _fstat_r
000de31c g     O .bss	00000004 errno
000c0e74 g     F .text	00000008 __seofread
000cebbc g     F .text	000013a0 ___svfiprintf_internal_r
000de33c g     O .bss	00000004 alt_argv
000e47e0 g       *ABS*	00000000 _gp
000db600 g     O .rwdata	00000180 alt_fd_list
000d9c90 g     F .text	00000090 alt_find_dev
000caca0 g     F .text	00000148 memcpy
000d3a2c g     F .text	0000025c __hexnan
000c0510 g     F .text	00000258 tis_encode
000c9038 g     F .text	0000000c _cleanup_r
000d77f0 g     F .text	000000dc .hidden __floatsidf
000d97c8 g     F .text	0000007c alt_io_redirect
000d6514 g     F .text	000000f4 .hidden __ltdf2
000da280 g       *ABS*	00000000 __DTOR_END__
000c0c54 g     F .text	00000014 puts
000caa44 g     F .text	000000d8 mbrtowc
000cc5c0 g     F .text	00000074 __fpclassifyd
000cbde0 g     F .text	000000a4 __ratio
000d2bc0 g     F .text	0000001c __vfiprintf_internal
000d8c04 g     F .text	0000021c altera_avalon_jtag_uart_read
000c0b28 g     F .text	00000030 _printf_r
000c0000 g       *ABS*	00000000 __alt_mem_onchip_memory2_0
000d4e54 g     F .text	00000064 .hidden __udivsi3
000d7df0 g     F .text	000000ac isatty
000c9e64 g     F .text	00000030 iswspace
000da974 g     O .rodata	000000c8 __mprec_tens
000c9f10 g     F .text	0000000c __locale_charset
000d506c g     F .text	000000c8 .hidden __lesf2
000d4128 g     F .text	00000074 .hidden __fixunsdfsi
000de334 g     O .bss	00000004 __malloc_top_pad
000d0064 g     F .text	00000070 __ssrefill_r
000ce6b0 g     F .text	0000001c strtoul
000dc7ec g     O .rwdata	00000004 __mb_cur_max
000c9f40 g     F .text	0000000c _localeconv_r
000ce6cc g     F .text	00000320 _strtoull_r
000cb378 g     F .text	0000003c __i2b
000c9814 g     F .text	000004c8 __sfvwrite_r
000cc634 g     F .text	00000054 _sbrk_r
000cbffc g     F .text	00000060 _read_r
000dc810 g     O .rwdata	00000004 alt_max_fd
000c09e4 g     F .text	0000001c isspace
000d2d74 g     F .text	000000f0 _fclose_r
000c9000 g     F .text	00000030 fflush
000de330 g     O .bss	00000004 __malloc_max_sbrked_mem
000c3590 g     F .text	0000198c __ssvfscanf_r
000d5134 g     F .text	000008ac .hidden __adddf3
000d4f38 g     F .text	00000078 .hidden __nesf2
000cbb88 g     F .text	0000010c __b2d
000d4798 g     F .text	000005c4 .hidden __umoddi3
000d7fc4 g     F .text	000000dc lseek
000dc7e4 g     O .rwdata	00000004 _global_impure_ptr
000cc05c g     F .text	00000564 _realloc_r
000de678 g       *ABS*	00000000 __bss_end
000d95f4 g     F .text	000000f0 alt_iic_isr_register
000d9b64 g     F .text	00000108 alt_tick
000daafe g     O .rodata	00000100 __hexdig
000d419c g     F .text	000005fc .hidden __udivdi3
000d2fdc g     F .text	00000024 _fputwc_r
000da94c g     O .rodata	00000028 __mprec_bigtens
000cb15c g     F .text	00000104 __s2b
000d78cc g     F .text	000000a8 .hidden __floatunsidf
000cb8c8 g     F .text	00000060 __mcmp
000c93b0 g     F .text	00000018 __fp_lock_all
000d95a8 g     F .text	0000004c alt_ic_irq_enabled
000d9ac8 g     F .text	0000009c alt_alarm_stop
000ce118 g     F .text	0000001c strtol
000de344 g     O .bss	00000004 alt_irq_active
000c00ec g     F .exceptions	000000d4 alt_irq_handler
000db5d8 g     O .rwdata	00000028 alt_dev_null
000d9264 g     F .text	00000020 alt_dcache_flush_all
000cb260 g     F .text	00000068 __hi0bits
000d7770 g     F .text	00000080 .hidden __fixdfsi
000cdda8 g     F .text	00000018 strtod
000dc828 g       *ABS*	00000000 __ram_rwdata_end
000dc808 g     O .rwdata	00000008 alt_dev_list
000d8414 g     F .text	00000100 write
000d4fb0 g     F .text	000000bc .hidden __gtsf2
000dad34 g       *ABS*	00000000 __ram_rodata_end
000d7cfc g     F .text	000000b8 fstat
000d6514 g     F .text	000000f4 .hidden __ledf2
000cb640 g     F .text	00000140 __pow5mult
000d16b4 g     F .text	0000150c ___vfiprintf_internal_r
000de328 g     O .bss	00000004 __nlocale_changed
000d4eb8 g     F .text	00000058 .hidden __umodsi3
000de678 g       *ABS*	00000000 end
000d8740 g     F .text	000000c0 altera_avalon_jtag_uart_init
000da280 g       *ABS*	00000000 __CTOR_LIST__
000e0000 g       *ABS*	00000000 __alt_stack_pointer
000d90bc g     F .text	0000007c alt_avalon_timer_sc_init
000d7b1c g     F .text	00000064 .hidden __clzsi2
000d8e20 g     F .text	00000224 altera_avalon_jtag_uart_write
000c93a0 g     F .text	00000004 __sfp_lock_acquire
000cabbc g     F .text	000000e4 memchr
000c4f1c g     F .text	000022dc ___vfprintf_internal_r
000c0c68 g     F .text	00000058 _sprintf_r
000c9504 g     F .text	00000310 _free_r
000c9f1c g     F .text	00000010 __locale_mb_cur_max
000da0cc g     F .text	00000180 __call_exitprocs
000cff5c g     F .text	00000108 _sungetc_r
000de324 g     O .bss	00000004 __mlocale_changed
000dc7f0 g     O .rwdata	00000004 __malloc_sbrk_base
000c01c0 g     F .text	0000003c _start
000de348 g     O .bss	00000004 _alt_tick_rate
000ce134 g     F .text	00000304 _strtoll_r
000cb780 g     F .text	00000148 __lshift
000de34c g     O .bss	00000004 _alt_nticks
000d81a0 g     F .text	00000104 read
000d8580 g     F .text	0000005c alt_sys_init
000ce9ec g     F .text	000001d0 __ssprint_r
000d9fb4 g     F .text	00000118 __register_exitproc
000c1160 g     F .text	000000d0 strncmp
000cb3b4 g     F .text	0000028c __multiply
000d8aac g     F .text	00000068 altera_avalon_jtag_uart_close
000d4f10 g     F .text	00000028 .hidden __mulsi3
000dad34 g       *ABS*	00000000 __ram_rwdata_start
000da280 g       *ABS*	00000000 __ram_rodata_start
000de550 g     O .bss	00000028 __malloc_current_mallinfo
000d4f38 g     F .text	00000078 .hidden __eqsf2
000cbc94 g     F .text	0000014c __d2b
000d85dc g     F .text	00000060 altera_avalon_jtag_uart_read_fd
000ce438 g     F .text	00000278 _strtoul_r
000d9e28 g     F .text	000000c4 alt_get_fd
000c7484 g     F .text	00000054 _close_r
000d9f38 g     F .text	0000007c memcmp
000d869c g     F .text	00000050 altera_avalon_jtag_uart_close_fd
000de678 g       *ABS*	00000000 __alt_stack_base
000d86ec g     F .text	00000054 altera_avalon_jtag_uart_ioctl_fd
000c0d2c g     F .text	0000007c sscanf
000c7330 g     F .text	00000154 __swsetup_r
000d59e0 g     F .text	000009d0 .hidden __divdf3
000c9260 g     F .text	00000118 __sfp
000cbef8 g     F .text	00000078 __copybits
000db1d0 g     O .rwdata	00000408 __malloc_av_
000c93ac g     F .text	00000004 __sinit_lock_release
000d6608 g     F .text	0000086c .hidden __muldf3
000c0e20 g     F .text	00000054 __sread
000d9d20 g     F .text	00000108 alt_find_file
000d92c0 g     F .text	000000a4 alt_dev_llist_insert
000d811c g     F .text	00000024 __malloc_lock
000d8328 g     F .text	000000b0 sbrk
000c12d4 g     F .text	000022bc ___svfprintf_internal_r
000c8fa4 g     F .text	0000005c _fflush_r
000d2c98 g     F .text	000000dc _calloc_r
000de31c g       *ABS*	00000000 __bss_start
000c0a00 g     F .text	00000128 memset
000c01fc g     F .text	00000028 main
000de340 g     O .bss	00000004 alt_envp
000de32c g     O .bss	00000004 __malloc_max_total_mem
000d863c g     F .text	00000060 altera_avalon_jtag_uart_write_fd
000c03a4 g     F .text	0000009c tis_register_encode
000d3e1c g     F .text	00000018 __swbuf
000d506c g     F .text	000000c8 .hidden __ltsf2
000c0f54 g     F .text	00000008 __sclose
000e0000 g       *ABS*	00000000 __alt_heap_limit
000d2e64 g     F .text	00000014 fclose
000cdec0 g     F .text	00000258 _strtol_r
000d7974 g     F .text	000001a8 .hidden __truncdfsf2
000c7700 g     F .text	00001688 _dtoa_r
000ca18c g     F .text	0000080c _malloc_r
000d3f90 g     F .text	00000030 __ascii_wctomb
000dc814 g     O .rwdata	00000004 alt_errno
000d1320 g     F .text	000000d4 __submore
000c9cdc g     F .text	000000c4 _fwalk
000c04d8 g     F .text	00000038 tis_imm11_encode
000cab60 g     F .text	0000005c _mbtowc_r
000d4d5c g     F .text	00000084 .hidden __divsi3
000c93e0 g     F .text	00000124 _malloc_trim_r
000da280 g       *ABS*	00000000 __CTOR_END__
000c0f5c g     F .text	000000dc strcmp
000da280 g       *ABS*	00000000 __flash_rodata_start
000da280 g       *ABS*	00000000 __DTOR_LIST__
000d63b0 g     F .text	00000088 .hidden __nedf2
000d8548 g     F .text	00000038 alt_irq_init
000d82a4 g     F .text	00000084 alt_release_fd
000c0cc0 g     F .text	0000006c sprintf
000dabfe g     O .rodata	00000100 .hidden __clz_tab
000de320 g     O .bss	00000004 _PathLocale
000c0224 g     F .text	00000180 tis_decode
000cddc0 g     F .text	00000100 strtof
000d9eec g     F .text	00000014 atexit
000d4fb0 g     F .text	000000bc .hidden __gesf2
000c72d0 g     F .text	00000060 _write_r
000c9f4c g     F .text	00000018 setlocale
000cc758 g     F .text	00000008 nanf
000dc7e8 g     O .rwdata	00000004 _impure_ptr
000de338 g     O .bss	00000004 alt_argc
000c8d88 g     F .text	0000021c __sflush_r
000ca998 g     F .text	000000ac _mbrtowc_r
000d93c4 g     F .text	00000060 _do_dtors
000c9f38 g     F .text	00000008 __locale_cjk_lang
000c0020 g       .exceptions	00000000 alt_irq_entry
000cab1c g     F .text	00000044 __ascii_mbtowc
000cbb24 g     F .text	00000064 __ulp
000c93c8 g     F .text	00000018 __fp_unlock_all
000dc800 g     O .rwdata	00000008 alt_fs_list
000d01d4 g     F .text	0000114c __ssvfiscanf_r
000c0020 g       *ABS*	00000000 __ram_exceptions_start
000c9f64 g     F .text	0000000c localeconv
000d9444 g     F .text	00000050 alt_ic_isr_register
000c0da8 g     F .text	00000078 _sscanf_r
000dc828 g       *ABS*	00000000 _edata
000de678 g       *ABS*	00000000 _end
000d2e78 g     F .text	00000164 __fputwc
000c01c0 g       *ABS*	00000000 __ram_exceptions_end
000d8b14 g     F .text	000000f0 altera_avalon_jtag_uart_ioctl
000c0768 g     F .text	000000b0 tis_decode_test
000d951c g     F .text	0000008c alt_ic_irq_disable
000c0e7c g     F .text	0000007c __swrite
000dc7f4 g     O .rwdata	00000004 __malloc_trim_threshold
000d9c6c g     F .text	00000024 altera_nios2_qsys_irq_init
000c9f2c g     F .text	0000000c __locale_msgcharset
000d9f00 g     F .text	00000038 exit
000c9da0 g     F .text	000000c4 _fwalk_reent
000cb928 g     F .text	000001fc __mdiff
000d4de0 g     F .text	00000074 .hidden __modsi3
000dc7e0 g     O .rwdata	00000004 __ctype_ptr__
000e0000 g       *ABS*	00000000 __alt_data_end
000c0020 g     F .exceptions	00000000 alt_exception
000c93a4 g     F .text	00000004 __sfp_lock_release
000cc688 g     F .text	000000d0 __sccl
000da674 g     O .rodata	00000101 _ctype_
000dc7f8 g     O .rwdata	00000004 __mbtowc
000da24c g     F .text	00000034 _exit
000d9138 g     F .text	0000012c alt_alarm_start
000c0924 g     F .text	000000c0 node_info
000d401c g     F .text	0000010c .hidden __muldi3
000c9fd0 g     F .text	000001bc __smakebuf_r
000c10c8 g     F .text	00000098 strlen
000d996c g     F .text	0000015c open
000d6438 g     F .text	000000dc .hidden __gedf2
000d31dc g     F .text	00000850 __gethex
000dc7fc g     O .rwdata	00000004 __wctomb
000d169c g     F .text	00000018 __sprint_r
000d9424 g     F .text	00000020 alt_icache_flush_all
000dc81c g     O .rwdata	00000004 alt_priority_mask
000d9494 g     F .text	00000088 alt_ic_irq_enable
000c71f8 g     F .text	0000001c __vfprintf_internal
000d3fc0 g     F .text	0000005c _wctomb_r
000d6e74 g     F .text	000008fc .hidden __subdf3
000cb2c8 g     F .text	000000b0 __lo0bits
000dc820 g     O .rwdata	00000008 alt_alarm_list
000d13f4 g     F .text	00000194 _ungetc_r
000d9364 g     F .text	00000060 _do_ctors
000d3ed0 g     F .text	000000c0 wcrtomb
000d7bbc g     F .text	000000d8 close
000c0440 g     F .text	00000098 tis_parse_opcode
000d7f04 g     F .text	00000084 alt_load
000d3000 g     F .text	00000080 fputwc
000c93a8 g     F .text	00000004 __sinit_lock_acquire
000cb014 g     F .text	00000148 __multadd
000cafec g     F .text	00000028 _Bfree



Disassembly of section .entry:

000c0000 <__reset>:
 * Jump to the _start entry point in the .text section if reset code
 * is allowed or if optimizing for RTL simulation.
 */
#if defined(ALT_ALLOW_CODE_AT_RESET) || defined(ALT_SIM_OPTIMIZE)
    /* Jump to the _start entry point in the .text section. */
    movhi r1, %hi(_start)
   c0000:	00400334 	movhi	at,12
    ori r1, r1, %lo(_start)
   c0004:	08407014 	ori	at,at,448
    jmp r1
   c0008:	0800683a 	jmp	at
	...

Disassembly of section .exceptions:

000c0020 <alt_exception>:

#else /* ALT_EXCEPTION_STACK disabled */
        /* 
         * Reserve space on normal stack for registers about to be pushed.
         */
        addi  sp, sp, -76
   c0020:	deffed04 	addi	sp,sp,-76
         * documentation for details).
         *
         * Leave a gap in the stack frame at 4(sp) for the muldiv handler to
         * store zero into.
         */
        stw   ra,  0(sp)
   c0024:	dfc00015 	stw	ra,0(sp)
        stw   r1,   8(sp)
   c0028:	d8400215 	stw	at,8(sp)
        stw   r2,  12(sp)
   c002c:	d8800315 	stw	r2,12(sp)
        stw   r3,  16(sp)
   c0030:	d8c00415 	stw	r3,16(sp)
        stw   r4,  20(sp)
   c0034:	d9000515 	stw	r4,20(sp)
        stw   r5,  24(sp)
   c0038:	d9400615 	stw	r5,24(sp)
        stw   r6,  28(sp)
   c003c:	d9800715 	stw	r6,28(sp)
        stw   r7,  32(sp)
   c0040:	d9c00815 	stw	r7,32(sp)
        rdctl r5, estatus   /* Read early to avoid usage stall */
   c0044:	000b307a 	rdctl	r5,estatus
        stw   r8,  36(sp)
   c0048:	da000915 	stw	r8,36(sp)
        stw   r9,  40(sp)
   c004c:	da400a15 	stw	r9,40(sp)
        stw   r10, 44(sp)
   c0050:	da800b15 	stw	r10,44(sp)
        stw   r11, 48(sp)
   c0054:	dac00c15 	stw	r11,48(sp)
        stw   r12, 52(sp)
   c0058:	db000d15 	stw	r12,52(sp)
        stw   r13, 56(sp)
   c005c:	db400e15 	stw	r13,56(sp)
        stw   r14, 60(sp)
   c0060:	db800f15 	stw	r14,60(sp)
        stw   r15, 64(sp)
   c0064:	dbc01015 	stw	r15,64(sp)
        /*
         * ea-4 contains the address of the instruction being executed
         * when the exception occured. For interrupt exceptions, we will
         * will be re-issue the isntruction. Store it in 72(sp)
         */
        stw   r5,  68(sp)  /* estatus */
   c0068:	d9401115 	stw	r5,68(sp)
        addi  r15, ea, -4  /* instruction that caused exception */
   c006c:	ebffff04 	addi	r15,ea,-4
        stw   r15,  72(sp)
   c0070:	dbc01215 	stw	r15,72(sp)
#else
        /*
         * Test to see if the exception was a software exception or caused 
         * by an external interrupt, and vector accordingly.
         */
        rdctl r4, ipending
   c0074:	0009313a 	rdctl	r4,ipending
        andi  r2, r5, 1
   c0078:	2880004c 	andi	r2,r5,1
        beq   r2, zero, .Lnot_irq
   c007c:	10000326 	beq	r2,zero,c008c <alt_exception+0x6c>
        beq   r4, zero, .Lnot_irq
   c0080:	20000226 	beq	r4,zero,c008c <alt_exception+0x6c>
        /*
         * Now that all necessary registers have been preserved, call 
         * alt_irq_handler() to process the interrupts.
         */

        call alt_irq_handler
   c0084:	00c00ec0 	call	c00ec <alt_irq_handler>

        .section .exceptions.irqreturn, "xa"

        br    .Lexception_exit
   c0088:	00000306 	br	c0098 <alt_exception_unknown+0x4>
         * upon completion, so we write ea (address of instruction *after*
         * the one where the exception occured) into 72(sp). The actual
         * instruction that caused the exception is written in r2, which these
         * handlers will utilize.
         */
        stw   ea,  72(sp)  /* Don't re-issue */
   c008c:	df401215 	stw	ea,72(sp)
        ldw   r2, -4(ea)   /* Instruction that caused exception */
   c0090:	e8bfff17 	ldw	r2,-4(ea)

000c0094 <alt_exception_unknown>:
#ifdef NIOS2_HAS_DEBUG_STUB
       /*
        *  Either tell the user now (if there is a debugger attached) or go into
        *  the debug monitor which will loop until a debugger is attached.
        */
        break
   c0094:	003da03a 	break	0
        /* 
         * Restore the saved registers, so that all general purpose registers 
         * have been restored to their state at the time the interrupt occured.
         */

        ldw   r5,  68(sp)
   c0098:	d9401117 	ldw	r5,68(sp)
        ldw   ea,  72(sp)  /* This becomes the PC once eret is executed */
   c009c:	df401217 	ldw	ea,72(sp)
        ldw   ra,   0(sp)
   c00a0:	dfc00017 	ldw	ra,0(sp)

        wrctl estatus, r5
   c00a4:	2801707a 	wrctl	estatus,r5

        ldw   r1,   8(sp)
   c00a8:	d8400217 	ldw	at,8(sp)
        ldw   r2,  12(sp)
   c00ac:	d8800317 	ldw	r2,12(sp)
        ldw   r3,  16(sp)
   c00b0:	d8c00417 	ldw	r3,16(sp)
        ldw   r4,  20(sp)
   c00b4:	d9000517 	ldw	r4,20(sp)
        ldw   r5,  24(sp)
   c00b8:	d9400617 	ldw	r5,24(sp)
        ldw   r6,  28(sp)
   c00bc:	d9800717 	ldw	r6,28(sp)
        ldw   r7,  32(sp)
   c00c0:	d9c00817 	ldw	r7,32(sp)

#if defined(ALT_EXCEPTION_STACK) && defined(ALT_STACK_CHECK)
        ldw   et, %gprel(alt_exception_old_stack_limit)(gp)
#endif

        ldw   r8,  36(sp)
   c00c4:	da000917 	ldw	r8,36(sp)
        ldw   r9,  40(sp)
   c00c8:	da400a17 	ldw	r9,40(sp)
        ldw   r10, 44(sp)
   c00cc:	da800b17 	ldw	r10,44(sp)
        ldw   r11, 48(sp)
   c00d0:	dac00c17 	ldw	r11,48(sp)
        ldw   r12, 52(sp)
   c00d4:	db000d17 	ldw	r12,52(sp)
        ldw   r13, 56(sp)
   c00d8:	db400e17 	ldw	r13,56(sp)
        ldw   r14, 60(sp)
   c00dc:	db800f17 	ldw	r14,60(sp)
        ldw   r15, 64(sp)
   c00e0:	dbc01017 	ldw	r15,64(sp)
        stw   et, %gprel(alt_stack_limit_value)(gp)
        stw   zero, %gprel(alt_exception_old_stack_limit)(gp)
#endif /* ALT_STACK_CHECK */
        ldw   sp,  76(sp)
#else /* ALT_EXCEPTION_STACK disabled */
        addi  sp, sp, 76
   c00e4:	dec01304 	addi	sp,sp,76

        /*
         * Return to the interrupted instruction.
         */

        eret
   c00e8:	ef80083a 	eret

000c00ec <alt_irq_handler>:
 * instruction is present if the macro ALT_CI_INTERRUPT_VECTOR defined.
 */

void alt_irq_handler (void) __attribute__ ((section (".exceptions")));
void alt_irq_handler (void)
{
   c00ec:	defff904 	addi	sp,sp,-28
   c00f0:	dfc00615 	stw	ra,24(sp)
   c00f4:	df000515 	stw	fp,20(sp)
   c00f8:	df000504 	addi	fp,sp,20
  
  /*
   * Notify the operating system that we are at interrupt level.
   */ 
  
  ALT_OS_INT_ENTER();
   c00fc:	0001883a 	nop
#ifndef NIOS2_EIC_PRESENT
static ALT_INLINE alt_u32 ALT_ALWAYS_INLINE alt_irq_pending (void)
{
  alt_u32 active;

  NIOS2_READ_IPENDING (active);
   c0100:	0005313a 	rdctl	r2,ipending
   c0104:	e0bffe15 	stw	r2,-8(fp)

  return active;
   c0108:	e0bffe17 	ldw	r2,-8(fp)
   * Consider the case where the high priority interupt is asserted during
   * the interrupt entry sequence for a lower priority interrupt to see why
   * this is the case.
   */

  active = alt_irq_pending ();
   c010c:	e0bffb15 	stw	r2,-20(fp)

  do
  {
    i = 0;
   c0110:	e03ffd15 	stw	zero,-12(fp)
    mask = 1;
   c0114:	00800044 	movi	r2,1
   c0118:	e0bffc15 	stw	r2,-16(fp)
     * called to clear the interrupt condition.
     */

    do
    {
      if (active & mask)
   c011c:	e0fffb17 	ldw	r3,-20(fp)
   c0120:	e0bffc17 	ldw	r2,-16(fp)
   c0124:	1884703a 	and	r2,r3,r2
   c0128:	10001426 	beq	r2,zero,c017c <alt_irq_handler+0x90>
      { 
#ifdef ALT_ENHANCED_INTERRUPT_API_PRESENT
        alt_irq[i].handler(alt_irq[i].context); 
   c012c:	008003b4 	movhi	r2,14
   c0130:	10b95e04 	addi	r2,r2,-6792
   c0134:	e0fffd17 	ldw	r3,-12(fp)
   c0138:	180690fa 	slli	r3,r3,3
   c013c:	10c5883a 	add	r2,r2,r3
   c0140:	10c00017 	ldw	r3,0(r2)
   c0144:	008003b4 	movhi	r2,14
   c0148:	10b95e04 	addi	r2,r2,-6792
   c014c:	e13ffd17 	ldw	r4,-12(fp)
   c0150:	200890fa 	slli	r4,r4,3
   c0154:	1105883a 	add	r2,r2,r4
   c0158:	10800104 	addi	r2,r2,4
   c015c:	10800017 	ldw	r2,0(r2)
   c0160:	1009883a 	mov	r4,r2
   c0164:	183ee83a 	callr	r3
#else
        alt_irq[i].handler(alt_irq[i].context, i); 
#endif
        break;
   c0168:	0001883a 	nop
#ifndef NIOS2_EIC_PRESENT
static ALT_INLINE alt_u32 ALT_ALWAYS_INLINE alt_irq_pending (void)
{
  alt_u32 active;

  NIOS2_READ_IPENDING (active);
   c016c:	0005313a 	rdctl	r2,ipending
   c0170:	e0bfff15 	stw	r2,-4(fp)

  return active;
   c0174:	e0bfff17 	ldw	r2,-4(fp)
   c0178:	00000706 	br	c0198 <alt_irq_handler+0xac>
      }
      mask <<= 1;
   c017c:	e0bffc17 	ldw	r2,-16(fp)
   c0180:	1085883a 	add	r2,r2,r2
   c0184:	e0bffc15 	stw	r2,-16(fp)
      i++;
   c0188:	e0bffd17 	ldw	r2,-12(fp)
   c018c:	10800044 	addi	r2,r2,1
   c0190:	e0bffd15 	stw	r2,-12(fp)

    } while (1);
   c0194:	003fe106 	br	c011c <_gp+0xfffdb93c>

    active = alt_irq_pending ();
   c0198:	e0bffb15 	stw	r2,-20(fp)
    
  } while (active);
   c019c:	e0bffb17 	ldw	r2,-20(fp)
   c01a0:	103fdb1e 	bne	r2,zero,c0110 <_gp+0xfffdb930>

  /*
   * Notify the operating system that interrupt processing is complete.
   */ 

  ALT_OS_INT_EXIT();
   c01a4:	0001883a 	nop
}
   c01a8:	0001883a 	nop
   c01ac:	e037883a 	mov	sp,fp
   c01b0:	dfc00117 	ldw	ra,4(sp)
   c01b4:	df000017 	ldw	fp,0(sp)
   c01b8:	dec00204 	addi	sp,sp,8
   c01bc:	f800283a 	ret

Disassembly of section .text:

000c01c0 <_start>:

    /*
     * Now that the caches are initialized, set up the stack pointer and global pointer.
     * The values provided by the linker are assumed to be correctly aligned.
     */
    movhi sp, %hi(__alt_stack_pointer)
   c01c0:	06c003b4 	movhi	sp,14
    ori sp, sp, %lo(__alt_stack_pointer)
   c01c4:	dec00014 	ori	sp,sp,0
    movhi gp, %hi(_gp)
   c01c8:	068003b4 	movhi	gp,14
    ori gp, gp, %lo(_gp)
   c01cc:	d691f814 	ori	gp,gp,18400
 */
#ifndef ALT_SIM_OPTIMIZE
    /* Log that the BSS is about to be cleared. */
    ALT_LOG_PUTS(alt_log_msg_bss)

    movhi r2, %hi(__bss_start)
   c01d0:	00800374 	movhi	r2,13
    ori r2, r2, %lo(__bss_start)
   c01d4:	10b8c714 	ori	r2,r2,58140

    movhi r3, %hi(__bss_end)
   c01d8:	00c00374 	movhi	r3,13
    ori r3, r3, %lo(__bss_end)
   c01dc:	18f99e14 	ori	r3,r3,59000

    beq r2, r3, 1f
   c01e0:	10c00326 	beq	r2,r3,c01f0 <_start+0x30>

0:
    stw zero, (r2)
   c01e4:	10000015 	stw	zero,0(r2)
    addi r2, r2, 4
   c01e8:	10800104 	addi	r2,r2,4
    bltu r2, r3, 0b
   c01ec:	10fffd36 	bltu	r2,r3,c01e4 <_gp+0xfffdba04>
     * section aren't defined until alt_load() has been called).
     */
    mov   et, zero
#endif

    call alt_load
   c01f0:	00d7f040 	call	d7f04 <alt_load>

    /* Log that alt_main is about to be called. */
    ALT_LOG_PUTS(alt_log_msg_alt_main)

    /* Call the C entry point. It should never return. */
    call alt_main
   c01f4:	00d80a00 	call	d80a0 <alt_main>

000c01f8 <alt_after_alt_main>:

    /* Wait in infinite loop in case alt_main does return. */
alt_after_alt_main:
    br alt_after_alt_main
   c01f8:	003fff06 	br	c01f8 <_gp+0xfffdba18>

000c01fc <main>:
//    },
//};

int main()
{
  puts("Hello from Nios II!\n");
   c01fc:	010003b4 	movhi	r4,14
//        0x0806
//    },
//};

int main()
{
   c0200:	deffff04 	addi	sp,sp,-4
  puts("Hello from Nios II!\n");
   c0204:	2128a004 	addi	r4,r4,-23936
//        0x0806
//    },
//};

int main()
{
   c0208:	dfc00015 	stw	ra,0(sp)
  puts("Hello from Nios II!\n");
   c020c:	00c0c540 	call	c0c54 <puts>
//
//  // Test assembly decoding
//   tis_decode_test();

   // Test assembly decoding
   tis_encode_test();
   c0210:	00c08180 	call	c0818 <tis_encode_test>

  return 0;
}
   c0214:	0005883a 	mov	r2,zero
   c0218:	dfc00017 	ldw	ra,0(sp)
   c021c:	dec00104 	addi	sp,sp,4
   c0220:	f800283a 	ret

000c0224 <tis_decode>:
static const char *instructions_str[] = {
    "NOP",          "ADD 421",      "SUB 421",       "ADD ANY",
    "SUB NIL",      "MOV 744, ACC", "MOV 856, LEFT", "MOV LEFT, RIGHT",
    "MOV UP, DOWN", "NEG",          "SWP",           "SAV"};

int tis_decode(uint16_t instruction, char *buffer) {
   c0224:	200d883a 	mov	r6,r4
   c0228:	2809883a 	mov	r4,r5
    if (instruction & 0x8000 && instruction & 0x4000) {
   c022c:	317fffcc 	andi	r5,r6,65535
static const char *instructions_str[] = {
    "NOP",          "ADD 421",      "SUB 421",       "ADD ANY",
    "SUB NIL",      "MOV 744, ACC", "MOV 856, LEFT", "MOV LEFT, RIGHT",
    "MOV UP, DOWN", "NEG",          "SWP",           "SAV"};

int tis_decode(uint16_t instruction, char *buffer) {
   c0230:	deffff04 	addi	sp,sp,-4
    if (instruction & 0x8000 && instruction & 0x4000) {
   c0234:	2960001c 	xori	r5,r5,32768
static const char *instructions_str[] = {
    "NOP",          "ADD 421",      "SUB 421",       "ADD ANY",
    "SUB NIL",      "MOV 744, ACC", "MOV 856, LEFT", "MOV LEFT, RIGHT",
    "MOV UP, DOWN", "NEG",          "SWP",           "SAV"};

int tis_decode(uint16_t instruction, char *buffer) {
   c0238:	dfc00015 	stw	ra,0(sp)
    if (instruction & 0x8000 && instruction & 0x4000) {
   c023c:	29600004 	addi	r5,r5,-32768
   c0240:	30d0000c 	andi	r3,r6,16384
   c0244:	30bfffcc 	andi	r2,r6,65535
   c0248:	2800190e 	bge	r5,zero,c02b0 <tis_decode+0x8c>
   c024c:	014003b4 	movhi	r5,14
   c0250:	29696004 	addi	r5,r5,-23168
   c0254:	18000c26 	beq	r3,zero,c0288 <tis_decode+0x64>
        // MOV <SRC>, <DST>
        tis_reg_t src = instruction & register_mask;
        tis_reg_t dst = (instruction >> 11) & register_mask;
        return sprintf(buffer, "MOV %s, %s", regs[src], regs[dst]);
   c0258:	1006d27a 	srli	r3,r2,9
   c025c:	318001cc 	andi	r6,r6,7
   c0260:	318d883a 	add	r6,r6,r6
   c0264:	18c0070c 	andi	r3,r3,28
   c0268:	318d883a 	add	r6,r6,r6
   c026c:	28c7883a 	add	r3,r5,r3
   c0270:	298d883a 	add	r6,r5,r6
   c0274:	014003b4 	movhi	r5,14
   c0278:	19c00017 	ldw	r7,0(r3)
   c027c:	31800017 	ldw	r6,0(r6)
   c0280:	2968a604 	addi	r5,r5,-23912
   c0284:	00000706 	br	c02a4 <tis_decode+0x80>
    } else if (instruction & 0x8000) {
        // MOV #<imm11>, <DST>
        tis_reg_t dst = (instruction >> 11) & register_mask;
        return sprintf(buffer, "MOV %d, %s", instruction & imm11_mask,
   c0288:	1004d27a 	srli	r2,r2,9
   c028c:	3181ffcc 	andi	r6,r6,2047
   c0290:	1080070c 	andi	r2,r2,28
   c0294:	2885883a 	add	r2,r5,r2
   c0298:	11c00017 	ldw	r7,0(r2)
   c029c:	014003b4 	movhi	r5,14
   c02a0:	2968a904 	addi	r5,r5,-23900
                // SUB #<imm10>
                return sprintf(buffer, "ADD %d", instruction & imm10_mask);
            }
        }
    }
}
   c02a4:	dfc00017 	ldw	ra,0(sp)
   c02a8:	dec00104 	addi	sp,sp,4
        tis_reg_t dst = (instruction >> 11) & register_mask;
        return sprintf(buffer, "MOV %s, %s", regs[src], regs[dst]);
    } else if (instruction & 0x8000) {
        // MOV #<imm11>, <DST>
        tis_reg_t dst = (instruction >> 11) & register_mask;
        return sprintf(buffer, "MOV %d, %s", instruction & imm11_mask,
   c02ac:	00c0cc01 	jmpi	c0cc0 <sprintf>
                       regs[dst]);
    } else if (instruction & 0x4000) {
   c02b0:	18001126 	beq	r3,zero,c02f8 <tis_decode+0xd4>
        // NEG, SWP, SAV, JRO
        if (instruction == 0x4800) {
   c02b4:	00d20004 	movi	r3,18432
   c02b8:	10c0031e 	bne	r2,r3,c02c8 <tis_decode+0xa4>
            return sprintf(buffer, "NEG");
   c02bc:	014003b4 	movhi	r5,14
   c02c0:	2968ac04 	addi	r5,r5,-23888
   c02c4:	00000906 	br	c02ec <tis_decode+0xc8>
        } else if (instruction == 0x5000) {
   c02c8:	00d40004 	movi	r3,20480
   c02cc:	10c0031e 	bne	r2,r3,c02dc <tis_decode+0xb8>
            return sprintf(buffer, "SWP");
   c02d0:	014003b4 	movhi	r5,14
   c02d4:	2968ad04 	addi	r5,r5,-23884
   c02d8:	00000406 	br	c02ec <tis_decode+0xc8>
        } else if (instruction == 0x4000) {
   c02dc:	00d00004 	movi	r3,16384
   c02e0:	10c02d1e 	bne	r2,r3,c0398 <tis_decode+0x174>
            return sprintf(buffer, "SAV");
   c02e4:	014003b4 	movhi	r5,14
   c02e8:	2968ae04 	addi	r5,r5,-23880
   c02ec:	00c10380 	call	c1038 <strcpy>
   c02f0:	008000c4 	movi	r2,3
   c02f4:	00002806 	br	c0398 <tis_decode+0x174>
        }
    } else if (instruction == 0) {
   c02f8:	1000031e 	bne	r2,zero,c0308 <tis_decode+0xe4>
        return sprintf(buffer, "NOP");
   c02fc:	014003b4 	movhi	r5,14
   c0300:	2968af04 	addi	r5,r5,-23876
   c0304:	003ff906 	br	c02ec <_gp+0xfffdbb0c>
    } else {
        // ADD, SUB
        uint16_t negative = instruction & 0x400;
        uint16_t use_register = instruction & 0x800;
   c0308:	3082000c 	andi	r2,r6,2048
        if (negative) {
   c030c:	30c1000c 	andi	r3,r6,1024
   c0310:	10bfffcc 	andi	r2,r2,65535
   c0314:	18000f26 	beq	r3,zero,c0354 <tis_decode+0x130>
            if (use_register) {
   c0318:	10000a26 	beq	r2,zero,c0344 <tis_decode+0x120>
                // SUB <SRC>
                tis_reg_t src = instruction & register_mask;
                return sprintf(buffer, "SUB %s", regs[src]);
   c031c:	318001cc 	andi	r6,r6,7
   c0320:	318d883a 	add	r6,r6,r6
   c0324:	008003b4 	movhi	r2,14
   c0328:	318d883a 	add	r6,r6,r6
   c032c:	10a96004 	addi	r2,r2,-23168
   c0330:	118d883a 	add	r6,r2,r6
   c0334:	014003b4 	movhi	r5,14
   c0338:	31800017 	ldw	r6,0(r6)
   c033c:	2968b004 	addi	r5,r5,-23872
   c0340:	00001206 	br	c038c <tis_decode+0x168>
            } else {
                // SUB #<imm10>
                return sprintf(buffer, "SUB %d", instruction & imm10_mask);
   c0344:	014003b4 	movhi	r5,14
   c0348:	3180ffcc 	andi	r6,r6,1023
   c034c:	2968b204 	addi	r5,r5,-23864
   c0350:	00000e06 	br	c038c <tis_decode+0x168>
            }
        } else {
            if (use_register) {
   c0354:	10000a26 	beq	r2,zero,c0380 <tis_decode+0x15c>
                // SUB <SRC>
                tis_reg_t src = instruction & register_mask;
                return sprintf(buffer, "ADD %s", regs[src]);
   c0358:	318001cc 	andi	r6,r6,7
   c035c:	318d883a 	add	r6,r6,r6
   c0360:	008003b4 	movhi	r2,14
   c0364:	318d883a 	add	r6,r6,r6
   c0368:	10a96004 	addi	r2,r2,-23168
   c036c:	118d883a 	add	r6,r2,r6
   c0370:	014003b4 	movhi	r5,14
   c0374:	31800017 	ldw	r6,0(r6)
   c0378:	2968b404 	addi	r5,r5,-23856
   c037c:	00000306 	br	c038c <tis_decode+0x168>
            } else {
                // SUB #<imm10>
                return sprintf(buffer, "ADD %d", instruction & imm10_mask);
   c0380:	014003b4 	movhi	r5,14
   c0384:	3180ffcc 	andi	r6,r6,1023
   c0388:	2968b604 	addi	r5,r5,-23848
            }
        }
    }
}
   c038c:	dfc00017 	ldw	ra,0(sp)
   c0390:	dec00104 	addi	sp,sp,4
                // SUB <SRC>
                tis_reg_t src = instruction & register_mask;
                return sprintf(buffer, "ADD %s", regs[src]);
            } else {
                // SUB #<imm10>
                return sprintf(buffer, "ADD %d", instruction & imm10_mask);
   c0394:	00c0cc01 	jmpi	c0cc0 <sprintf>
            }
        }
    }
}
   c0398:	dfc00017 	ldw	ra,0(sp)
   c039c:	dec00104 	addi	sp,sp,4
   c03a0:	f800283a 	ret

000c03a4 <tis_register_encode>:

tis_reg_t tis_register_encode(const char *str) {
   c03a4:	defff904 	addi	sp,sp,-28
   c03a8:	dd400515 	stw	r21,20(sp)
    for (char i = 0; i < (sizeof(regs) / sizeof(regs[0])); i++) {
        if (strncmp(str, regs[i], strlen(regs[i])) == 0) {
   c03ac:	054003b4 	movhi	r21,14
            }
        }
    }
}

tis_reg_t tis_register_encode(const char *str) {
   c03b0:	dd000415 	stw	r20,16(sp)
   c03b4:	dcc00315 	stw	r19,12(sp)
   c03b8:	dc000015 	stw	r16,0(sp)
   c03bc:	dfc00615 	stw	ra,24(sp)
   c03c0:	dc800215 	stw	r18,8(sp)
   c03c4:	dc400115 	stw	r17,4(sp)
   c03c8:	2029883a 	mov	r20,r4
   c03cc:	0021883a 	mov	r16,zero
    for (char i = 0; i < (sizeof(regs) / sizeof(regs[0])); i++) {
        if (strncmp(str, regs[i], strlen(regs[i])) == 0) {
   c03d0:	ad696004 	addi	r21,r21,-23168
        }
    }
}

tis_reg_t tis_register_encode(const char *str) {
    for (char i = 0; i < (sizeof(regs) / sizeof(regs[0])); i++) {
   c03d4:	04c00204 	movi	r19,8
        if (strncmp(str, regs[i], strlen(regs[i])) == 0) {
   c03d8:	8407883a 	add	r3,r16,r16
   c03dc:	18c7883a 	add	r3,r3,r3
   c03e0:	1d47883a 	add	r3,r3,r21
   c03e4:	1c800017 	ldw	r18,0(r3)
   c03e8:	8023883a 	mov	r17,r16
   c03ec:	84000044 	addi	r16,r16,1
   c03f0:	9009883a 	mov	r4,r18
   c03f4:	00c10c80 	call	c10c8 <strlen>
   c03f8:	100d883a 	mov	r6,r2
   c03fc:	900b883a 	mov	r5,r18
   c0400:	a009883a 	mov	r4,r20
   c0404:	00c11600 	call	c1160 <strncmp>
   c0408:	10000326 	beq	r2,zero,c0418 <tis_register_encode+0x74>
        }
    }
}

tis_reg_t tis_register_encode(const char *str) {
    for (char i = 0; i < (sizeof(regs) / sizeof(regs[0])); i++) {
   c040c:	84fff21e 	bne	r16,r19,c03d8 <_gp+0xfffdbbf8>
        if (strncmp(str, regs[i], strlen(regs[i])) == 0) {
            return (tis_reg_t)i;
        }
    }
    return INVALID;
   c0410:	00bfffc4 	movi	r2,-1
   c0414:	00000106 	br	c041c <tis_register_encode+0x78>
    }
}

tis_reg_t tis_register_encode(const char *str) {
    for (char i = 0; i < (sizeof(regs) / sizeof(regs[0])); i++) {
        if (strncmp(str, regs[i], strlen(regs[i])) == 0) {
   c0418:	8805883a 	mov	r2,r17
            return (tis_reg_t)i;
        }
    }
    return INVALID;
}
   c041c:	dfc00617 	ldw	ra,24(sp)
   c0420:	dd400517 	ldw	r21,20(sp)
   c0424:	dd000417 	ldw	r20,16(sp)
   c0428:	dcc00317 	ldw	r19,12(sp)
   c042c:	dc800217 	ldw	r18,8(sp)
   c0430:	dc400117 	ldw	r17,4(sp)
   c0434:	dc000017 	ldw	r16,0(sp)
   c0438:	dec00704 	addi	sp,sp,28
   c043c:	f800283a 	ret

000c0440 <tis_parse_opcode>:
    [JLZ] = 1,
    [JRO] = 1,
};


tis_opcode_t tis_parse_opcode(const char *str) {
   c0440:	defffa04 	addi	sp,sp,-24
   c0444:	dcc00315 	stw	r19,12(sp)
   c0448:	dfc00515 	stw	ra,20(sp)
   c044c:	dd000415 	stw	r20,16(sp)
   c0450:	dc800215 	stw	r18,8(sp)
   c0454:	dc400115 	stw	r17,4(sp)
   c0458:	dc000015 	stw	r16,0(sp)
   c045c:	2027883a 	mov	r19,r4
    if (strlen(str) != 3) {
   c0460:	00c10c80 	call	c10c8 <strlen>
   c0464:	00c000c4 	movi	r3,3
   c0468:	10c0121e 	bne	r2,r3,c04b4 <tis_parse_opcode+0x74>
        return INVALID;
    }

    for (char i = 0; i < (sizeof(regs) / sizeof(regs[0])); i++) {
        if (strcmp(str, opcodes_str[i]) == 0) {
   c046c:	050003b4 	movhi	r20,14
   c0470:	0021883a 	mov	r16,zero
tis_opcode_t tis_parse_opcode(const char *str) {
    if (strlen(str) != 3) {
        return INVALID;
    }

    for (char i = 0; i < (sizeof(regs) / sizeof(regs[0])); i++) {
   c0474:	04800204 	movi	r18,8
        if (strcmp(str, opcodes_str[i]) == 0) {
   c0478:	a5294104 	addi	r20,r20,-23292
   c047c:	8023883a 	mov	r17,r16
tis_opcode_t tis_parse_opcode(const char *str) {
    if (strlen(str) != 3) {
        return INVALID;
    }

    for (char i = 0; i < (sizeof(regs) / sizeof(regs[0])); i++) {
   c0480:	84800c26 	beq	r16,r18,c04b4 <tis_parse_opcode+0x74>
        if (strcmp(str, opcodes_str[i]) == 0) {
   c0484:	8407883a 	add	r3,r16,r16
   c0488:	18c7883a 	add	r3,r3,r3
   c048c:	1d07883a 	add	r3,r3,r20
   c0490:	19400017 	ldw	r5,0(r3)
   c0494:	9809883a 	mov	r4,r19
   c0498:	84000044 	addi	r16,r16,1
   c049c:	00c0f5c0 	call	c0f5c <strcmp>
   c04a0:	103ff61e 	bne	r2,zero,c047c <_gp+0xfffdbc9c>
            return i;
   c04a4:	88803fcc 	andi	r2,r17,255
   c04a8:	1080201c 	xori	r2,r2,128
   c04ac:	10bfe004 	addi	r2,r2,-128
   c04b0:	00000106 	br	c04b8 <tis_parse_opcode+0x78>
};


tis_opcode_t tis_parse_opcode(const char *str) {
    if (strlen(str) != 3) {
        return INVALID;
   c04b4:	00bfffc4 	movi	r2,-1
        if (strcmp(str, opcodes_str[i]) == 0) {
            return i;
        }
    }
    return INVALID;
}
   c04b8:	dfc00517 	ldw	ra,20(sp)
   c04bc:	dd000417 	ldw	r20,16(sp)
   c04c0:	dcc00317 	ldw	r19,12(sp)
   c04c4:	dc800217 	ldw	r18,8(sp)
   c04c8:	dc400117 	ldw	r17,4(sp)
   c04cc:	dc000017 	ldw	r16,0(sp)
   c04d0:	dec00604 	addi	sp,sp,24
   c04d4:	f800283a 	ret

000c04d8 <tis_imm11_encode>:

// Encodes an imm11 operand from int
int tis_imm11_encode(int integer) {
    if (integer < -999) {
   c04d8:	00bf0644 	movi	r2,-999
   c04dc:	20800816 	blt	r4,r2,c0500 <tis_imm11_encode+0x28>
        return 999 | imm11_sign_bit;
    } else if (integer < 0) {
   c04e0:	2000030e 	bge	r4,zero,c04f0 <tis_imm11_encode+0x18>
        return (integer & imm11_mask) | imm11_sign_bit;
   c04e4:	2100ffcc 	andi	r4,r4,1023
   c04e8:	20810014 	ori	r2,r4,1024
   c04ec:	f800283a 	ret
    } else if (integer < 999) {
   c04f0:	0080f984 	movi	r2,998
   c04f4:	11000416 	blt	r2,r4,c0508 <tis_imm11_encode+0x30>
   c04f8:	2005883a 	mov	r2,r4
   c04fc:	f800283a 	ret
}

// Encodes an imm11 operand from int
int tis_imm11_encode(int integer) {
    if (integer < -999) {
        return 999 | imm11_sign_bit;
   c0500:	0081f9c4 	movi	r2,2023
   c0504:	f800283a 	ret
    } else if (integer < 0) {
        return (integer & imm11_mask) | imm11_sign_bit;
    } else if (integer < 999) {
        return integer;
    }
    return 999;
   c0508:	0080f9c4 	movi	r2,999
}
   c050c:	f800283a 	ret

000c0510 <tis_encode>:

    return 1; // Only whitespace
}

// Returns number of instructions written, or -1 on error
int tis_encode(const char *program, uint16_t *instructions) {
   c0510:	deffdc04 	addi	sp,sp,-144
   c0514:	dc001b15 	stw	r16,108(sp)
   c0518:	2821883a 	mov	r16,r5
    // Copy program to buffer to use strtok
    static char buffer[512];
    strcpy(buffer, program);
   c051c:	200b883a 	mov	r5,r4
   c0520:	010003b4 	movhi	r4,14
   c0524:	2138d404 	addi	r4,r4,-7344

    return 1; // Only whitespace
}

// Returns number of instructions written, or -1 on error
int tis_encode(const char *program, uint16_t *instructions) {
   c0528:	dfc02315 	stw	ra,140(sp)
   c052c:	ddc02215 	stw	r23,136(sp)
   c0530:	dd802115 	stw	r22,132(sp)
   c0534:	dd402015 	stw	r21,128(sp)
   c0538:	dd001f15 	stw	r20,124(sp)
   c053c:	dcc01e15 	stw	r19,120(sp)
   c0540:	dc801d15 	stw	r18,116(sp)
   c0544:	dc401c15 	stw	r17,112(sp)
    // Copy program to buffer to use strtok
    static char buffer[512];
    strcpy(buffer, program);
   c0548:	00c10380 	call	c1038 <strcpy>

    // Replace commas with spaces for sscanf
    char *ptr = buffer;
   c054c:	008003b4 	movhi	r2,14
   c0550:	10b8d404 	addi	r2,r2,-7344
   c0554:	1009883a 	mov	r4,r2
    while(*ptr) {
        if (*ptr == '\0') {
            break;
        } else if (*ptr == ',') {
   c0558:	01400b04 	movi	r5,44
            *ptr = ' ';
   c055c:	01800804 	movi	r6,32
    static char buffer[512];
    strcpy(buffer, program);

    // Replace commas with spaces for sscanf
    char *ptr = buffer;
    while(*ptr) {
   c0560:	10c00007 	ldb	r3,0(r2)
   c0564:	18000426 	beq	r3,zero,c0578 <tis_encode+0x68>
        if (*ptr == '\0') {
            break;
        } else if (*ptr == ',') {
   c0568:	1940011e 	bne	r3,r5,c0570 <tis_encode+0x60>
            *ptr = ' ';
   c056c:	11800005 	stb	r6,0(r2)
        }
        *ptr++;
   c0570:	10800044 	addi	r2,r2,1
   c0574:	003ffa06 	br	c0560 <_gp+0xfffdbd80>
    }

    // Split on newlines
    const char delimeter[] = "\n";
   c0578:	00800284 	movi	r2,10
    // strtok_r pointer
    char *rest = buffer;
   c057c:	d9001915 	stw	r4,100(sp)

    // PC to increase after every parsed instruction
    int pc = 0;
    // Store label pointers for later linking
    char *labels_pos[16] = {0};
   c0580:	01801004 	movi	r6,64
   c0584:	000b883a 	mov	r5,zero
   c0588:	d809883a 	mov	r4,sp
        }
        *ptr++;
    }

    // Split on newlines
    const char delimeter[] = "\n";
   c058c:	d8801a0d 	sth	r2,104(sp)
    char *rest = buffer;

    // PC to increase after every parsed instruction
    int pc = 0;
    // Store label pointers for later linking
    char *labels_pos[16] = {0};
   c0590:	00c0a000 	call	c0a00 <memset>
    char *labels_ref[16] = {0};

	puts("Entering while-loop");
   c0594:	010003b4 	movhi	r4,14
   c0598:	2128b804 	addi	r4,r4,-23840
        for (tis_opcode_t opc = 0; opc < (sizeof(asm_formats) / sizeof(asm_formats[0])); opc++) {
            char src[16];
            char dst[16];

            // sscanf returns opcount, or EOF on failure
            int opcount = sscanf(line, asm_formats[opc], &src, &dst);
   c059c:	054003b4 	movhi	r21,14
            if (opcount != asm_operands[opc]) { 
   c05a0:	058003b4 	movhi	r22,14
    int pc = 0;
    // Store label pointers for later linking
    char *labels_pos[16] = {0};
    char *labels_ref[16] = {0};

	puts("Entering while-loop");
   c05a4:	00c0c540 	call	c0c54 <puts>
    const char delimeter[] = "\n";
    // strtok_r pointer
    char *rest = buffer;

    // PC to increase after every parsed instruction
    int pc = 0;
   c05a8:	0023883a 	mov	r17,zero
        for (tis_opcode_t opc = 0; opc < (sizeof(asm_formats) / sizeof(asm_formats[0])); opc++) {
            char src[16];
            char dst[16];

            // sscanf returns opcount, or EOF on failure
            int opcount = sscanf(line, asm_formats[opc], &src, &dst);
   c05ac:	ad693404 	addi	r21,r21,-23344
            if (opcount != asm_operands[opc]) { 
   c05b0:	b5a92704 	addi	r22,r22,-23396
    char *labels_pos[16] = {0};
    char *labels_ref[16] = {0};

	puts("Entering while-loop");
    while (1) {
        char *line = strtok_r(rest, delimeter, &rest);
   c05b4:	d9001917 	ldw	r4,100(sp)
   c05b8:	d9801904 	addi	r6,sp,100
   c05bc:	d9401a04 	addi	r5,sp,104
   c05c0:	00c12cc0 	call	c12cc <strtok_r>
        int len = strlen(line);
   c05c4:	1009883a 	mov	r4,r2
    char *labels_pos[16] = {0};
    char *labels_ref[16] = {0};

	puts("Entering while-loop");
    while (1) {
        char *line = strtok_r(rest, delimeter, &rest);
   c05c8:	1029883a 	mov	r20,r2
        int len = strlen(line);
   c05cc:	00c10c80 	call	c10c8 <strlen>
   c05d0:	1027883a 	mov	r19,r2

        // End after reaching end of string
        if (line == NULL) {
   c05d4:	a0000226 	beq	r20,zero,c05e0 <tis_encode+0xd0>
   c05d8:	a025883a 	mov	r18,r20
   c05dc:	00000506 	br	c05f4 <tis_encode+0xe4>
            return pc+1;
   c05e0:	88800044 	addi	r2,r17,1
   c05e4:	00005506 	br	c073c <tis_encode+0x22c>
    return 999;
}

static inline int check_empty(const char* str) {
    while (*str) {
        if (!isspace(*str)) {
   c05e8:	00c09e40 	call	c09e4 <isspace>
   c05ec:	10000426 	beq	r2,zero,c0600 <tis_encode+0xf0>
            return 0; // Has characters
        }
        str++;
   c05f0:	94800044 	addi	r18,r18,1
    }
    return 999;
}

static inline int check_empty(const char* str) {
    while (*str) {
   c05f4:	91000007 	ldb	r4,0(r18)
   c05f8:	203ffb1e 	bne	r4,zero,c05e8 <_gp+0xfffdbe08>
   c05fc:	003fed06 	br	c05b4 <_gp+0xfffdbdd4>
        if (check_empty(line)) {
            continue;
        }

        // Check for reasonable line length
        if (len > 20) {
   c0600:	00800504 	movi	r2,20
   c0604:	14c04c16 	blt	r2,r19,c0738 <tis_encode+0x228>
            return -1; 
        }

        // Check for label
        int count = sscanf(line, " %s:", &labels_pos[pc]);
   c0608:	8c4d883a 	add	r6,r17,r17
   c060c:	318d883a 	add	r6,r6,r6
   c0610:	014003b4 	movhi	r5,14
   c0614:	d98d883a 	add	r6,sp,r6
   c0618:	2968bd04 	addi	r5,r5,-23820
   c061c:	a009883a 	mov	r4,r20
   c0620:	00c0d2c0 	call	c0d2c <sscanf>
        if (count == 1) {
   c0624:	00c00044 	movi	r3,1
   c0628:	10c0061e 	bne	r2,r3,c0644 <tis_encode+0x134>
            // Exclude label from instruction parsing
            line = strtok_r(rest, ":", &rest);
   c062c:	d9001917 	ldw	r4,100(sp)
   c0630:	014003b4 	movhi	r5,14
   c0634:	d9801904 	addi	r6,sp,100
   c0638:	2968bf04 	addi	r5,r5,-23812
   c063c:	00c12cc0 	call	c12cc <strtok_r>
   c0640:	1029883a 	mov	r20,r2
        }

        // Check every instruction for a match
        puts("Entering for-loop");
   c0644:	010003b4 	movhi	r4,14
   c0648:	2128c004 	addi	r4,r4,-23808
   c064c:	00c0c540 	call	c0c54 <puts>
        for (tis_opcode_t opc = 0; opc < (sizeof(asm_formats) / sizeof(asm_formats[0])); opc++) {
   c0650:	0025883a 	mov	r18,zero
   c0654:	94a7883a 	add	r19,r18,r18
   c0658:	9ce7883a 	add	r19,r19,r19
            char src[16];
            char dst[16];

            // sscanf returns opcount, or EOF on failure
            int opcount = sscanf(line, asm_formats[opc], &src, &dst);
   c065c:	9d45883a 	add	r2,r19,r21
   c0660:	11400017 	ldw	r5,0(r2)
   c0664:	d9c01004 	addi	r7,sp,64
   c0668:	d9801404 	addi	r6,sp,80
   c066c:	a009883a 	mov	r4,r20
   c0670:	00c0d2c0 	call	c0d2c <sscanf>
            if (opcount != asm_operands[opc]) { 
   c0674:	9da7883a 	add	r19,r19,r22
        for (tis_opcode_t opc = 0; opc < (sizeof(asm_formats) / sizeof(asm_formats[0])); opc++) {
            char src[16];
            char dst[16];

            // sscanf returns opcount, or EOF on failure
            int opcount = sscanf(line, asm_formats[opc], &src, &dst);
   c0678:	102f883a 	mov	r23,r2
            if (opcount != asm_operands[opc]) { 
   c067c:	98800017 	ldw	r2,0(r19)
   c0680:	15c0241e 	bne	r2,r23,c0714 <tis_encode+0x204>
                continue; 
            } 

            // Set instruction identifying bits
            instructions[pc] = 0x0; // TODO asm_codes[opc]; 
   c0684:	8000000d 	sth	zero,0(r16)

            // End if no further operands
            if (opcount == 0) {
   c0688:	b8002526 	beq	r23,zero,c0720 <tis_encode+0x210>
                break;
            }

            // Check if <SRC> is register
            tis_reg_t src_reg = tis_register_encode(src);
   c068c:	d9001404 	addi	r4,sp,80
   c0690:	00c03a40 	call	c03a4 <tis_register_encode>
            if (opc == JMP || opc == JEZ || opc == JGZ || opc == JLZ || opc == JNZ) {
   c0694:	90fffe44 	addi	r3,r18,-7
   c0698:	01000104 	movi	r4,4
   c069c:	20c0202e 	bgeu	r4,r3,c0720 <tis_encode+0x210>
                // Store label string for later linking
                labels_ref[pc] = strstr(line, src);
                break;
            } else if (src_reg != INVALID) {
   c06a0:	00ffffc4 	movi	r3,-1
   c06a4:	10c00e1e 	bne	r2,r3,c06e0 <tis_encode+0x1d0>
                instructions[pc] &= ~register_mask;
                instructions[pc] |= src_reg; 
            } else {
                // Check if <SRC> is integer
                int integer;
                int result = sscanf(src, "%d", &integer);
   c06a8:	014003b4 	movhi	r5,14
   c06ac:	d9801804 	addi	r6,sp,96
   c06b0:	2968b304 	addi	r5,r5,-23860
   c06b4:	d9001404 	addi	r4,sp,80
   c06b8:	00c0d2c0 	call	c0d2c <sscanf>
                if (result != 1) {
   c06bc:	00c00044 	movi	r3,1
   c06c0:	10c01d1e 	bne	r2,r3,c0738 <tis_encode+0x228>
                    // Couldn't parse register nor number
                    return -1;
                }
                if (opc == MOV || opc == SUB || opc == ADD ) {
   c06c4:	90bfffc4 	addi	r2,r18,-1
   c06c8:	00c00084 	movi	r3,2
   c06cc:	18800536 	bltu	r3,r2,c06e4 <tis_encode+0x1d4>
                    // integer goes in first 11 bits.
                    instructions[pc] |= tis_imm11_encode(integer);
   c06d0:	d9001817 	ldw	r4,96(sp)
   c06d4:	00c04d80 	call	c04d8 <tis_imm11_encode>
   c06d8:	80c0000b 	ldhu	r3,0(r16)
   c06dc:	10c4b03a 	or	r2,r2,r3
   c06e0:	8080000d 	sth	r2,0(r16)
                }
            }

            // End if no further operands
            if (opcount == 1) {
   c06e4:	00800044 	movi	r2,1
   c06e8:	b8800d26 	beq	r23,r2,c0720 <tis_encode+0x210>
                break;
            }

            // Check if <DST> is register
            tis_reg_t dst_reg = tis_register_encode(dst);
   c06ec:	d9001004 	addi	r4,sp,64
   c06f0:	00c03a40 	call	c03a4 <tis_register_encode>
            if (dst_reg != INVALID) {
   c06f4:	00ffffc4 	movi	r3,-1
   c06f8:	10c00f26 	beq	r2,r3,c0738 <tis_encode+0x228>
                // Place <DST> in bytes 13-11 
                instructions[pc] &= ~(register_mask<<11);
                instructions[pc] |= dst_reg << 11; 
   c06fc:	8100000b 	ldhu	r4,0(r16)
   c0700:	100492fa 	slli	r2,r2,11
   c0704:	00f1ffc4 	movi	r3,-14337
   c0708:	20c6703a 	and	r3,r4,r3
   c070c:	1884b03a 	or	r2,r3,r2
   c0710:	8080000d 	sth	r2,0(r16)
            line = strtok_r(rest, ":", &rest);
        }

        // Check every instruction for a match
        puts("Entering for-loop");
        for (tis_opcode_t opc = 0; opc < (sizeof(asm_formats) / sizeof(asm_formats[0])); opc++) {
   c0714:	94800044 	addi	r18,r18,1
   c0718:	00800344 	movi	r2,13
   c071c:	90bfcd1e 	bne	r18,r2,c0654 <_gp+0xfffdbe74>
                // Couldn't parse register
                return -1;
            }
            
        }
        puts("Exited for-loop");
   c0720:	010003b4 	movhi	r4,14
   c0724:	2128c504 	addi	r4,r4,-23788
   c0728:	00c0c540 	call	c0c54 <puts>

        // Increase after every line
        pc++;
   c072c:	8c400044 	addi	r17,r17,1
   c0730:	84000084 	addi	r16,r16,2
   c0734:	003f9f06 	br	c05b4 <_gp+0xfffdbdd4>
            continue;
        }

        // Check for reasonable line length
        if (len > 20) {
            return -1; 
   c0738:	00bfffc4 	movi	r2,-1

        // Increase after every line
        pc++;
    }
    puts("Exited while-loop");
}
   c073c:	dfc02317 	ldw	ra,140(sp)
   c0740:	ddc02217 	ldw	r23,136(sp)
   c0744:	dd802117 	ldw	r22,132(sp)
   c0748:	dd402017 	ldw	r21,128(sp)
   c074c:	dd001f17 	ldw	r20,124(sp)
   c0750:	dcc01e17 	ldw	r19,120(sp)
   c0754:	dc801d17 	ldw	r18,116(sp)
   c0758:	dc401c17 	ldw	r17,112(sp)
   c075c:	dc001b17 	ldw	r16,108(sp)
   c0760:	dec02404 	addi	sp,sp,144
   c0764:	f800283a 	ret

000c0768 <tis_decode_test>:

int tis_decode_test() {
   c0768:	defff204 	addi	sp,sp,-56
   c076c:	dd000c15 	stw	r20,48(sp)
   c0770:	dcc00b15 	stw	r19,44(sp)
    for (int i = 0;
         i < (sizeof(instructions_bin) / sizeof(instructions_bin[0])); i++) {
        char buffer[32] = {0};
        tis_decode(instructions_bin[i], buffer);
        printf("%s\n", buffer);
        if (strcmp(buffer, instructions_str[i])) {
   c0774:	050003b4 	movhi	r20,14

int tis_decode_test() {
    for (int i = 0;
         i < (sizeof(instructions_bin) / sizeof(instructions_bin[0])); i++) {
        char buffer[32] = {0};
        tis_decode(instructions_bin[i], buffer);
   c0778:	04c003b4 	movhi	r19,14
        pc++;
    }
    puts("Exited while-loop");
}

int tis_decode_test() {
   c077c:	dc800a15 	stw	r18,40(sp)
   c0780:	dc000815 	stw	r16,32(sp)
   c0784:	dfc00d15 	stw	ra,52(sp)
   c0788:	dc400915 	stw	r17,36(sp)
   c078c:	0021883a 	mov	r16,zero
    for (int i = 0;
         i < (sizeof(instructions_bin) / sizeof(instructions_bin[0])); i++) {
        char buffer[32] = {0};
        tis_decode(instructions_bin[i], buffer);
   c0790:	9ce95a04 	addi	r19,r19,-23192
        printf("%s\n", buffer);
        if (strcmp(buffer, instructions_str[i])) {
   c0794:	a5294e04 	addi	r20,r20,-23240
    }
    puts("Exited while-loop");
}

int tis_decode_test() {
    for (int i = 0;
   c0798:	04800604 	movi	r18,24
         i < (sizeof(instructions_bin) / sizeof(instructions_bin[0])); i++) {
        char buffer[32] = {0};
   c079c:	01800804 	movi	r6,32
   c07a0:	000b883a 	mov	r5,zero
   c07a4:	d809883a 	mov	r4,sp
   c07a8:	00c0a000 	call	c0a00 <memset>
        tis_decode(instructions_bin[i], buffer);
   c07ac:	84c5883a 	add	r2,r16,r19
   c07b0:	1100000b 	ldhu	r4,0(r2)
   c07b4:	d80b883a 	mov	r5,sp
   c07b8:	00c02240 	call	c0224 <tis_decode>
        printf("%s\n", buffer);
   c07bc:	d809883a 	mov	r4,sp
   c07c0:	00c0c540 	call	c0c54 <puts>
        if (strcmp(buffer, instructions_str[i])) {
   c07c4:	8405883a 	add	r2,r16,r16
   c07c8:	1505883a 	add	r2,r2,r20
   c07cc:	14400017 	ldw	r17,0(r2)
   c07d0:	d809883a 	mov	r4,sp
   c07d4:	880b883a 	mov	r5,r17
   c07d8:	00c0f5c0 	call	c0f5c <strcmp>
   c07dc:	10000426 	beq	r2,zero,c07f0 <tis_decode_test+0x88>
            printf("^ Expected %s\n", instructions_str[i]);
   c07e0:	010003b4 	movhi	r4,14
   c07e4:	880b883a 	mov	r5,r17
   c07e8:	2128c904 	addi	r4,r4,-23772
   c07ec:	00c0b580 	call	c0b58 <printf>
   c07f0:	84000084 	addi	r16,r16,2
    }
    puts("Exited while-loop");
}

int tis_decode_test() {
    for (int i = 0;
   c07f4:	84bfe91e 	bne	r16,r18,c079c <_gp+0xfffdbfbc>
        printf("%s\n", buffer);
        if (strcmp(buffer, instructions_str[i])) {
            printf("^ Expected %s\n", instructions_str[i]);
        }
    }
}
   c07f8:	dfc00d17 	ldw	ra,52(sp)
   c07fc:	dd000c17 	ldw	r20,48(sp)
   c0800:	dcc00b17 	ldw	r19,44(sp)
   c0804:	dc800a17 	ldw	r18,40(sp)
   c0808:	dc400917 	ldw	r17,36(sp)
   c080c:	dc000817 	ldw	r16,32(sp)
   c0810:	dec00e04 	addi	sp,sp,56
   c0814:	f800283a 	ret

000c0818 <tis_encode_test>:

int tis_encode_test() {
	puts("Starting encode");
   c0818:	010003b4 	movhi	r4,14
            printf("^ Expected %s\n", instructions_str[i]);
        }
    }
}

int tis_encode_test() {
   c081c:	defffa04 	addi	sp,sp,-24
	puts("Starting encode");
   c0820:	2128cd04 	addi	r4,r4,-23756
            printf("^ Expected %s\n", instructions_str[i]);
        }
    }
}

int tis_encode_test() {
   c0824:	dfc00515 	stw	ra,20(sp)
   c0828:	dc400415 	stw	r17,16(sp)
   c082c:	dc000315 	stw	r16,12(sp)
	puts("Starting encode");
   c0830:	00c0c540 	call	c0c54 <puts>
    const char* assembly =
    "NOP\n"
    "ADD 421\n"
    "SUB 421";

    uint16_t expected[] = {
   c0834:	00806944 	movi	r2,421
        instructions_bin[1],
        instructions_bin[2],
    };

    uint16_t result[3];
    int count = tis_encode(assembly, result);
   c0838:	010003b4 	movhi	r4,14
    const char* assembly =
    "NOP\n"
    "ADD 421\n"
    "SUB 421";

    uint16_t expected[] = {
   c083c:	d880020d 	sth	r2,8(sp)
        instructions_bin[1],
        instructions_bin[2],
    };

    uint16_t result[3];
    int count = tis_encode(assembly, result);
   c0840:	d80b883a 	mov	r5,sp
    const char* assembly =
    "NOP\n"
    "ADD 421\n"
    "SUB 421";

    uint16_t expected[] = {
   c0844:	00816944 	movi	r2,1445
        instructions_bin[1],
        instructions_bin[2],
    };

    uint16_t result[3];
    int count = tis_encode(assembly, result);
   c0848:	2128d104 	addi	r4,r4,-23740
    const char* assembly =
    "NOP\n"
    "ADD 421\n"
    "SUB 421";

    uint16_t expected[] = {
   c084c:	d800018d 	sth	zero,6(sp)
   c0850:	d880028d 	sth	r2,10(sp)
        instructions_bin[1],
        instructions_bin[2],
    };

    uint16_t result[3];
    int count = tis_encode(assembly, result);
   c0854:	00c05100 	call	c0510 <tis_encode>

    printf("Managed to encode %d instructions\n", count);
   c0858:	010003b4 	movhi	r4,14
   c085c:	100b883a 	mov	r5,r2
   c0860:	2128d604 	addi	r4,r4,-23720
   c0864:	00c0b580 	call	c0b58 <printf>


    for (int i = 0; i < 3; i++) {
   c0868:	0021883a 	mov	r16,zero
   c086c:	044000c4 	movi	r17,3
   c0870:	8405883a 	add	r2,r16,r16
        if (expected[i] != result[i]) {
   c0874:	d9000184 	addi	r4,sp,6
   c0878:	2087883a 	add	r3,r4,r2
   c087c:	d885883a 	add	r2,sp,r2
   c0880:	18c0000b 	ldhu	r3,0(r3)
   c0884:	1080000b 	ldhu	r2,0(r2)
   c0888:	18800426 	beq	r3,r2,c089c <tis_encode_test+0x84>
            printf("Failed at %d\n", i);
   c088c:	010003b4 	movhi	r4,14
   c0890:	800b883a 	mov	r5,r16
   c0894:	2128df04 	addi	r4,r4,-23684
   c0898:	00c0b580 	call	c0b58 <printf>
    int count = tis_encode(assembly, result);

    printf("Managed to encode %d instructions\n", count);


    for (int i = 0; i < 3; i++) {
   c089c:	84000044 	addi	r16,r16,1
   c08a0:	847ff31e 	bne	r16,r17,c0870 <_gp+0xfffdc090>
        if (expected[i] != result[i]) {
            printf("Failed at %d\n", i);
        }
    }

    printf("Done!");
   c08a4:	010003b4 	movhi	r4,14
   c08a8:	2128e304 	addi	r4,r4,-23668
   c08ac:	00c0b580 	call	c0b58 <printf>
}
   c08b0:	dfc00517 	ldw	ra,20(sp)
   c08b4:	dc400417 	ldw	r17,16(sp)
   c08b8:	dc000317 	ldw	r16,12(sp)
   c08bc:	dec00604 	addi	sp,sp,24
   c08c0:	f800283a 	ret

000c08c4 <configure_node>:
#include "tis_asm.h"

struct tis_node* configure_node(void* base, const uint16_t instructions[], char instruction_count) {
    struct tis_node *node = (struct tis_node*) base;

    node->config = instruction_count & 0xF;
   c08c4:	30c003cc 	andi	r3,r6,15

#include <stdio.h>
#include "tis_node.h"
#include "tis_asm.h"

struct tis_node* configure_node(void* base, const uint16_t instructions[], char instruction_count) {
   c08c8:	3005883a 	mov	r2,r6
    struct tis_node *node = (struct tis_node*) base;

    node->config = instruction_count & 0xF;

    if (instruction_count > 15) {
   c08cc:	31803fcc 	andi	r6,r6,255
   c08d0:	3180201c 	xori	r6,r6,128
#include "tis_asm.h"

struct tis_node* configure_node(void* base, const uint16_t instructions[], char instruction_count) {
    struct tis_node *node = (struct tis_node*) base;

    node->config = instruction_count & 0xF;
   c08d4:	20c0000d 	sth	r3,0(r4)

    if (instruction_count > 15) {
   c08d8:	31bfe004 	addi	r6,r6,-128
   c08dc:	00c003c4 	movi	r3,15
   c08e0:	19800e16 	blt	r3,r6,c091c <configure_node+0x58>
        return (struct tis_node*)0;
    }

    for (int i = 0; i < instruction_count; i++) {
   c08e4:	10803fcc 	andi	r2,r2,255
   c08e8:	1080201c 	xori	r2,r2,128
   c08ec:	21800084 	addi	r6,r4,2
struct tis_node* configure_node(void* base, const uint16_t instructions[], char instruction_count) {
    struct tis_node *node = (struct tis_node*) base;

    node->config = instruction_count & 0xF;

    if (instruction_count > 15) {
   c08f0:	0007883a 	mov	r3,zero
        return (struct tis_node*)0;
    }

    for (int i = 0; i < instruction_count; i++) {
   c08f4:	10bfe004 	addi	r2,r2,-128
   c08f8:	1880060e 	bge	r3,r2,c0914 <configure_node+0x50>
        node->instructions[i] = instructions[i];
   c08fc:	29c0000b 	ldhu	r7,0(r5)

    if (instruction_count > 15) {
        return (struct tis_node*)0;
    }

    for (int i = 0; i < instruction_count; i++) {
   c0900:	18c00044 	addi	r3,r3,1
   c0904:	29400084 	addi	r5,r5,2
        node->instructions[i] = instructions[i];
   c0908:	31c0000d 	sth	r7,0(r6)
   c090c:	31800084 	addi	r6,r6,2
   c0910:	003ff906 	br	c08f8 <_gp+0xfffdc118>
    }

    return node;
   c0914:	2005883a 	mov	r2,r4
   c0918:	f800283a 	ret
    struct tis_node *node = (struct tis_node*) base;

    node->config = instruction_count & 0xF;

    if (instruction_count > 15) {
        return (struct tis_node*)0;
   c091c:	0005883a 	mov	r2,zero
    for (int i = 0; i < instruction_count; i++) {
        node->instructions[i] = instructions[i];
    }

    return node;
}
   c0920:	f800283a 	ret

000c0924 <node_info>:

int node_info(struct tis_node* node, char buffer[]) {
   c0924:	defff904 	addi	sp,sp,-28
   c0928:	dc800215 	stw	r18,8(sp)
    char instruction_count = node->config & 0xF;
   c092c:	24800003 	ldbu	r18,0(r4)
    }

    return node;
}

int node_info(struct tis_node* node, char buffer[]) {
   c0930:	dcc00315 	stw	r19,12(sp)
   c0934:	dfc00615 	stw	ra,24(sp)
   c0938:	dd400515 	stw	r21,20(sp)
   c093c:	dd000415 	stw	r20,16(sp)
   c0940:	dc400115 	stw	r17,4(sp)
   c0944:	dc000015 	stw	r16,0(sp)
    char instruction_count = node->config & 0xF;

    if (!instruction_count) {
   c0948:	948003cc 	andi	r18,r18,15
    }

    return node;
}

int node_info(struct tis_node* node, char buffer[]) {
   c094c:	2827883a 	mov	r19,r5
    char instruction_count = node->config & 0xF;

    if (!instruction_count) {
   c0950:	9000061e 	bne	r18,zero,c096c <node_info+0x48>
        return sprintf(buffer, "Node unconfigured\n");
   c0954:	014003b4 	movhi	r5,14
   c0958:	29696804 	addi	r5,r5,-23136
   c095c:	9809883a 	mov	r4,r19
   c0960:	00c10380 	call	c1038 <strcpy>
   c0964:	00800484 	movi	r2,18
   c0968:	00001506 	br	c09c0 <node_info+0x9c>
    }

    int ptr_offset = 0;

    ptr_offset += sprintf(buffer, "%d instruction(s):\n", instruction_count);
   c096c:	014003b4 	movhi	r5,14
   c0970:	2023883a 	mov	r17,r4
   c0974:	900d883a 	mov	r6,r18
   c0978:	29696d04 	addi	r5,r5,-23116
   c097c:	9809883a 	mov	r4,r19
   c0980:	00c0cc00 	call	c0cc0 <sprintf>
   c0984:	1021883a 	mov	r16,r2
   c0988:	8c400084 	addi	r17,r17,2

    for (int i = 0; i < instruction_count; i++) {
   c098c:	0029883a 	mov	r20,zero
        uint16_t instruction = node->instructions[i];
        ptr_offset += tis_decode(instruction, &buffer[ptr_offset]);
        buffer[ptr_offset] = '\n';
   c0990:	05400284 	movi	r21,10

    ptr_offset += sprintf(buffer, "%d instruction(s):\n", instruction_count);

    for (int i = 0; i < instruction_count; i++) {
        uint16_t instruction = node->instructions[i];
        ptr_offset += tis_decode(instruction, &buffer[ptr_offset]);
   c0994:	8900000b 	ldhu	r4,0(r17)
   c0998:	9c0b883a 	add	r5,r19,r16

    int ptr_offset = 0;

    ptr_offset += sprintf(buffer, "%d instruction(s):\n", instruction_count);

    for (int i = 0; i < instruction_count; i++) {
   c099c:	a5000044 	addi	r20,r20,1
        uint16_t instruction = node->instructions[i];
        ptr_offset += tis_decode(instruction, &buffer[ptr_offset]);
   c09a0:	00c02240 	call	c0224 <tis_decode>
   c09a4:	1405883a 	add	r2,r2,r16
        buffer[ptr_offset] = '\n';
   c09a8:	9887883a 	add	r3,r19,r2
   c09ac:	1d400005 	stb	r21,0(r3)
        ptr_offset += 1;
   c09b0:	14000044 	addi	r16,r2,1
   c09b4:	8c400084 	addi	r17,r17,2

    int ptr_offset = 0;

    ptr_offset += sprintf(buffer, "%d instruction(s):\n", instruction_count);

    for (int i = 0; i < instruction_count; i++) {
   c09b8:	a4bff616 	blt	r20,r18,c0994 <_gp+0xfffdc1b4>
        uint16_t instruction = node->instructions[i];
        ptr_offset += tis_decode(instruction, &buffer[ptr_offset]);
        buffer[ptr_offset] = '\n';
        ptr_offset += 1;
   c09bc:	8005883a 	mov	r2,r16
    }
    return ptr_offset;
}
   c09c0:	dfc00617 	ldw	ra,24(sp)
   c09c4:	dd400517 	ldw	r21,20(sp)
   c09c8:	dd000417 	ldw	r20,16(sp)
   c09cc:	dcc00317 	ldw	r19,12(sp)
   c09d0:	dc800217 	ldw	r18,8(sp)
   c09d4:	dc400117 	ldw	r17,4(sp)
   c09d8:	dc000017 	ldw	r16,0(sp)
   c09dc:	dec00704 	addi	sp,sp,28
   c09e0:	f800283a 	ret

000c09e4 <isspace>:
   c09e4:	008003b4 	movhi	r2,14
   c09e8:	10b1f804 	addi	r2,r2,-14368
   c09ec:	10800017 	ldw	r2,0(r2)
   c09f0:	1109883a 	add	r4,r2,r4
   c09f4:	20800043 	ldbu	r2,1(r4)
   c09f8:	1080020c 	andi	r2,r2,8
   c09fc:	f800283a 	ret

000c0a00 <memset>:
   c0a00:	20c000cc 	andi	r3,r4,3
   c0a04:	2005883a 	mov	r2,r4
   c0a08:	18004426 	beq	r3,zero,c0b1c <memset+0x11c>
   c0a0c:	31ffffc4 	addi	r7,r6,-1
   c0a10:	30004026 	beq	r6,zero,c0b14 <memset+0x114>
   c0a14:	2813883a 	mov	r9,r5
   c0a18:	200d883a 	mov	r6,r4
   c0a1c:	2007883a 	mov	r3,r4
   c0a20:	00000406 	br	c0a34 <memset+0x34>
   c0a24:	3a3fffc4 	addi	r8,r7,-1
   c0a28:	31800044 	addi	r6,r6,1
   c0a2c:	38003926 	beq	r7,zero,c0b14 <memset+0x114>
   c0a30:	400f883a 	mov	r7,r8
   c0a34:	18c00044 	addi	r3,r3,1
   c0a38:	32400005 	stb	r9,0(r6)
   c0a3c:	1a0000cc 	andi	r8,r3,3
   c0a40:	403ff81e 	bne	r8,zero,c0a24 <_gp+0xfffdc244>
   c0a44:	010000c4 	movi	r4,3
   c0a48:	21c02d2e 	bgeu	r4,r7,c0b00 <memset+0x100>
   c0a4c:	29003fcc 	andi	r4,r5,255
   c0a50:	200c923a 	slli	r6,r4,8
   c0a54:	3108b03a 	or	r4,r6,r4
   c0a58:	200c943a 	slli	r6,r4,16
   c0a5c:	218cb03a 	or	r6,r4,r6
   c0a60:	010003c4 	movi	r4,15
   c0a64:	21c0182e 	bgeu	r4,r7,c0ac8 <memset+0xc8>
   c0a68:	3b3ffc04 	addi	r12,r7,-16
   c0a6c:	6018d13a 	srli	r12,r12,4
   c0a70:	1a000104 	addi	r8,r3,4
   c0a74:	1ac00204 	addi	r11,r3,8
   c0a78:	6008913a 	slli	r4,r12,4
   c0a7c:	1a800304 	addi	r10,r3,12
   c0a80:	1813883a 	mov	r9,r3
   c0a84:	21000504 	addi	r4,r4,20
   c0a88:	1909883a 	add	r4,r3,r4
   c0a8c:	49800015 	stw	r6,0(r9)
   c0a90:	41800015 	stw	r6,0(r8)
   c0a94:	59800015 	stw	r6,0(r11)
   c0a98:	51800015 	stw	r6,0(r10)
   c0a9c:	42000404 	addi	r8,r8,16
   c0aa0:	4a400404 	addi	r9,r9,16
   c0aa4:	5ac00404 	addi	r11,r11,16
   c0aa8:	52800404 	addi	r10,r10,16
   c0aac:	413ff71e 	bne	r8,r4,c0a8c <_gp+0xfffdc2ac>
   c0ab0:	63000044 	addi	r12,r12,1
   c0ab4:	6018913a 	slli	r12,r12,4
   c0ab8:	39c003cc 	andi	r7,r7,15
   c0abc:	010000c4 	movi	r4,3
   c0ac0:	1b07883a 	add	r3,r3,r12
   c0ac4:	21c00e2e 	bgeu	r4,r7,c0b00 <memset+0x100>
   c0ac8:	1813883a 	mov	r9,r3
   c0acc:	3811883a 	mov	r8,r7
   c0ad0:	010000c4 	movi	r4,3
   c0ad4:	49800015 	stw	r6,0(r9)
   c0ad8:	423fff04 	addi	r8,r8,-4
   c0adc:	4a400104 	addi	r9,r9,4
   c0ae0:	223ffc36 	bltu	r4,r8,c0ad4 <_gp+0xfffdc2f4>
   c0ae4:	393fff04 	addi	r4,r7,-4
   c0ae8:	2008d0ba 	srli	r4,r4,2
   c0aec:	39c000cc 	andi	r7,r7,3
   c0af0:	21000044 	addi	r4,r4,1
   c0af4:	2109883a 	add	r4,r4,r4
   c0af8:	2109883a 	add	r4,r4,r4
   c0afc:	1907883a 	add	r3,r3,r4
   c0b00:	38000526 	beq	r7,zero,c0b18 <memset+0x118>
   c0b04:	19cf883a 	add	r7,r3,r7
   c0b08:	19400005 	stb	r5,0(r3)
   c0b0c:	18c00044 	addi	r3,r3,1
   c0b10:	38fffd1e 	bne	r7,r3,c0b08 <_gp+0xfffdc328>
   c0b14:	f800283a 	ret
   c0b18:	f800283a 	ret
   c0b1c:	2007883a 	mov	r3,r4
   c0b20:	300f883a 	mov	r7,r6
   c0b24:	003fc706 	br	c0a44 <_gp+0xfffdc264>

000c0b28 <_printf_r>:
   c0b28:	defffd04 	addi	sp,sp,-12
   c0b2c:	2805883a 	mov	r2,r5
   c0b30:	dfc00015 	stw	ra,0(sp)
   c0b34:	d9800115 	stw	r6,4(sp)
   c0b38:	d9c00215 	stw	r7,8(sp)
   c0b3c:	21400217 	ldw	r5,8(r4)
   c0b40:	d9c00104 	addi	r7,sp,4
   c0b44:	100d883a 	mov	r6,r2
   c0b48:	00c4f1c0 	call	c4f1c <___vfprintf_internal_r>
   c0b4c:	dfc00017 	ldw	ra,0(sp)
   c0b50:	dec00304 	addi	sp,sp,12
   c0b54:	f800283a 	ret

000c0b58 <printf>:
   c0b58:	defffc04 	addi	sp,sp,-16
   c0b5c:	dfc00015 	stw	ra,0(sp)
   c0b60:	d9400115 	stw	r5,4(sp)
   c0b64:	d9800215 	stw	r6,8(sp)
   c0b68:	d9c00315 	stw	r7,12(sp)
   c0b6c:	008003b4 	movhi	r2,14
   c0b70:	10b1fa04 	addi	r2,r2,-14360
   c0b74:	10800017 	ldw	r2,0(r2)
   c0b78:	200b883a 	mov	r5,r4
   c0b7c:	d9800104 	addi	r6,sp,4
   c0b80:	11000217 	ldw	r4,8(r2)
   c0b84:	00c71f80 	call	c71f8 <__vfprintf_internal>
   c0b88:	dfc00017 	ldw	ra,0(sp)
   c0b8c:	dec00404 	addi	sp,sp,16
   c0b90:	f800283a 	ret

000c0b94 <_puts_r>:
   c0b94:	defff604 	addi	sp,sp,-40
   c0b98:	dc000715 	stw	r16,28(sp)
   c0b9c:	2021883a 	mov	r16,r4
   c0ba0:	2809883a 	mov	r4,r5
   c0ba4:	dc400815 	stw	r17,32(sp)
   c0ba8:	dfc00915 	stw	ra,36(sp)
   c0bac:	2823883a 	mov	r17,r5
   c0bb0:	00c10c80 	call	c10c8 <strlen>
   c0bb4:	10c00044 	addi	r3,r2,1
   c0bb8:	d8800115 	stw	r2,4(sp)
   c0bbc:	008003b4 	movhi	r2,14
   c0bc0:	10a8e204 	addi	r2,r2,-23672
   c0bc4:	d8800215 	stw	r2,8(sp)
   c0bc8:	00800044 	movi	r2,1
   c0bcc:	d8800315 	stw	r2,12(sp)
   c0bd0:	00800084 	movi	r2,2
   c0bd4:	dc400015 	stw	r17,0(sp)
   c0bd8:	d8c00615 	stw	r3,24(sp)
   c0bdc:	dec00415 	stw	sp,16(sp)
   c0be0:	d8800515 	stw	r2,20(sp)
   c0be4:	80000226 	beq	r16,zero,c0bf0 <_puts_r+0x5c>
   c0be8:	80800e17 	ldw	r2,56(r16)
   c0bec:	10001426 	beq	r2,zero,c0c40 <_puts_r+0xac>
   c0bf0:	81400217 	ldw	r5,8(r16)
   c0bf4:	2880030b 	ldhu	r2,12(r5)
   c0bf8:	10c8000c 	andi	r3,r2,8192
   c0bfc:	1800061e 	bne	r3,zero,c0c18 <_puts_r+0x84>
   c0c00:	29001917 	ldw	r4,100(r5)
   c0c04:	00f7ffc4 	movi	r3,-8193
   c0c08:	10880014 	ori	r2,r2,8192
   c0c0c:	20c6703a 	and	r3,r4,r3
   c0c10:	2880030d 	sth	r2,12(r5)
   c0c14:	28c01915 	stw	r3,100(r5)
   c0c18:	d9800404 	addi	r6,sp,16
   c0c1c:	8009883a 	mov	r4,r16
   c0c20:	00c98140 	call	c9814 <__sfvwrite_r>
   c0c24:	1000091e 	bne	r2,zero,c0c4c <_puts_r+0xb8>
   c0c28:	00800284 	movi	r2,10
   c0c2c:	dfc00917 	ldw	ra,36(sp)
   c0c30:	dc400817 	ldw	r17,32(sp)
   c0c34:	dc000717 	ldw	r16,28(sp)
   c0c38:	dec00a04 	addi	sp,sp,40
   c0c3c:	f800283a 	ret
   c0c40:	8009883a 	mov	r4,r16
   c0c44:	00c93900 	call	c9390 <__sinit>
   c0c48:	003fe906 	br	c0bf0 <_gp+0xfffdc410>
   c0c4c:	00bfffc4 	movi	r2,-1
   c0c50:	003ff606 	br	c0c2c <_gp+0xfffdc44c>

000c0c54 <puts>:
   c0c54:	008003b4 	movhi	r2,14
   c0c58:	10b1fa04 	addi	r2,r2,-14360
   c0c5c:	200b883a 	mov	r5,r4
   c0c60:	11000017 	ldw	r4,0(r2)
   c0c64:	00c0b941 	jmpi	c0b94 <_puts_r>

000c0c68 <_sprintf_r>:
   c0c68:	deffe404 	addi	sp,sp,-112
   c0c6c:	2807883a 	mov	r3,r5
   c0c70:	dfc01a15 	stw	ra,104(sp)
   c0c74:	d9c01b15 	stw	r7,108(sp)
   c0c78:	00a00034 	movhi	r2,32768
   c0c7c:	10bfffc4 	addi	r2,r2,-1
   c0c80:	02008204 	movi	r8,520
   c0c84:	d8800215 	stw	r2,8(sp)
   c0c88:	d8800515 	stw	r2,20(sp)
   c0c8c:	d9c01b04 	addi	r7,sp,108
   c0c90:	d80b883a 	mov	r5,sp
   c0c94:	00bfffc4 	movi	r2,-1
   c0c98:	d8c00015 	stw	r3,0(sp)
   c0c9c:	d8c00415 	stw	r3,16(sp)
   c0ca0:	da00030d 	sth	r8,12(sp)
   c0ca4:	d880038d 	sth	r2,14(sp)
   c0ca8:	00c12d40 	call	c12d4 <___svfprintf_internal_r>
   c0cac:	d8c00017 	ldw	r3,0(sp)
   c0cb0:	18000005 	stb	zero,0(r3)
   c0cb4:	dfc01a17 	ldw	ra,104(sp)
   c0cb8:	dec01c04 	addi	sp,sp,112
   c0cbc:	f800283a 	ret

000c0cc0 <sprintf>:
   c0cc0:	deffe304 	addi	sp,sp,-116
   c0cc4:	2007883a 	mov	r3,r4
   c0cc8:	dfc01a15 	stw	ra,104(sp)
   c0ccc:	d9801b15 	stw	r6,108(sp)
   c0cd0:	d9c01c15 	stw	r7,112(sp)
   c0cd4:	010003b4 	movhi	r4,14
   c0cd8:	2131fa04 	addi	r4,r4,-14360
   c0cdc:	21000017 	ldw	r4,0(r4)
   c0ce0:	00a00034 	movhi	r2,32768
   c0ce4:	10bfffc4 	addi	r2,r2,-1
   c0ce8:	280d883a 	mov	r6,r5
   c0cec:	02008204 	movi	r8,520
   c0cf0:	d8800215 	stw	r2,8(sp)
   c0cf4:	d8800515 	stw	r2,20(sp)
   c0cf8:	d9c01b04 	addi	r7,sp,108
   c0cfc:	d80b883a 	mov	r5,sp
   c0d00:	00bfffc4 	movi	r2,-1
   c0d04:	d8c00015 	stw	r3,0(sp)
   c0d08:	d8c00415 	stw	r3,16(sp)
   c0d0c:	da00030d 	sth	r8,12(sp)
   c0d10:	d880038d 	sth	r2,14(sp)
   c0d14:	00c12d40 	call	c12d4 <___svfprintf_internal_r>
   c0d18:	d8c00017 	ldw	r3,0(sp)
   c0d1c:	18000005 	stb	zero,0(r3)
   c0d20:	dfc01a17 	ldw	ra,104(sp)
   c0d24:	dec01d04 	addi	sp,sp,116
   c0d28:	f800283a 	ret

000c0d2c <sscanf>:
   c0d2c:	deffe204 	addi	sp,sp,-120
   c0d30:	dc001a15 	stw	r16,104(sp)
   c0d34:	2821883a 	mov	r16,r5
   c0d38:	dfc01b15 	stw	ra,108(sp)
   c0d3c:	d9801c15 	stw	r6,112(sp)
   c0d40:	d9c01d15 	stw	r7,116(sp)
   c0d44:	00c08104 	movi	r3,516
   c0d48:	d8c0030d 	sth	r3,12(sp)
   c0d4c:	d9000015 	stw	r4,0(sp)
   c0d50:	d9000415 	stw	r4,16(sp)
   c0d54:	00c10c80 	call	c10c8 <strlen>
   c0d58:	00c003b4 	movhi	r3,14
   c0d5c:	18f1fa04 	addi	r3,r3,-14360
   c0d60:	d8800115 	stw	r2,4(sp)
   c0d64:	d8800515 	stw	r2,20(sp)
   c0d68:	19000017 	ldw	r4,0(r3)
   c0d6c:	00800334 	movhi	r2,12
   c0d70:	10839d04 	addi	r2,r2,3700
   c0d74:	d8800815 	stw	r2,32(sp)
   c0d78:	d9c01c04 	addi	r7,sp,112
   c0d7c:	800d883a 	mov	r6,r16
   c0d80:	d80b883a 	mov	r5,sp
   c0d84:	00bfffc4 	movi	r2,-1
   c0d88:	d8000c15 	stw	zero,48(sp)
   c0d8c:	d8001115 	stw	zero,68(sp)
   c0d90:	d880038d 	sth	r2,14(sp)
   c0d94:	00c35900 	call	c3590 <__ssvfscanf_r>
   c0d98:	dfc01b17 	ldw	ra,108(sp)
   c0d9c:	dc001a17 	ldw	r16,104(sp)
   c0da0:	dec01e04 	addi	sp,sp,120
   c0da4:	f800283a 	ret

000c0da8 <_sscanf_r>:
   c0da8:	deffe204 	addi	sp,sp,-120
   c0dac:	dc001b15 	stw	r16,108(sp)
   c0db0:	2021883a 	mov	r16,r4
   c0db4:	dfc01c15 	stw	ra,112(sp)
   c0db8:	d9c01d15 	stw	r7,116(sp)
   c0dbc:	00808104 	movi	r2,516
   c0dc0:	2809883a 	mov	r4,r5
   c0dc4:	d9400015 	stw	r5,0(sp)
   c0dc8:	d9400415 	stw	r5,16(sp)
   c0dcc:	d9801a15 	stw	r6,104(sp)
   c0dd0:	d880030d 	sth	r2,12(sp)
   c0dd4:	00c10c80 	call	c10c8 <strlen>
   c0dd8:	d8800115 	stw	r2,4(sp)
   c0ddc:	d8800515 	stw	r2,20(sp)
   c0de0:	d9801a17 	ldw	r6,104(sp)
   c0de4:	00800334 	movhi	r2,12
   c0de8:	10839d04 	addi	r2,r2,3700
   c0dec:	d8800815 	stw	r2,32(sp)
   c0df0:	d9c01d04 	addi	r7,sp,116
   c0df4:	d80b883a 	mov	r5,sp
   c0df8:	8009883a 	mov	r4,r16
   c0dfc:	00bfffc4 	movi	r2,-1
   c0e00:	d8000c15 	stw	zero,48(sp)
   c0e04:	d8001115 	stw	zero,68(sp)
   c0e08:	d880038d 	sth	r2,14(sp)
   c0e0c:	00c35900 	call	c3590 <__ssvfscanf_r>
   c0e10:	dfc01c17 	ldw	ra,112(sp)
   c0e14:	dc001b17 	ldw	r16,108(sp)
   c0e18:	dec01e04 	addi	sp,sp,120
   c0e1c:	f800283a 	ret

000c0e20 <__sread>:
   c0e20:	defffe04 	addi	sp,sp,-8
   c0e24:	dc000015 	stw	r16,0(sp)
   c0e28:	2821883a 	mov	r16,r5
   c0e2c:	2940038f 	ldh	r5,14(r5)
   c0e30:	dfc00115 	stw	ra,4(sp)
   c0e34:	00cbffc0 	call	cbffc <_read_r>
   c0e38:	10000716 	blt	r2,zero,c0e58 <__sread+0x38>
   c0e3c:	80c01417 	ldw	r3,80(r16)
   c0e40:	1887883a 	add	r3,r3,r2
   c0e44:	80c01415 	stw	r3,80(r16)
   c0e48:	dfc00117 	ldw	ra,4(sp)
   c0e4c:	dc000017 	ldw	r16,0(sp)
   c0e50:	dec00204 	addi	sp,sp,8
   c0e54:	f800283a 	ret
   c0e58:	80c0030b 	ldhu	r3,12(r16)
   c0e5c:	18fbffcc 	andi	r3,r3,61439
   c0e60:	80c0030d 	sth	r3,12(r16)
   c0e64:	dfc00117 	ldw	ra,4(sp)
   c0e68:	dc000017 	ldw	r16,0(sp)
   c0e6c:	dec00204 	addi	sp,sp,8
   c0e70:	f800283a 	ret

000c0e74 <__seofread>:
   c0e74:	0005883a 	mov	r2,zero
   c0e78:	f800283a 	ret

000c0e7c <__swrite>:
   c0e7c:	2880030b 	ldhu	r2,12(r5)
   c0e80:	defffb04 	addi	sp,sp,-20
   c0e84:	dcc00315 	stw	r19,12(sp)
   c0e88:	dc800215 	stw	r18,8(sp)
   c0e8c:	dc400115 	stw	r17,4(sp)
   c0e90:	dc000015 	stw	r16,0(sp)
   c0e94:	dfc00415 	stw	ra,16(sp)
   c0e98:	10c0400c 	andi	r3,r2,256
   c0e9c:	2821883a 	mov	r16,r5
   c0ea0:	2023883a 	mov	r17,r4
   c0ea4:	3025883a 	mov	r18,r6
   c0ea8:	3827883a 	mov	r19,r7
   c0eac:	18000526 	beq	r3,zero,c0ec4 <__swrite+0x48>
   c0eb0:	2940038f 	ldh	r5,14(r5)
   c0eb4:	01c00084 	movi	r7,2
   c0eb8:	000d883a 	mov	r6,zero
   c0ebc:	00c9f700 	call	c9f70 <_lseek_r>
   c0ec0:	8080030b 	ldhu	r2,12(r16)
   c0ec4:	8140038f 	ldh	r5,14(r16)
   c0ec8:	10bbffcc 	andi	r2,r2,61439
   c0ecc:	980f883a 	mov	r7,r19
   c0ed0:	900d883a 	mov	r6,r18
   c0ed4:	8809883a 	mov	r4,r17
   c0ed8:	8080030d 	sth	r2,12(r16)
   c0edc:	dfc00417 	ldw	ra,16(sp)
   c0ee0:	dcc00317 	ldw	r19,12(sp)
   c0ee4:	dc800217 	ldw	r18,8(sp)
   c0ee8:	dc400117 	ldw	r17,4(sp)
   c0eec:	dc000017 	ldw	r16,0(sp)
   c0ef0:	dec00504 	addi	sp,sp,20
   c0ef4:	00c72d01 	jmpi	c72d0 <_write_r>

000c0ef8 <__sseek>:
   c0ef8:	defffe04 	addi	sp,sp,-8
   c0efc:	dc000015 	stw	r16,0(sp)
   c0f00:	2821883a 	mov	r16,r5
   c0f04:	2940038f 	ldh	r5,14(r5)
   c0f08:	dfc00115 	stw	ra,4(sp)
   c0f0c:	00c9f700 	call	c9f70 <_lseek_r>
   c0f10:	00ffffc4 	movi	r3,-1
   c0f14:	10c00826 	beq	r2,r3,c0f38 <__sseek+0x40>
   c0f18:	80c0030b 	ldhu	r3,12(r16)
   c0f1c:	80801415 	stw	r2,80(r16)
   c0f20:	18c40014 	ori	r3,r3,4096
   c0f24:	80c0030d 	sth	r3,12(r16)
   c0f28:	dfc00117 	ldw	ra,4(sp)
   c0f2c:	dc000017 	ldw	r16,0(sp)
   c0f30:	dec00204 	addi	sp,sp,8
   c0f34:	f800283a 	ret
   c0f38:	80c0030b 	ldhu	r3,12(r16)
   c0f3c:	18fbffcc 	andi	r3,r3,61439
   c0f40:	80c0030d 	sth	r3,12(r16)
   c0f44:	dfc00117 	ldw	ra,4(sp)
   c0f48:	dc000017 	ldw	r16,0(sp)
   c0f4c:	dec00204 	addi	sp,sp,8
   c0f50:	f800283a 	ret

000c0f54 <__sclose>:
   c0f54:	2940038f 	ldh	r5,14(r5)
   c0f58:	00c74841 	jmpi	c7484 <_close_r>

000c0f5c <strcmp>:
   c0f5c:	2144b03a 	or	r2,r4,r5
   c0f60:	108000cc 	andi	r2,r2,3
   c0f64:	1000171e 	bne	r2,zero,c0fc4 <strcmp+0x68>
   c0f68:	20800017 	ldw	r2,0(r4)
   c0f6c:	28c00017 	ldw	r3,0(r5)
   c0f70:	10c0141e 	bne	r2,r3,c0fc4 <strcmp+0x68>
   c0f74:	027fbff4 	movhi	r9,65279
   c0f78:	4a7fbfc4 	addi	r9,r9,-257
   c0f7c:	0086303a 	nor	r3,zero,r2
   c0f80:	02202074 	movhi	r8,32897
   c0f84:	1245883a 	add	r2,r2,r9
   c0f88:	42202004 	addi	r8,r8,-32640
   c0f8c:	10c4703a 	and	r2,r2,r3
   c0f90:	1204703a 	and	r2,r2,r8
   c0f94:	10000226 	beq	r2,zero,c0fa0 <strcmp+0x44>
   c0f98:	00002306 	br	c1028 <strcmp+0xcc>
   c0f9c:	1000221e 	bne	r2,zero,c1028 <strcmp+0xcc>
   c0fa0:	21000104 	addi	r4,r4,4
   c0fa4:	20c00017 	ldw	r3,0(r4)
   c0fa8:	29400104 	addi	r5,r5,4
   c0fac:	29800017 	ldw	r6,0(r5)
   c0fb0:	1a4f883a 	add	r7,r3,r9
   c0fb4:	00c4303a 	nor	r2,zero,r3
   c0fb8:	3884703a 	and	r2,r7,r2
   c0fbc:	1204703a 	and	r2,r2,r8
   c0fc0:	19bff626 	beq	r3,r6,c0f9c <_gp+0xfffdc7bc>
   c0fc4:	20800003 	ldbu	r2,0(r4)
   c0fc8:	10c03fcc 	andi	r3,r2,255
   c0fcc:	18c0201c 	xori	r3,r3,128
   c0fd0:	18ffe004 	addi	r3,r3,-128
   c0fd4:	18000c26 	beq	r3,zero,c1008 <strcmp+0xac>
   c0fd8:	29800007 	ldb	r6,0(r5)
   c0fdc:	19800326 	beq	r3,r6,c0fec <strcmp+0x90>
   c0fe0:	00001306 	br	c1030 <strcmp+0xd4>
   c0fe4:	29800007 	ldb	r6,0(r5)
   c0fe8:	11800b1e 	bne	r2,r6,c1018 <strcmp+0xbc>
   c0fec:	21000044 	addi	r4,r4,1
   c0ff0:	20c00003 	ldbu	r3,0(r4)
   c0ff4:	29400044 	addi	r5,r5,1
   c0ff8:	18803fcc 	andi	r2,r3,255
   c0ffc:	1080201c 	xori	r2,r2,128
   c1000:	10bfe004 	addi	r2,r2,-128
   c1004:	103ff71e 	bne	r2,zero,c0fe4 <_gp+0xfffdc804>
   c1008:	0007883a 	mov	r3,zero
   c100c:	28800003 	ldbu	r2,0(r5)
   c1010:	1885c83a 	sub	r2,r3,r2
   c1014:	f800283a 	ret
   c1018:	28800003 	ldbu	r2,0(r5)
   c101c:	18c03fcc 	andi	r3,r3,255
   c1020:	1885c83a 	sub	r2,r3,r2
   c1024:	f800283a 	ret
   c1028:	0005883a 	mov	r2,zero
   c102c:	f800283a 	ret
   c1030:	10c03fcc 	andi	r3,r2,255
   c1034:	003ff506 	br	c100c <_gp+0xfffdc82c>

000c1038 <strcpy>:
   c1038:	2906b03a 	or	r3,r5,r4
   c103c:	18c000cc 	andi	r3,r3,3
   c1040:	2005883a 	mov	r2,r4
   c1044:	1800161e 	bne	r3,zero,c10a0 <strcpy+0x68>
   c1048:	29c00017 	ldw	r7,0(r5)
   c104c:	02ffbff4 	movhi	r11,65279
   c1050:	5affbfc4 	addi	r11,r11,-257
   c1054:	02a02074 	movhi	r10,32897
   c1058:	01c6303a 	nor	r3,zero,r7
   c105c:	3ac9883a 	add	r4,r7,r11
   c1060:	52a02004 	addi	r10,r10,-32640
   c1064:	20c6703a 	and	r3,r4,r3
   c1068:	1a86703a 	and	r3,r3,r10
   c106c:	18000c1e 	bne	r3,zero,c10a0 <strcpy+0x68>
   c1070:	1011883a 	mov	r8,r2
   c1074:	41c00015 	stw	r7,0(r8)
   c1078:	29400104 	addi	r5,r5,4
   c107c:	29c00017 	ldw	r7,0(r5)
   c1080:	41800104 	addi	r6,r8,4
   c1084:	3011883a 	mov	r8,r6
   c1088:	3ad3883a 	add	r9,r7,r11
   c108c:	01c6303a 	nor	r3,zero,r7
   c1090:	48c6703a 	and	r3,r9,r3
   c1094:	1a86703a 	and	r3,r3,r10
   c1098:	183ff626 	beq	r3,zero,c1074 <_gp+0xfffdc894>
   c109c:	00000106 	br	c10a4 <strcpy+0x6c>
   c10a0:	100d883a 	mov	r6,r2
   c10a4:	28c00003 	ldbu	r3,0(r5)
   c10a8:	31800044 	addi	r6,r6,1
   c10ac:	29400044 	addi	r5,r5,1
   c10b0:	30ffffc5 	stb	r3,-1(r6)
   c10b4:	18c03fcc 	andi	r3,r3,255
   c10b8:	18c0201c 	xori	r3,r3,128
   c10bc:	18ffe004 	addi	r3,r3,-128
   c10c0:	183ff81e 	bne	r3,zero,c10a4 <_gp+0xfffdc8c4>
   c10c4:	f800283a 	ret

000c10c8 <strlen>:
   c10c8:	208000cc 	andi	r2,r4,3
   c10cc:	10002026 	beq	r2,zero,c1150 <strlen+0x88>
   c10d0:	20800007 	ldb	r2,0(r4)
   c10d4:	10002026 	beq	r2,zero,c1158 <strlen+0x90>
   c10d8:	2005883a 	mov	r2,r4
   c10dc:	00000206 	br	c10e8 <strlen+0x20>
   c10e0:	10c00007 	ldb	r3,0(r2)
   c10e4:	18001826 	beq	r3,zero,c1148 <strlen+0x80>
   c10e8:	10800044 	addi	r2,r2,1
   c10ec:	10c000cc 	andi	r3,r2,3
   c10f0:	183ffb1e 	bne	r3,zero,c10e0 <_gp+0xfffdc900>
   c10f4:	10c00017 	ldw	r3,0(r2)
   c10f8:	01ffbff4 	movhi	r7,65279
   c10fc:	39ffbfc4 	addi	r7,r7,-257
   c1100:	00ca303a 	nor	r5,zero,r3
   c1104:	01a02074 	movhi	r6,32897
   c1108:	19c7883a 	add	r3,r3,r7
   c110c:	31a02004 	addi	r6,r6,-32640
   c1110:	1946703a 	and	r3,r3,r5
   c1114:	1986703a 	and	r3,r3,r6
   c1118:	1800091e 	bne	r3,zero,c1140 <strlen+0x78>
   c111c:	10800104 	addi	r2,r2,4
   c1120:	10c00017 	ldw	r3,0(r2)
   c1124:	19cb883a 	add	r5,r3,r7
   c1128:	00c6303a 	nor	r3,zero,r3
   c112c:	28c6703a 	and	r3,r5,r3
   c1130:	1986703a 	and	r3,r3,r6
   c1134:	183ff926 	beq	r3,zero,c111c <_gp+0xfffdc93c>
   c1138:	00000106 	br	c1140 <strlen+0x78>
   c113c:	10800044 	addi	r2,r2,1
   c1140:	10c00007 	ldb	r3,0(r2)
   c1144:	183ffd1e 	bne	r3,zero,c113c <_gp+0xfffdc95c>
   c1148:	1105c83a 	sub	r2,r2,r4
   c114c:	f800283a 	ret
   c1150:	2005883a 	mov	r2,r4
   c1154:	003fe706 	br	c10f4 <_gp+0xfffdc914>
   c1158:	0005883a 	mov	r2,zero
   c115c:	f800283a 	ret

000c1160 <strncmp>:
   c1160:	30003126 	beq	r6,zero,c1228 <strncmp+0xc8>
   c1164:	2144b03a 	or	r2,r4,r5
   c1168:	108000cc 	andi	r2,r2,3
   c116c:	10001e1e 	bne	r2,zero,c11e8 <strncmp+0x88>
   c1170:	024000c4 	movi	r9,3
   c1174:	49801c2e 	bgeu	r9,r6,c11e8 <strncmp+0x88>
   c1178:	20800017 	ldw	r2,0(r4)
   c117c:	28c00017 	ldw	r3,0(r5)
   c1180:	10c0191e 	bne	r2,r3,c11e8 <strncmp+0x88>
   c1184:	31bfff04 	addi	r6,r6,-4
   c1188:	30002726 	beq	r6,zero,c1228 <strncmp+0xc8>
   c118c:	02ffbff4 	movhi	r11,65279
   c1190:	5affbfc4 	addi	r11,r11,-257
   c1194:	0086303a 	nor	r3,zero,r2
   c1198:	02a02074 	movhi	r10,32897
   c119c:	12c5883a 	add	r2,r2,r11
   c11a0:	52a02004 	addi	r10,r10,-32640
   c11a4:	10c4703a 	and	r2,r2,r3
   c11a8:	1284703a 	and	r2,r2,r10
   c11ac:	10000b26 	beq	r2,zero,c11dc <strncmp+0x7c>
   c11b0:	00001d06 	br	c1228 <strncmp+0xc8>
   c11b4:	20c00017 	ldw	r3,0(r4)
   c11b8:	29c00017 	ldw	r7,0(r5)
   c11bc:	1ad1883a 	add	r8,r3,r11
   c11c0:	00c4303a 	nor	r2,zero,r3
   c11c4:	4084703a 	and	r2,r8,r2
   c11c8:	1284703a 	and	r2,r2,r10
   c11cc:	19c0061e 	bne	r3,r7,c11e8 <strncmp+0x88>
   c11d0:	31bfff04 	addi	r6,r6,-4
   c11d4:	30001426 	beq	r6,zero,c1228 <strncmp+0xc8>
   c11d8:	1000131e 	bne	r2,zero,c1228 <strncmp+0xc8>
   c11dc:	21000104 	addi	r4,r4,4
   c11e0:	29400104 	addi	r5,r5,4
   c11e4:	49bff336 	bltu	r9,r6,c11b4 <_gp+0xfffdc9d4>
   c11e8:	28800007 	ldb	r2,0(r5)
   c11ec:	20c00007 	ldb	r3,0(r4)
   c11f0:	31bfffc4 	addi	r6,r6,-1
   c11f4:	10c0081e 	bne	r2,r3,c1218 <strncmp+0xb8>
   c11f8:	30000b26 	beq	r6,zero,c1228 <strncmp+0xc8>
   c11fc:	10000a26 	beq	r2,zero,c1228 <strncmp+0xc8>
   c1200:	21000044 	addi	r4,r4,1
   c1204:	29400044 	addi	r5,r5,1
   c1208:	20800007 	ldb	r2,0(r4)
   c120c:	28c00007 	ldb	r3,0(r5)
   c1210:	31bfffc4 	addi	r6,r6,-1
   c1214:	10fff826 	beq	r2,r3,c11f8 <_gp+0xfffdca18>
   c1218:	20800003 	ldbu	r2,0(r4)
   c121c:	28c00003 	ldbu	r3,0(r5)
   c1220:	10c5c83a 	sub	r2,r2,r3
   c1224:	f800283a 	ret
   c1228:	0005883a 	mov	r2,zero
   c122c:	f800283a 	ret

000c1230 <__strtok_r>:
   c1230:	20001f26 	beq	r4,zero,c12b0 <__strtok_r+0x80>
   c1234:	2005883a 	mov	r2,r4
   c1238:	22400007 	ldb	r9,0(r4)
   c123c:	2807883a 	mov	r3,r5
   c1240:	21000044 	addi	r4,r4,1
   c1244:	00000106 	br	c124c <__strtok_r+0x1c>
   c1248:	4a001226 	beq	r9,r8,c1294 <__strtok_r+0x64>
   c124c:	1a000007 	ldb	r8,0(r3)
   c1250:	18c00044 	addi	r3,r3,1
   c1254:	403ffc1e 	bne	r8,zero,c1248 <_gp+0xfffdca68>
   c1258:	48001926 	beq	r9,zero,c12c0 <__strtok_r+0x90>
   c125c:	22000007 	ldb	r8,0(r4)
   c1260:	2013883a 	mov	r9,r4
   c1264:	21000044 	addi	r4,r4,1
   c1268:	2015883a 	mov	r10,r4
   c126c:	2807883a 	mov	r3,r5
   c1270:	00000106 	br	c1278 <__strtok_r+0x48>
   c1274:	383ff926 	beq	r7,zero,c125c <_gp+0xfffdca7c>
   c1278:	19c00007 	ldb	r7,0(r3)
   c127c:	18c00044 	addi	r3,r3,1
   c1280:	41fffc1e 	bne	r8,r7,c1274 <_gp+0xfffdca94>
   c1284:	40000726 	beq	r8,zero,c12a4 <__strtok_r+0x74>
   c1288:	48000005 	stb	zero,0(r9)
   c128c:	32800015 	stw	r10,0(r6)
   c1290:	f800283a 	ret
   c1294:	383fe71e 	bne	r7,zero,c1234 <_gp+0xfffdca54>
   c1298:	31000015 	stw	r4,0(r6)
   c129c:	10000005 	stb	zero,0(r2)
   c12a0:	f800283a 	ret
   c12a4:	0015883a 	mov	r10,zero
   c12a8:	32800015 	stw	r10,0(r6)
   c12ac:	f800283a 	ret
   c12b0:	31000017 	ldw	r4,0(r6)
   c12b4:	203fdf1e 	bne	r4,zero,c1234 <_gp+0xfffdca54>
   c12b8:	0005883a 	mov	r2,zero
   c12bc:	f800283a 	ret
   c12c0:	30000015 	stw	zero,0(r6)
   c12c4:	0005883a 	mov	r2,zero
   c12c8:	f800283a 	ret

000c12cc <strtok_r>:
   c12cc:	01c00044 	movi	r7,1
   c12d0:	00c12301 	jmpi	c1230 <__strtok_r>

000c12d4 <___svfprintf_internal_r>:
   c12d4:	deffb704 	addi	sp,sp,-292
   c12d8:	dfc04815 	stw	ra,288(sp)
   c12dc:	ddc04615 	stw	r23,280(sp)
   c12e0:	d9402d15 	stw	r5,180(sp)
   c12e4:	d9003915 	stw	r4,228(sp)
   c12e8:	302f883a 	mov	r23,r6
   c12ec:	d9c02e15 	stw	r7,184(sp)
   c12f0:	df004715 	stw	fp,284(sp)
   c12f4:	dd804515 	stw	r22,276(sp)
   c12f8:	dd404415 	stw	r21,272(sp)
   c12fc:	dd004315 	stw	r20,268(sp)
   c1300:	dcc04215 	stw	r19,264(sp)
   c1304:	dc804115 	stw	r18,260(sp)
   c1308:	dc404015 	stw	r17,256(sp)
   c130c:	dc003f15 	stw	r16,252(sp)
   c1310:	00c9f400 	call	c9f40 <_localeconv_r>
   c1314:	10800017 	ldw	r2,0(r2)
   c1318:	1009883a 	mov	r4,r2
   c131c:	d8803415 	stw	r2,208(sp)
   c1320:	00c10c80 	call	c10c8 <strlen>
   c1324:	d8c02d17 	ldw	r3,180(sp)
   c1328:	d8803815 	stw	r2,224(sp)
   c132c:	1880030b 	ldhu	r2,12(r3)
   c1330:	1080200c 	andi	r2,r2,128
   c1334:	10000226 	beq	r2,zero,c1340 <___svfprintf_internal_r+0x6c>
   c1338:	18800417 	ldw	r2,16(r3)
   c133c:	1006b126 	beq	r2,zero,c2e04 <___svfprintf_internal_r+0x1b30>
   c1340:	dcc03917 	ldw	r19,228(sp)
   c1344:	d8c00404 	addi	r3,sp,16
   c1348:	054003b4 	movhi	r21,14
   c134c:	d9001e04 	addi	r4,sp,120
   c1350:	ad698284 	addi	r21,r21,-23030
   c1354:	d8c01e15 	stw	r3,120(sp)
   c1358:	d8002015 	stw	zero,128(sp)
   c135c:	d8001f15 	stw	zero,124(sp)
   c1360:	d8003315 	stw	zero,204(sp)
   c1364:	d8003615 	stw	zero,216(sp)
   c1368:	d8003715 	stw	zero,220(sp)
   c136c:	1811883a 	mov	r8,r3
   c1370:	d8003a15 	stw	zero,232(sp)
   c1374:	d8003b15 	stw	zero,236(sp)
   c1378:	d8002f15 	stw	zero,188(sp)
   c137c:	d9002815 	stw	r4,160(sp)
   c1380:	b8800007 	ldb	r2,0(r23)
   c1384:	10027726 	beq	r2,zero,c1d64 <___svfprintf_internal_r+0xa90>
   c1388:	00c00944 	movi	r3,37
   c138c:	b823883a 	mov	r17,r23
   c1390:	10c0021e 	bne	r2,r3,c139c <___svfprintf_internal_r+0xc8>
   c1394:	00001406 	br	c13e8 <___svfprintf_internal_r+0x114>
   c1398:	10c00326 	beq	r2,r3,c13a8 <___svfprintf_internal_r+0xd4>
   c139c:	8c400044 	addi	r17,r17,1
   c13a0:	88800007 	ldb	r2,0(r17)
   c13a4:	103ffc1e 	bne	r2,zero,c1398 <_gp+0xfffdcbb8>
   c13a8:	8de1c83a 	sub	r16,r17,r23
   c13ac:	80000e26 	beq	r16,zero,c13e8 <___svfprintf_internal_r+0x114>
   c13b0:	d8c02017 	ldw	r3,128(sp)
   c13b4:	d8801f17 	ldw	r2,124(sp)
   c13b8:	45c00015 	stw	r23,0(r8)
   c13bc:	1c07883a 	add	r3,r3,r16
   c13c0:	10800044 	addi	r2,r2,1
   c13c4:	d8c02015 	stw	r3,128(sp)
   c13c8:	44000115 	stw	r16,4(r8)
   c13cc:	d8801f15 	stw	r2,124(sp)
   c13d0:	00c001c4 	movi	r3,7
   c13d4:	18809916 	blt	r3,r2,c163c <___svfprintf_internal_r+0x368>
   c13d8:	42000204 	addi	r8,r8,8
   c13dc:	d9402f17 	ldw	r5,188(sp)
   c13e0:	2c0b883a 	add	r5,r5,r16
   c13e4:	d9402f15 	stw	r5,188(sp)
   c13e8:	88800007 	ldb	r2,0(r17)
   c13ec:	10009a26 	beq	r2,zero,c1658 <___svfprintf_internal_r+0x384>
   c13f0:	8dc00044 	addi	r23,r17,1
   c13f4:	8c400047 	ldb	r17,1(r17)
   c13f8:	0021883a 	mov	r16,zero
   c13fc:	00bfffc4 	movi	r2,-1
   c1400:	0025883a 	mov	r18,zero
   c1404:	dc002905 	stb	r16,164(sp)
   c1408:	d8002785 	stb	zero,158(sp)
   c140c:	d8002b05 	stb	zero,172(sp)
   c1410:	d8802a15 	stw	r2,168(sp)
   c1414:	d8003115 	stw	zero,196(sp)
   c1418:	05001604 	movi	r20,88
   c141c:	05800244 	movi	r22,9
   c1420:	4039883a 	mov	fp,r8
   c1424:	9021883a 	mov	r16,r18
   c1428:	bdc00044 	addi	r23,r23,1
   c142c:	88bff804 	addi	r2,r17,-32
   c1430:	a0831e36 	bltu	r20,r2,c20ac <___svfprintf_internal_r+0xdd8>
   c1434:	100490ba 	slli	r2,r2,2
   c1438:	00c00334 	movhi	r3,12
   c143c:	18c51304 	addi	r3,r3,5196
   c1440:	10c5883a 	add	r2,r2,r3
   c1444:	10800017 	ldw	r2,0(r2)
   c1448:	1000683a 	jmp	r2
   c144c:	000c1ff4 	movhi	zero,12415
   c1450:	000c20ac 	andhi	zero,zero,12418
   c1454:	000c20ac 	andhi	zero,zero,12418
   c1458:	000c1fe8 	cmpgeui	zero,zero,12415
   c145c:	000c20ac 	andhi	zero,zero,12418
   c1460:	000c20ac 	andhi	zero,zero,12418
   c1464:	000c20ac 	andhi	zero,zero,12418
   c1468:	000c20ac 	andhi	zero,zero,12418
   c146c:	000c20ac 	andhi	zero,zero,12418
   c1470:	000c20ac 	andhi	zero,zero,12418
   c1474:	000c16b4 	movhi	zero,12378
   c1478:	000c1ef8 	rdprs	zero,zero,12411
   c147c:	000c20ac 	andhi	zero,zero,12418
   c1480:	000c15c0 	call	c15c <__alt_mem_onchip_memory2_0-0xb3ea4>
   c1484:	000c16d8 	cmpnei	zero,zero,12379
   c1488:	000c20ac 	andhi	zero,zero,12418
   c148c:	000c1764 	muli	zero,zero,12381
   c1490:	000c1728 	cmpgeui	zero,zero,12380
   c1494:	000c1728 	cmpgeui	zero,zero,12380
   c1498:	000c1728 	cmpgeui	zero,zero,12380
   c149c:	000c1728 	cmpgeui	zero,zero,12380
   c14a0:	000c1728 	cmpgeui	zero,zero,12380
   c14a4:	000c1728 	cmpgeui	zero,zero,12380
   c14a8:	000c1728 	cmpgeui	zero,zero,12380
   c14ac:	000c1728 	cmpgeui	zero,zero,12380
   c14b0:	000c1728 	cmpgeui	zero,zero,12380
   c14b4:	000c20ac 	andhi	zero,zero,12418
   c14b8:	000c20ac 	andhi	zero,zero,12418
   c14bc:	000c20ac 	andhi	zero,zero,12418
   c14c0:	000c20ac 	andhi	zero,zero,12418
   c14c4:	000c20ac 	andhi	zero,zero,12418
   c14c8:	000c20ac 	andhi	zero,zero,12418
   c14cc:	000c20ac 	andhi	zero,zero,12418
   c14d0:	000c20ac 	andhi	zero,zero,12418
   c14d4:	000c20ac 	andhi	zero,zero,12418
   c14d8:	000c20ac 	andhi	zero,zero,12418
   c14dc:	000c1828 	cmpgeui	zero,zero,12384
   c14e0:	000c1770 	cmpltui	zero,zero,12381
   c14e4:	000c20ac 	andhi	zero,zero,12418
   c14e8:	000c1770 	cmpltui	zero,zero,12381
   c14ec:	000c20ac 	andhi	zero,zero,12418
   c14f0:	000c20ac 	andhi	zero,zero,12418
   c14f4:	000c20ac 	andhi	zero,zero,12418
   c14f8:	000c20ac 	andhi	zero,zero,12418
   c14fc:	000c181c 	xori	zero,zero,12384
   c1500:	000c20ac 	andhi	zero,zero,12418
   c1504:	000c20ac 	andhi	zero,zero,12418
   c1508:	000c18f0 	cmpltui	zero,zero,12387
   c150c:	000c20ac 	andhi	zero,zero,12418
   c1510:	000c20ac 	andhi	zero,zero,12418
   c1514:	000c20ac 	andhi	zero,zero,12418
   c1518:	000c20ac 	andhi	zero,zero,12418
   c151c:	000c20ac 	andhi	zero,zero,12418
   c1520:	000c1d6c 	andhi	zero,zero,12405
   c1524:	000c20ac 	andhi	zero,zero,12418
   c1528:	000c20ac 	andhi	zero,zero,12418
   c152c:	000c1dd8 	cmpnei	zero,zero,12407
   c1530:	000c20ac 	andhi	zero,zero,12418
   c1534:	000c20ac 	andhi	zero,zero,12418
   c1538:	000c20ac 	andhi	zero,zero,12418
   c153c:	000c20ac 	andhi	zero,zero,12418
   c1540:	000c20ac 	andhi	zero,zero,12418
   c1544:	000c20ac 	andhi	zero,zero,12418
   c1548:	000c20ac 	andhi	zero,zero,12418
   c154c:	000c20ac 	andhi	zero,zero,12418
   c1550:	000c20ac 	andhi	zero,zero,12418
   c1554:	000c20ac 	andhi	zero,zero,12418
   c1558:	000c1e94 	movui	zero,12410
   c155c:	000c2014 	movui	zero,12416
   c1560:	000c1770 	cmpltui	zero,zero,12381
   c1564:	000c1770 	cmpltui	zero,zero,12381
   c1568:	000c1770 	cmpltui	zero,zero,12381
   c156c:	000c2088 	cmpgei	zero,zero,12418
   c1570:	000c2014 	movui	zero,12416
   c1574:	000c20ac 	andhi	zero,zero,12418
   c1578:	000c20ac 	andhi	zero,zero,12418
   c157c:	000c2034 	movhi	zero,12416
   c1580:	000c20ac 	andhi	zero,zero,12418
   c1584:	000c2048 	cmpgei	zero,zero,12417
   c1588:	000c1ed8 	cmpnei	zero,zero,12411
   c158c:	000c15cc 	andi	zero,zero,12375
   c1590:	000c1f10 	cmplti	zero,zero,12412
   c1594:	000c20ac 	andhi	zero,zero,12418
   c1598:	000c1f1c 	xori	zero,zero,12412
   c159c:	000c20ac 	andhi	zero,zero,12418
   c15a0:	000c1f80 	call	c1f8 <__alt_mem_onchip_memory2_0-0xb3e08>
   c15a4:	000c20ac 	andhi	zero,zero,12418
   c15a8:	000c20ac 	andhi	zero,zero,12418
   c15ac:	000c1fa0 	cmpeqi	zero,zero,12414
   c15b0:	d8c03117 	ldw	r3,196(sp)
   c15b4:	d8802e15 	stw	r2,184(sp)
   c15b8:	00c7c83a 	sub	r3,zero,r3
   c15bc:	d8c03115 	stw	r3,196(sp)
   c15c0:	84000114 	ori	r16,r16,4
   c15c4:	bc400007 	ldb	r17,0(r23)
   c15c8:	003f9706 	br	c1428 <_gp+0xfffdcc48>
   c15cc:	00800c04 	movi	r2,48
   c15d0:	d8802705 	stb	r2,156(sp)
   c15d4:	00801e04 	movi	r2,120
   c15d8:	d8802745 	stb	r2,157(sp)
   c15dc:	d9002a17 	ldw	r4,168(sp)
   c15e0:	d8802e17 	ldw	r2,184(sp)
   c15e4:	d8002785 	stb	zero,158(sp)
   c15e8:	e011883a 	mov	r8,fp
   c15ec:	10c00104 	addi	r3,r2,4
   c15f0:	15000017 	ldw	r20,0(r2)
   c15f4:	002d883a 	mov	r22,zero
   c15f8:	80800094 	ori	r2,r16,2
   c15fc:	2002b616 	blt	r4,zero,c20d8 <___svfprintf_internal_r+0xe04>
   c1600:	00bfdfc4 	movi	r2,-129
   c1604:	80a4703a 	and	r18,r16,r2
   c1608:	d8c02e15 	stw	r3,184(sp)
   c160c:	94800094 	ori	r18,r18,2
   c1610:	a002a01e 	bne	r20,zero,c2094 <___svfprintf_internal_r+0xdc0>
   c1614:	014003b4 	movhi	r5,14
   c1618:	29697b04 	addi	r5,r5,-23060
   c161c:	d9403a15 	stw	r5,232(sp)
   c1620:	04401e04 	movi	r17,120
   c1624:	d8c02a17 	ldw	r3,168(sp)
   c1628:	0039883a 	mov	fp,zero
   c162c:	1801e626 	beq	r3,zero,c1dc8 <___svfprintf_internal_r+0xaf4>
   c1630:	0029883a 	mov	r20,zero
   c1634:	002d883a 	mov	r22,zero
   c1638:	00020506 	br	c1e50 <___svfprintf_internal_r+0xb7c>
   c163c:	d9402d17 	ldw	r5,180(sp)
   c1640:	d9801e04 	addi	r6,sp,120
   c1644:	9809883a 	mov	r4,r19
   c1648:	00ce9ec0 	call	ce9ec <__ssprint_r>
   c164c:	1000081e 	bne	r2,zero,c1670 <___svfprintf_internal_r+0x39c>
   c1650:	da000404 	addi	r8,sp,16
   c1654:	003f6106 	br	c13dc <_gp+0xfffdcbfc>
   c1658:	d8802017 	ldw	r2,128(sp)
   c165c:	10000426 	beq	r2,zero,c1670 <___svfprintf_internal_r+0x39c>
   c1660:	d9402d17 	ldw	r5,180(sp)
   c1664:	d9003917 	ldw	r4,228(sp)
   c1668:	d9801e04 	addi	r6,sp,120
   c166c:	00ce9ec0 	call	ce9ec <__ssprint_r>
   c1670:	d8802d17 	ldw	r2,180(sp)
   c1674:	10c0030b 	ldhu	r3,12(r2)
   c1678:	d8802f17 	ldw	r2,188(sp)
   c167c:	18c0100c 	andi	r3,r3,64
   c1680:	1806251e 	bne	r3,zero,c2f18 <___svfprintf_internal_r+0x1c44>
   c1684:	dfc04817 	ldw	ra,288(sp)
   c1688:	df004717 	ldw	fp,284(sp)
   c168c:	ddc04617 	ldw	r23,280(sp)
   c1690:	dd804517 	ldw	r22,276(sp)
   c1694:	dd404417 	ldw	r21,272(sp)
   c1698:	dd004317 	ldw	r20,268(sp)
   c169c:	dcc04217 	ldw	r19,264(sp)
   c16a0:	dc804117 	ldw	r18,260(sp)
   c16a4:	dc404017 	ldw	r17,256(sp)
   c16a8:	dc003f17 	ldw	r16,252(sp)
   c16ac:	dec04904 	addi	sp,sp,292
   c16b0:	f800283a 	ret
   c16b4:	d9002e17 	ldw	r4,184(sp)
   c16b8:	d9402e17 	ldw	r5,184(sp)
   c16bc:	21000017 	ldw	r4,0(r4)
   c16c0:	28800104 	addi	r2,r5,4
   c16c4:	d9003115 	stw	r4,196(sp)
   c16c8:	203fb916 	blt	r4,zero,c15b0 <_gp+0xfffdcdd0>
   c16cc:	d8802e15 	stw	r2,184(sp)
   c16d0:	bc400007 	ldb	r17,0(r23)
   c16d4:	003f5406 	br	c1428 <_gp+0xfffdcc48>
   c16d8:	bc400007 	ldb	r17,0(r23)
   c16dc:	01000a84 	movi	r4,42
   c16e0:	b8c00044 	addi	r3,r23,1
   c16e4:	89076926 	beq	r17,r4,c348c <___svfprintf_internal_r+0x21b8>
   c16e8:	8cbff404 	addi	r18,r17,-48
   c16ec:	b486b936 	bltu	r22,r18,c31d4 <___svfprintf_internal_r+0x1f00>
   c16f0:	0009883a 	mov	r4,zero
   c16f4:	1823883a 	mov	r17,r3
   c16f8:	01400284 	movi	r5,10
   c16fc:	00d4f100 	call	d4f10 <__mulsi3>
   c1700:	88c00007 	ldb	r3,0(r17)
   c1704:	1489883a 	add	r4,r2,r18
   c1708:	8dc00044 	addi	r23,r17,1
   c170c:	1cbff404 	addi	r18,r3,-48
   c1710:	b823883a 	mov	r17,r23
   c1714:	b4bff82e 	bgeu	r22,r18,c16f8 <_gp+0xfffdcf18>
   c1718:	1823883a 	mov	r17,r3
   c171c:	20060416 	blt	r4,zero,c2f30 <___svfprintf_internal_r+0x1c5c>
   c1720:	d9002a15 	stw	r4,168(sp)
   c1724:	003f4106 	br	c142c <_gp+0xfffdcc4c>
   c1728:	8cbff404 	addi	r18,r17,-48
   c172c:	d8003115 	stw	zero,196(sp)
   c1730:	0009883a 	mov	r4,zero
   c1734:	b823883a 	mov	r17,r23
   c1738:	01400284 	movi	r5,10
   c173c:	00d4f100 	call	d4f10 <__mulsi3>
   c1740:	88c00007 	ldb	r3,0(r17)
   c1744:	9089883a 	add	r4,r18,r2
   c1748:	bdc00044 	addi	r23,r23,1
   c174c:	1cbff404 	addi	r18,r3,-48
   c1750:	b823883a 	mov	r17,r23
   c1754:	b4bff82e 	bgeu	r22,r18,c1738 <_gp+0xfffdcf58>
   c1758:	1823883a 	mov	r17,r3
   c175c:	d9003115 	stw	r4,196(sp)
   c1760:	003f3206 	br	c142c <_gp+0xfffdcc4c>
   c1764:	84002014 	ori	r16,r16,128
   c1768:	bc400007 	ldb	r17,0(r23)
   c176c:	003f2e06 	br	c1428 <_gp+0xfffdcc48>
   c1770:	8025883a 	mov	r18,r16
   c1774:	dc002903 	ldbu	r16,164(sp)
   c1778:	e011883a 	mov	r8,fp
   c177c:	84003fcc 	andi	r16,r16,255
   c1780:	8007721e 	bne	r16,zero,c354c <___svfprintf_internal_r+0x2278>
   c1784:	9080020c 	andi	r2,r18,8
   c1788:	1004a526 	beq	r2,zero,c2a20 <___svfprintf_internal_r+0x174c>
   c178c:	d9002e17 	ldw	r4,184(sp)
   c1790:	d9402e17 	ldw	r5,184(sp)
   c1794:	d8802e17 	ldw	r2,184(sp)
   c1798:	21000017 	ldw	r4,0(r4)
   c179c:	29400117 	ldw	r5,4(r5)
   c17a0:	10800204 	addi	r2,r2,8
   c17a4:	d9003615 	stw	r4,216(sp)
   c17a8:	d9403715 	stw	r5,220(sp)
   c17ac:	d8802e15 	stw	r2,184(sp)
   c17b0:	d9003617 	ldw	r4,216(sp)
   c17b4:	d9403717 	ldw	r5,220(sp)
   c17b8:	da003e15 	stw	r8,248(sp)
   c17bc:	04000044 	movi	r16,1
   c17c0:	00cc5c00 	call	cc5c0 <__fpclassifyd>
   c17c4:	da003e17 	ldw	r8,248(sp)
   c17c8:	1404731e 	bne	r2,r16,c2998 <___svfprintf_internal_r+0x16c4>
   c17cc:	d9003617 	ldw	r4,216(sp)
   c17d0:	d9403717 	ldw	r5,220(sp)
   c17d4:	000d883a 	mov	r6,zero
   c17d8:	000f883a 	mov	r7,zero
   c17dc:	00d65140 	call	d6514 <__ledf2>
   c17e0:	da003e17 	ldw	r8,248(sp)
   c17e4:	10061b16 	blt	r2,zero,c3054 <___svfprintf_internal_r+0x1d80>
   c17e8:	df002783 	ldbu	fp,158(sp)
   c17ec:	008011c4 	movi	r2,71
   c17f0:	1445810e 	bge	r2,r17,c2df8 <___svfprintf_internal_r+0x1b24>
   c17f4:	040003b4 	movhi	r16,14
   c17f8:	84297304 	addi	r16,r16,-23092
   c17fc:	00c000c4 	movi	r3,3
   c1800:	00bfdfc4 	movi	r2,-129
   c1804:	d8c02915 	stw	r3,164(sp)
   c1808:	90a4703a 	and	r18,r18,r2
   c180c:	d8c02b15 	stw	r3,172(sp)
   c1810:	d8002a15 	stw	zero,168(sp)
   c1814:	d8003215 	stw	zero,200(sp)
   c1818:	00006c06 	br	c19cc <___svfprintf_internal_r+0x6f8>
   c181c:	84000214 	ori	r16,r16,8
   c1820:	bc400007 	ldb	r17,0(r23)
   c1824:	003f0006 	br	c1428 <_gp+0xfffdcc48>
   c1828:	8025883a 	mov	r18,r16
   c182c:	dc002903 	ldbu	r16,164(sp)
   c1830:	e011883a 	mov	r8,fp
   c1834:	84003fcc 	andi	r16,r16,255
   c1838:	80073f1e 	bne	r16,zero,c3538 <___svfprintf_internal_r+0x2264>
   c183c:	94800414 	ori	r18,r18,16
   c1840:	9080080c 	andi	r2,r18,32
   c1844:	1003bb26 	beq	r2,zero,c2734 <___svfprintf_internal_r+0x1460>
   c1848:	d9002e17 	ldw	r4,184(sp)
   c184c:	20800117 	ldw	r2,4(r4)
   c1850:	25000017 	ldw	r20,0(r4)
   c1854:	21000204 	addi	r4,r4,8
   c1858:	d9002e15 	stw	r4,184(sp)
   c185c:	102d883a 	mov	r22,r2
   c1860:	1003bd16 	blt	r2,zero,c2758 <___svfprintf_internal_r+0x1484>
   c1864:	d9002a17 	ldw	r4,168(sp)
   c1868:	df002783 	ldbu	fp,158(sp)
   c186c:	2003d016 	blt	r4,zero,c27b0 <___svfprintf_internal_r+0x14dc>
   c1870:	00ffdfc4 	movi	r3,-129
   c1874:	a584b03a 	or	r2,r20,r22
   c1878:	90e4703a 	and	r18,r18,r3
   c187c:	10015026 	beq	r2,zero,c1dc0 <___svfprintf_internal_r+0xaec>
   c1880:	b0037026 	beq	r22,zero,c2644 <___svfprintf_internal_r+0x1370>
   c1884:	dc402915 	stw	r17,164(sp)
   c1888:	dc001e04 	addi	r16,sp,120
   c188c:	b023883a 	mov	r17,r22
   c1890:	402d883a 	mov	r22,r8
   c1894:	a009883a 	mov	r4,r20
   c1898:	880b883a 	mov	r5,r17
   c189c:	01800284 	movi	r6,10
   c18a0:	000f883a 	mov	r7,zero
   c18a4:	00d47980 	call	d4798 <__umoddi3>
   c18a8:	10800c04 	addi	r2,r2,48
   c18ac:	843fffc4 	addi	r16,r16,-1
   c18b0:	a009883a 	mov	r4,r20
   c18b4:	880b883a 	mov	r5,r17
   c18b8:	80800005 	stb	r2,0(r16)
   c18bc:	01800284 	movi	r6,10
   c18c0:	000f883a 	mov	r7,zero
   c18c4:	00d419c0 	call	d419c <__udivdi3>
   c18c8:	1029883a 	mov	r20,r2
   c18cc:	10c4b03a 	or	r2,r2,r3
   c18d0:	1823883a 	mov	r17,r3
   c18d4:	103fef1e 	bne	r2,zero,c1894 <_gp+0xfffdd0b4>
   c18d8:	d8c02817 	ldw	r3,160(sp)
   c18dc:	dc402917 	ldw	r17,164(sp)
   c18e0:	b011883a 	mov	r8,r22
   c18e4:	1c07c83a 	sub	r3,r3,r16
   c18e8:	d8c02b15 	stw	r3,172(sp)
   c18ec:	00003106 	br	c19b4 <___svfprintf_internal_r+0x6e0>
   c18f0:	8025883a 	mov	r18,r16
   c18f4:	dc002903 	ldbu	r16,164(sp)
   c18f8:	e011883a 	mov	r8,fp
   c18fc:	84003fcc 	andi	r16,r16,255
   c1900:	80070a1e 	bne	r16,zero,c352c <___svfprintf_internal_r+0x2258>
   c1904:	94800414 	ori	r18,r18,16
   c1908:	9080080c 	andi	r2,r18,32
   c190c:	1002f626 	beq	r2,zero,c24e8 <___svfprintf_internal_r+0x1214>
   c1910:	d9002e17 	ldw	r4,184(sp)
   c1914:	d9402a17 	ldw	r5,168(sp)
   c1918:	d8002785 	stb	zero,158(sp)
   c191c:	20800204 	addi	r2,r4,8
   c1920:	25000017 	ldw	r20,0(r4)
   c1924:	25800117 	ldw	r22,4(r4)
   c1928:	28043716 	blt	r5,zero,c2a08 <___svfprintf_internal_r+0x1734>
   c192c:	013fdfc4 	movi	r4,-129
   c1930:	a586b03a 	or	r3,r20,r22
   c1934:	d8802e15 	stw	r2,184(sp)
   c1938:	9124703a 	and	r18,r18,r4
   c193c:	1802f71e 	bne	r3,zero,c251c <___svfprintf_internal_r+0x1248>
   c1940:	d9402a17 	ldw	r5,168(sp)
   c1944:	0039883a 	mov	fp,zero
   c1948:	2806df26 	beq	r5,zero,c34c8 <___svfprintf_internal_r+0x21f4>
   c194c:	0029883a 	mov	r20,zero
   c1950:	002d883a 	mov	r22,zero
   c1954:	dc001e04 	addi	r16,sp,120
   c1958:	a006d0fa 	srli	r3,r20,3
   c195c:	b008977a 	slli	r4,r22,29
   c1960:	b02cd0fa 	srli	r22,r22,3
   c1964:	a50001cc 	andi	r20,r20,7
   c1968:	a0800c04 	addi	r2,r20,48
   c196c:	843fffc4 	addi	r16,r16,-1
   c1970:	20e8b03a 	or	r20,r4,r3
   c1974:	80800005 	stb	r2,0(r16)
   c1978:	a586b03a 	or	r3,r20,r22
   c197c:	183ff61e 	bne	r3,zero,c1958 <_gp+0xfffdd178>
   c1980:	90c0004c 	andi	r3,r18,1
   c1984:	18013f26 	beq	r3,zero,c1e84 <___svfprintf_internal_r+0xbb0>
   c1988:	10803fcc 	andi	r2,r2,255
   c198c:	1080201c 	xori	r2,r2,128
   c1990:	10bfe004 	addi	r2,r2,-128
   c1994:	00c00c04 	movi	r3,48
   c1998:	10c13a26 	beq	r2,r3,c1e84 <___svfprintf_internal_r+0xbb0>
   c199c:	80ffffc5 	stb	r3,-1(r16)
   c19a0:	d8c02817 	ldw	r3,160(sp)
   c19a4:	80bfffc4 	addi	r2,r16,-1
   c19a8:	1021883a 	mov	r16,r2
   c19ac:	1887c83a 	sub	r3,r3,r2
   c19b0:	d8c02b15 	stw	r3,172(sp)
   c19b4:	d8802b17 	ldw	r2,172(sp)
   c19b8:	d9002a17 	ldw	r4,168(sp)
   c19bc:	1100010e 	bge	r2,r4,c19c4 <___svfprintf_internal_r+0x6f0>
   c19c0:	2005883a 	mov	r2,r4
   c19c4:	d8802915 	stw	r2,164(sp)
   c19c8:	d8003215 	stw	zero,200(sp)
   c19cc:	e7003fcc 	andi	fp,fp,255
   c19d0:	e700201c 	xori	fp,fp,128
   c19d4:	e73fe004 	addi	fp,fp,-128
   c19d8:	e0000326 	beq	fp,zero,c19e8 <___svfprintf_internal_r+0x714>
   c19dc:	d8c02917 	ldw	r3,164(sp)
   c19e0:	18c00044 	addi	r3,r3,1
   c19e4:	d8c02915 	stw	r3,164(sp)
   c19e8:	90c0008c 	andi	r3,r18,2
   c19ec:	d8c02c15 	stw	r3,176(sp)
   c19f0:	18000326 	beq	r3,zero,c1a00 <___svfprintf_internal_r+0x72c>
   c19f4:	d8c02917 	ldw	r3,164(sp)
   c19f8:	18c00084 	addi	r3,r3,2
   c19fc:	d8c02915 	stw	r3,164(sp)
   c1a00:	90c0210c 	andi	r3,r18,132
   c1a04:	d8c03015 	stw	r3,192(sp)
   c1a08:	1801c31e 	bne	r3,zero,c2118 <___svfprintf_internal_r+0xe44>
   c1a0c:	d9003117 	ldw	r4,196(sp)
   c1a10:	d8c02917 	ldw	r3,164(sp)
   c1a14:	20e9c83a 	sub	r20,r4,r3
   c1a18:	0501bf0e 	bge	zero,r20,c2118 <___svfprintf_internal_r+0xe44>
   c1a1c:	02400404 	movi	r9,16
   c1a20:	d8c02017 	ldw	r3,128(sp)
   c1a24:	d8801f17 	ldw	r2,124(sp)
   c1a28:	4d053d0e 	bge	r9,r20,c2f20 <___svfprintf_internal_r+0x1c4c>
   c1a2c:	014003b4 	movhi	r5,14
   c1a30:	29698684 	addi	r5,r5,-23014
   c1a34:	dc403c15 	stw	r17,240(sp)
   c1a38:	d9403515 	stw	r5,212(sp)
   c1a3c:	a023883a 	mov	r17,r20
   c1a40:	482d883a 	mov	r22,r9
   c1a44:	9029883a 	mov	r20,r18
   c1a48:	070001c4 	movi	fp,7
   c1a4c:	8025883a 	mov	r18,r16
   c1a50:	dc002d17 	ldw	r16,180(sp)
   c1a54:	00000306 	br	c1a64 <___svfprintf_internal_r+0x790>
   c1a58:	8c7ffc04 	addi	r17,r17,-16
   c1a5c:	42000204 	addi	r8,r8,8
   c1a60:	b440130e 	bge	r22,r17,c1ab0 <___svfprintf_internal_r+0x7dc>
   c1a64:	010003b4 	movhi	r4,14
   c1a68:	18c00404 	addi	r3,r3,16
   c1a6c:	10800044 	addi	r2,r2,1
   c1a70:	21298684 	addi	r4,r4,-23014
   c1a74:	41000015 	stw	r4,0(r8)
   c1a78:	45800115 	stw	r22,4(r8)
   c1a7c:	d8c02015 	stw	r3,128(sp)
   c1a80:	d8801f15 	stw	r2,124(sp)
   c1a84:	e0bff40e 	bge	fp,r2,c1a58 <_gp+0xfffdd278>
   c1a88:	d9801e04 	addi	r6,sp,120
   c1a8c:	800b883a 	mov	r5,r16
   c1a90:	9809883a 	mov	r4,r19
   c1a94:	00ce9ec0 	call	ce9ec <__ssprint_r>
   c1a98:	103ef51e 	bne	r2,zero,c1670 <_gp+0xfffdce90>
   c1a9c:	8c7ffc04 	addi	r17,r17,-16
   c1aa0:	d8c02017 	ldw	r3,128(sp)
   c1aa4:	d8801f17 	ldw	r2,124(sp)
   c1aa8:	da000404 	addi	r8,sp,16
   c1aac:	b47fed16 	blt	r22,r17,c1a64 <_gp+0xfffdd284>
   c1ab0:	9021883a 	mov	r16,r18
   c1ab4:	a025883a 	mov	r18,r20
   c1ab8:	8829883a 	mov	r20,r17
   c1abc:	dc403c17 	ldw	r17,240(sp)
   c1ac0:	d9403517 	ldw	r5,212(sp)
   c1ac4:	a0c7883a 	add	r3,r20,r3
   c1ac8:	10800044 	addi	r2,r2,1
   c1acc:	41400015 	stw	r5,0(r8)
   c1ad0:	45000115 	stw	r20,4(r8)
   c1ad4:	d8c02015 	stw	r3,128(sp)
   c1ad8:	d8801f15 	stw	r2,124(sp)
   c1adc:	010001c4 	movi	r4,7
   c1ae0:	2082c116 	blt	r4,r2,c25e8 <___svfprintf_internal_r+0x1314>
   c1ae4:	df002787 	ldb	fp,158(sp)
   c1ae8:	42000204 	addi	r8,r8,8
   c1aec:	e0000c26 	beq	fp,zero,c1b20 <___svfprintf_internal_r+0x84c>
   c1af0:	d8801f17 	ldw	r2,124(sp)
   c1af4:	d9002784 	addi	r4,sp,158
   c1af8:	18c00044 	addi	r3,r3,1
   c1afc:	10800044 	addi	r2,r2,1
   c1b00:	41000015 	stw	r4,0(r8)
   c1b04:	01000044 	movi	r4,1
   c1b08:	41000115 	stw	r4,4(r8)
   c1b0c:	d8c02015 	stw	r3,128(sp)
   c1b10:	d8801f15 	stw	r2,124(sp)
   c1b14:	010001c4 	movi	r4,7
   c1b18:	20825a16 	blt	r4,r2,c2484 <___svfprintf_internal_r+0x11b0>
   c1b1c:	42000204 	addi	r8,r8,8
   c1b20:	d8802c17 	ldw	r2,176(sp)
   c1b24:	10000c26 	beq	r2,zero,c1b58 <___svfprintf_internal_r+0x884>
   c1b28:	d8801f17 	ldw	r2,124(sp)
   c1b2c:	d9002704 	addi	r4,sp,156
   c1b30:	18c00084 	addi	r3,r3,2
   c1b34:	10800044 	addi	r2,r2,1
   c1b38:	41000015 	stw	r4,0(r8)
   c1b3c:	01000084 	movi	r4,2
   c1b40:	41000115 	stw	r4,4(r8)
   c1b44:	d8c02015 	stw	r3,128(sp)
   c1b48:	d8801f15 	stw	r2,124(sp)
   c1b4c:	010001c4 	movi	r4,7
   c1b50:	20825416 	blt	r4,r2,c24a4 <___svfprintf_internal_r+0x11d0>
   c1b54:	42000204 	addi	r8,r8,8
   c1b58:	d9003017 	ldw	r4,192(sp)
   c1b5c:	00802004 	movi	r2,128
   c1b60:	2081b926 	beq	r4,r2,c2248 <___svfprintf_internal_r+0xf74>
   c1b64:	d9402a17 	ldw	r5,168(sp)
   c1b68:	d8802b17 	ldw	r2,172(sp)
   c1b6c:	28adc83a 	sub	r22,r5,r2
   c1b70:	05802f0e 	bge	zero,r22,c1c30 <___svfprintf_internal_r+0x95c>
   c1b74:	07000404 	movi	fp,16
   c1b78:	d8801f17 	ldw	r2,124(sp)
   c1b7c:	e583e20e 	bge	fp,r22,c2b08 <___svfprintf_internal_r+0x1834>
   c1b80:	014003b4 	movhi	r5,14
   c1b84:	29698284 	addi	r5,r5,-23030
   c1b88:	dc402a15 	stw	r17,168(sp)
   c1b8c:	d9402c15 	stw	r5,176(sp)
   c1b90:	b023883a 	mov	r17,r22
   c1b94:	050001c4 	movi	r20,7
   c1b98:	902d883a 	mov	r22,r18
   c1b9c:	8025883a 	mov	r18,r16
   c1ba0:	dc002d17 	ldw	r16,180(sp)
   c1ba4:	00000306 	br	c1bb4 <___svfprintf_internal_r+0x8e0>
   c1ba8:	8c7ffc04 	addi	r17,r17,-16
   c1bac:	42000204 	addi	r8,r8,8
   c1bb0:	e440110e 	bge	fp,r17,c1bf8 <___svfprintf_internal_r+0x924>
   c1bb4:	18c00404 	addi	r3,r3,16
   c1bb8:	10800044 	addi	r2,r2,1
   c1bbc:	45400015 	stw	r21,0(r8)
   c1bc0:	47000115 	stw	fp,4(r8)
   c1bc4:	d8c02015 	stw	r3,128(sp)
   c1bc8:	d8801f15 	stw	r2,124(sp)
   c1bcc:	a0bff60e 	bge	r20,r2,c1ba8 <_gp+0xfffdd3c8>
   c1bd0:	d9801e04 	addi	r6,sp,120
   c1bd4:	800b883a 	mov	r5,r16
   c1bd8:	9809883a 	mov	r4,r19
   c1bdc:	00ce9ec0 	call	ce9ec <__ssprint_r>
   c1be0:	103ea31e 	bne	r2,zero,c1670 <_gp+0xfffdce90>
   c1be4:	8c7ffc04 	addi	r17,r17,-16
   c1be8:	d8c02017 	ldw	r3,128(sp)
   c1bec:	d8801f17 	ldw	r2,124(sp)
   c1bf0:	da000404 	addi	r8,sp,16
   c1bf4:	e47fef16 	blt	fp,r17,c1bb4 <_gp+0xfffdd3d4>
   c1bf8:	9021883a 	mov	r16,r18
   c1bfc:	b025883a 	mov	r18,r22
   c1c00:	882d883a 	mov	r22,r17
   c1c04:	dc402a17 	ldw	r17,168(sp)
   c1c08:	d9002c17 	ldw	r4,176(sp)
   c1c0c:	1d87883a 	add	r3,r3,r22
   c1c10:	10800044 	addi	r2,r2,1
   c1c14:	41000015 	stw	r4,0(r8)
   c1c18:	45800115 	stw	r22,4(r8)
   c1c1c:	d8c02015 	stw	r3,128(sp)
   c1c20:	d8801f15 	stw	r2,124(sp)
   c1c24:	010001c4 	movi	r4,7
   c1c28:	20820e16 	blt	r4,r2,c2464 <___svfprintf_internal_r+0x1190>
   c1c2c:	42000204 	addi	r8,r8,8
   c1c30:	9080400c 	andi	r2,r18,256
   c1c34:	10013a1e 	bne	r2,zero,c2120 <___svfprintf_internal_r+0xe4c>
   c1c38:	d9402b17 	ldw	r5,172(sp)
   c1c3c:	d8801f17 	ldw	r2,124(sp)
   c1c40:	44000015 	stw	r16,0(r8)
   c1c44:	1947883a 	add	r3,r3,r5
   c1c48:	10800044 	addi	r2,r2,1
   c1c4c:	41400115 	stw	r5,4(r8)
   c1c50:	d8c02015 	stw	r3,128(sp)
   c1c54:	d8801f15 	stw	r2,124(sp)
   c1c58:	010001c4 	movi	r4,7
   c1c5c:	2081f316 	blt	r4,r2,c242c <___svfprintf_internal_r+0x1158>
   c1c60:	42000204 	addi	r8,r8,8
   c1c64:	9480010c 	andi	r18,r18,4
   c1c68:	90003226 	beq	r18,zero,c1d34 <___svfprintf_internal_r+0xa60>
   c1c6c:	d9403117 	ldw	r5,196(sp)
   c1c70:	d8802917 	ldw	r2,164(sp)
   c1c74:	28a1c83a 	sub	r16,r5,r2
   c1c78:	04002e0e 	bge	zero,r16,c1d34 <___svfprintf_internal_r+0xa60>
   c1c7c:	04400404 	movi	r17,16
   c1c80:	d8801f17 	ldw	r2,124(sp)
   c1c84:	8c04db0e 	bge	r17,r16,c2ff4 <___svfprintf_internal_r+0x1d20>
   c1c88:	014003b4 	movhi	r5,14
   c1c8c:	29698684 	addi	r5,r5,-23014
   c1c90:	d9403515 	stw	r5,212(sp)
   c1c94:	048001c4 	movi	r18,7
   c1c98:	dd002d17 	ldw	r20,180(sp)
   c1c9c:	00000306 	br	c1cac <___svfprintf_internal_r+0x9d8>
   c1ca0:	843ffc04 	addi	r16,r16,-16
   c1ca4:	42000204 	addi	r8,r8,8
   c1ca8:	8c00130e 	bge	r17,r16,c1cf8 <___svfprintf_internal_r+0xa24>
   c1cac:	010003b4 	movhi	r4,14
   c1cb0:	18c00404 	addi	r3,r3,16
   c1cb4:	10800044 	addi	r2,r2,1
   c1cb8:	21298684 	addi	r4,r4,-23014
   c1cbc:	41000015 	stw	r4,0(r8)
   c1cc0:	44400115 	stw	r17,4(r8)
   c1cc4:	d8c02015 	stw	r3,128(sp)
   c1cc8:	d8801f15 	stw	r2,124(sp)
   c1ccc:	90bff40e 	bge	r18,r2,c1ca0 <_gp+0xfffdd4c0>
   c1cd0:	d9801e04 	addi	r6,sp,120
   c1cd4:	a00b883a 	mov	r5,r20
   c1cd8:	9809883a 	mov	r4,r19
   c1cdc:	00ce9ec0 	call	ce9ec <__ssprint_r>
   c1ce0:	103e631e 	bne	r2,zero,c1670 <_gp+0xfffdce90>
   c1ce4:	843ffc04 	addi	r16,r16,-16
   c1ce8:	d8c02017 	ldw	r3,128(sp)
   c1cec:	d8801f17 	ldw	r2,124(sp)
   c1cf0:	da000404 	addi	r8,sp,16
   c1cf4:	8c3fed16 	blt	r17,r16,c1cac <_gp+0xfffdd4cc>
   c1cf8:	d9403517 	ldw	r5,212(sp)
   c1cfc:	1c07883a 	add	r3,r3,r16
   c1d00:	10800044 	addi	r2,r2,1
   c1d04:	41400015 	stw	r5,0(r8)
   c1d08:	44000115 	stw	r16,4(r8)
   c1d0c:	d8c02015 	stw	r3,128(sp)
   c1d10:	d8801f15 	stw	r2,124(sp)
   c1d14:	010001c4 	movi	r4,7
   c1d18:	2080060e 	bge	r4,r2,c1d34 <___svfprintf_internal_r+0xa60>
   c1d1c:	d9402d17 	ldw	r5,180(sp)
   c1d20:	d9801e04 	addi	r6,sp,120
   c1d24:	9809883a 	mov	r4,r19
   c1d28:	00ce9ec0 	call	ce9ec <__ssprint_r>
   c1d2c:	103e501e 	bne	r2,zero,c1670 <_gp+0xfffdce90>
   c1d30:	d8c02017 	ldw	r3,128(sp)
   c1d34:	d8803117 	ldw	r2,196(sp)
   c1d38:	d9002917 	ldw	r4,164(sp)
   c1d3c:	1100010e 	bge	r2,r4,c1d44 <___svfprintf_internal_r+0xa70>
   c1d40:	2005883a 	mov	r2,r4
   c1d44:	d9402f17 	ldw	r5,188(sp)
   c1d48:	288b883a 	add	r5,r5,r2
   c1d4c:	d9402f15 	stw	r5,188(sp)
   c1d50:	1801be1e 	bne	r3,zero,c244c <___svfprintf_internal_r+0x1178>
   c1d54:	b8800007 	ldb	r2,0(r23)
   c1d58:	d8001f15 	stw	zero,124(sp)
   c1d5c:	da000404 	addi	r8,sp,16
   c1d60:	103d891e 	bne	r2,zero,c1388 <_gp+0xfffdcba8>
   c1d64:	b823883a 	mov	r17,r23
   c1d68:	003d9f06 	br	c13e8 <_gp+0xfffdcc08>
   c1d6c:	8025883a 	mov	r18,r16
   c1d70:	dc002903 	ldbu	r16,164(sp)
   c1d74:	e011883a 	mov	r8,fp
   c1d78:	84003fcc 	andi	r16,r16,255
   c1d7c:	8005e61e 	bne	r16,zero,c3518 <___svfprintf_internal_r+0x2244>
   c1d80:	94800414 	ori	r18,r18,16
   c1d84:	9080080c 	andi	r2,r18,32
   c1d88:	10022026 	beq	r2,zero,c260c <___svfprintf_internal_r+0x1338>
   c1d8c:	d9002e17 	ldw	r4,184(sp)
   c1d90:	d9402a17 	ldw	r5,168(sp)
   c1d94:	d8002785 	stb	zero,158(sp)
   c1d98:	20c00204 	addi	r3,r4,8
   c1d9c:	25000017 	ldw	r20,0(r4)
   c1da0:	25800117 	ldw	r22,4(r4)
   c1da4:	2803ad16 	blt	r5,zero,c2c5c <___svfprintf_internal_r+0x1988>
   c1da8:	013fdfc4 	movi	r4,-129
   c1dac:	a584b03a 	or	r2,r20,r22
   c1db0:	d8c02e15 	stw	r3,184(sp)
   c1db4:	9124703a 	and	r18,r18,r4
   c1db8:	0039883a 	mov	fp,zero
   c1dbc:	103eb01e 	bne	r2,zero,c1880 <_gp+0xfffdd0a0>
   c1dc0:	d8802a17 	ldw	r2,168(sp)
   c1dc4:	1002e71e 	bne	r2,zero,c2964 <___svfprintf_internal_r+0x1690>
   c1dc8:	d8002a15 	stw	zero,168(sp)
   c1dcc:	d8002b15 	stw	zero,172(sp)
   c1dd0:	dc001e04 	addi	r16,sp,120
   c1dd4:	003ef706 	br	c19b4 <_gp+0xfffdd1d4>
   c1dd8:	8025883a 	mov	r18,r16
   c1ddc:	dc002903 	ldbu	r16,164(sp)
   c1de0:	e011883a 	mov	r8,fp
   c1de4:	84003fcc 	andi	r16,r16,255
   c1de8:	8005c81e 	bne	r16,zero,c350c <___svfprintf_internal_r+0x2238>
   c1dec:	010003b4 	movhi	r4,14
   c1df0:	21297604 	addi	r4,r4,-23080
   c1df4:	d9003a15 	stw	r4,232(sp)
   c1df8:	9080080c 	andi	r2,r18,32
   c1dfc:	10007226 	beq	r2,zero,c1fc8 <___svfprintf_internal_r+0xcf4>
   c1e00:	d9402e17 	ldw	r5,184(sp)
   c1e04:	2d000017 	ldw	r20,0(r5)
   c1e08:	2d800117 	ldw	r22,4(r5)
   c1e0c:	29400204 	addi	r5,r5,8
   c1e10:	d9402e15 	stw	r5,184(sp)
   c1e14:	9080004c 	andi	r2,r18,1
   c1e18:	1001aa26 	beq	r2,zero,c24c4 <___svfprintf_internal_r+0x11f0>
   c1e1c:	a584b03a 	or	r2,r20,r22
   c1e20:	10032526 	beq	r2,zero,c2ab8 <___svfprintf_internal_r+0x17e4>
   c1e24:	d8c02a17 	ldw	r3,168(sp)
   c1e28:	00800c04 	movi	r2,48
   c1e2c:	d8802705 	stb	r2,156(sp)
   c1e30:	dc402745 	stb	r17,157(sp)
   c1e34:	d8002785 	stb	zero,158(sp)
   c1e38:	90800094 	ori	r2,r18,2
   c1e3c:	1804a316 	blt	r3,zero,c30cc <___svfprintf_internal_r+0x1df8>
   c1e40:	00bfdfc4 	movi	r2,-129
   c1e44:	90a4703a 	and	r18,r18,r2
   c1e48:	94800094 	ori	r18,r18,2
   c1e4c:	0039883a 	mov	fp,zero
   c1e50:	d9003a17 	ldw	r4,232(sp)
   c1e54:	dc001e04 	addi	r16,sp,120
   c1e58:	a08003cc 	andi	r2,r20,15
   c1e5c:	b006973a 	slli	r3,r22,28
   c1e60:	2085883a 	add	r2,r4,r2
   c1e64:	a028d13a 	srli	r20,r20,4
   c1e68:	10800003 	ldbu	r2,0(r2)
   c1e6c:	b02cd13a 	srli	r22,r22,4
   c1e70:	843fffc4 	addi	r16,r16,-1
   c1e74:	1d28b03a 	or	r20,r3,r20
   c1e78:	80800005 	stb	r2,0(r16)
   c1e7c:	a584b03a 	or	r2,r20,r22
   c1e80:	103ff51e 	bne	r2,zero,c1e58 <_gp+0xfffdd678>
   c1e84:	d8c02817 	ldw	r3,160(sp)
   c1e88:	1c07c83a 	sub	r3,r3,r16
   c1e8c:	d8c02b15 	stw	r3,172(sp)
   c1e90:	003ec806 	br	c19b4 <_gp+0xfffdd1d4>
   c1e94:	d8c02e17 	ldw	r3,184(sp)
   c1e98:	d9002e17 	ldw	r4,184(sp)
   c1e9c:	8025883a 	mov	r18,r16
   c1ea0:	18800017 	ldw	r2,0(r3)
   c1ea4:	21000104 	addi	r4,r4,4
   c1ea8:	00c00044 	movi	r3,1
   c1eac:	e011883a 	mov	r8,fp
   c1eb0:	d8c02915 	stw	r3,164(sp)
   c1eb4:	d8002785 	stb	zero,158(sp)
   c1eb8:	d8801405 	stb	r2,80(sp)
   c1ebc:	d9002e15 	stw	r4,184(sp)
   c1ec0:	d8c02b15 	stw	r3,172(sp)
   c1ec4:	d8002a15 	stw	zero,168(sp)
   c1ec8:	d8003215 	stw	zero,200(sp)
   c1ecc:	dc001404 	addi	r16,sp,80
   c1ed0:	0039883a 	mov	fp,zero
   c1ed4:	003ec406 	br	c19e8 <_gp+0xfffdd208>
   c1ed8:	8025883a 	mov	r18,r16
   c1edc:	dc002903 	ldbu	r16,164(sp)
   c1ee0:	e011883a 	mov	r8,fp
   c1ee4:	84003fcc 	andi	r16,r16,255
   c1ee8:	803e8726 	beq	r16,zero,c1908 <_gp+0xfffdd128>
   c1eec:	d8c02b03 	ldbu	r3,172(sp)
   c1ef0:	d8c02785 	stb	r3,158(sp)
   c1ef4:	003e8406 	br	c1908 <_gp+0xfffdd128>
   c1ef8:	00c00044 	movi	r3,1
   c1efc:	d8c02905 	stb	r3,164(sp)
   c1f00:	00c00ac4 	movi	r3,43
   c1f04:	d8c02b05 	stb	r3,172(sp)
   c1f08:	bc400007 	ldb	r17,0(r23)
   c1f0c:	003d4606 	br	c1428 <_gp+0xfffdcc48>
   c1f10:	84000814 	ori	r16,r16,32
   c1f14:	bc400007 	ldb	r17,0(r23)
   c1f18:	003d4306 	br	c1428 <_gp+0xfffdcc48>
   c1f1c:	d8802e17 	ldw	r2,184(sp)
   c1f20:	8025883a 	mov	r18,r16
   c1f24:	d8002785 	stb	zero,158(sp)
   c1f28:	14000017 	ldw	r16,0(r2)
   c1f2c:	e011883a 	mov	r8,fp
   c1f30:	15000104 	addi	r20,r2,4
   c1f34:	80042126 	beq	r16,zero,c2fbc <___svfprintf_internal_r+0x1ce8>
   c1f38:	d8c02a17 	ldw	r3,168(sp)
   c1f3c:	1803ee16 	blt	r3,zero,c2ef8 <___svfprintf_internal_r+0x1c24>
   c1f40:	180d883a 	mov	r6,r3
   c1f44:	000b883a 	mov	r5,zero
   c1f48:	8009883a 	mov	r4,r16
   c1f4c:	df003e15 	stw	fp,248(sp)
   c1f50:	00cabbc0 	call	cabbc <memchr>
   c1f54:	da003e17 	ldw	r8,248(sp)
   c1f58:	10046a26 	beq	r2,zero,c3104 <___svfprintf_internal_r+0x1e30>
   c1f5c:	1405c83a 	sub	r2,r2,r16
   c1f60:	d8802b15 	stw	r2,172(sp)
   c1f64:	1003ea16 	blt	r2,zero,c2f10 <___svfprintf_internal_r+0x1c3c>
   c1f68:	df002783 	ldbu	fp,158(sp)
   c1f6c:	d8802915 	stw	r2,164(sp)
   c1f70:	dd002e15 	stw	r20,184(sp)
   c1f74:	d8002a15 	stw	zero,168(sp)
   c1f78:	d8003215 	stw	zero,200(sp)
   c1f7c:	003e9306 	br	c19cc <_gp+0xfffdd1ec>
   c1f80:	8025883a 	mov	r18,r16
   c1f84:	dc002903 	ldbu	r16,164(sp)
   c1f88:	e011883a 	mov	r8,fp
   c1f8c:	84003fcc 	andi	r16,r16,255
   c1f90:	803f7c26 	beq	r16,zero,c1d84 <_gp+0xfffdd5a4>
   c1f94:	d8c02b03 	ldbu	r3,172(sp)
   c1f98:	d8c02785 	stb	r3,158(sp)
   c1f9c:	003f7906 	br	c1d84 <_gp+0xfffdd5a4>
   c1fa0:	8025883a 	mov	r18,r16
   c1fa4:	dc002903 	ldbu	r16,164(sp)
   c1fa8:	e011883a 	mov	r8,fp
   c1fac:	84003fcc 	andi	r16,r16,255
   c1fb0:	8005741e 	bne	r16,zero,c3584 <___svfprintf_internal_r+0x22b0>
   c1fb4:	010003b4 	movhi	r4,14
   c1fb8:	21297b04 	addi	r4,r4,-23060
   c1fbc:	d9003a15 	stw	r4,232(sp)
   c1fc0:	9080080c 	andi	r2,r18,32
   c1fc4:	103f8e1e 	bne	r2,zero,c1e00 <_gp+0xfffdd620>
   c1fc8:	9080040c 	andi	r2,r18,16
   c1fcc:	1002a726 	beq	r2,zero,c2a6c <___svfprintf_internal_r+0x1798>
   c1fd0:	d8802e17 	ldw	r2,184(sp)
   c1fd4:	002d883a 	mov	r22,zero
   c1fd8:	15000017 	ldw	r20,0(r2)
   c1fdc:	10800104 	addi	r2,r2,4
   c1fe0:	d8802e15 	stw	r2,184(sp)
   c1fe4:	003f8b06 	br	c1e14 <_gp+0xfffdd634>
   c1fe8:	84000054 	ori	r16,r16,1
   c1fec:	bc400007 	ldb	r17,0(r23)
   c1ff0:	003d0d06 	br	c1428 <_gp+0xfffdcc48>
   c1ff4:	d8802b07 	ldb	r2,172(sp)
   c1ff8:	1002a41e 	bne	r2,zero,c2a8c <___svfprintf_internal_r+0x17b8>
   c1ffc:	00c00044 	movi	r3,1
   c2000:	d8c02905 	stb	r3,164(sp)
   c2004:	00c00804 	movi	r3,32
   c2008:	d8c02b05 	stb	r3,172(sp)
   c200c:	bc400007 	ldb	r17,0(r23)
   c2010:	003d0506 	br	c1428 <_gp+0xfffdcc48>
   c2014:	8025883a 	mov	r18,r16
   c2018:	dc002903 	ldbu	r16,164(sp)
   c201c:	e011883a 	mov	r8,fp
   c2020:	84003fcc 	andi	r16,r16,255
   c2024:	803e0626 	beq	r16,zero,c1840 <_gp+0xfffdd060>
   c2028:	d8c02b03 	ldbu	r3,172(sp)
   c202c:	d8c02785 	stb	r3,158(sp)
   c2030:	003e0306 	br	c1840 <_gp+0xfffdd060>
   c2034:	bc400007 	ldb	r17,0(r23)
   c2038:	00801b04 	movi	r2,108
   c203c:	88830a26 	beq	r17,r2,c2c68 <___svfprintf_internal_r+0x1994>
   c2040:	84000414 	ori	r16,r16,16
   c2044:	003cf806 	br	c1428 <_gp+0xfffdcc48>
   c2048:	8025883a 	mov	r18,r16
   c204c:	dc002903 	ldbu	r16,164(sp)
   c2050:	e011883a 	mov	r8,fp
   c2054:	84003fcc 	andi	r16,r16,255
   c2058:	8005471e 	bne	r16,zero,c3578 <___svfprintf_internal_r+0x22a4>
   c205c:	9080080c 	andi	r2,r18,32
   c2060:	10028c26 	beq	r2,zero,c2a94 <___svfprintf_internal_r+0x17c0>
   c2064:	d9002e17 	ldw	r4,184(sp)
   c2068:	d9402f17 	ldw	r5,188(sp)
   c206c:	20800017 	ldw	r2,0(r4)
   c2070:	2807d7fa 	srai	r3,r5,31
   c2074:	21000104 	addi	r4,r4,4
   c2078:	d9002e15 	stw	r4,184(sp)
   c207c:	11400015 	stw	r5,0(r2)
   c2080:	10c00115 	stw	r3,4(r2)
   c2084:	003cbe06 	br	c1380 <_gp+0xfffdcba0>
   c2088:	84001014 	ori	r16,r16,64
   c208c:	bc400007 	ldb	r17,0(r23)
   c2090:	003ce506 	br	c1428 <_gp+0xfffdcc48>
   c2094:	010003b4 	movhi	r4,14
   c2098:	21297b04 	addi	r4,r4,-23060
   c209c:	0039883a 	mov	fp,zero
   c20a0:	d9003a15 	stw	r4,232(sp)
   c20a4:	04401e04 	movi	r17,120
   c20a8:	003f6906 	br	c1e50 <_gp+0xfffdd670>
   c20ac:	8025883a 	mov	r18,r16
   c20b0:	dc002903 	ldbu	r16,164(sp)
   c20b4:	e011883a 	mov	r8,fp
   c20b8:	84003fcc 	andi	r16,r16,255
   c20bc:	8005261e 	bne	r16,zero,c3558 <___svfprintf_internal_r+0x2284>
   c20c0:	883d6526 	beq	r17,zero,c1658 <_gp+0xfffdce78>
   c20c4:	00c00044 	movi	r3,1
   c20c8:	d8c02915 	stw	r3,164(sp)
   c20cc:	dc401405 	stb	r17,80(sp)
   c20d0:	d8002785 	stb	zero,158(sp)
   c20d4:	003f7a06 	br	c1ec0 <_gp+0xfffdd6e0>
   c20d8:	010003b4 	movhi	r4,14
   c20dc:	21297b04 	addi	r4,r4,-23060
   c20e0:	d9003a15 	stw	r4,232(sp)
   c20e4:	d8c02e15 	stw	r3,184(sp)
   c20e8:	1025883a 	mov	r18,r2
   c20ec:	04401e04 	movi	r17,120
   c20f0:	a584b03a 	or	r2,r20,r22
   c20f4:	1000fa1e 	bne	r2,zero,c24e0 <___svfprintf_internal_r+0x120c>
   c20f8:	0039883a 	mov	fp,zero
   c20fc:	00800084 	movi	r2,2
   c2100:	10803fcc 	andi	r2,r2,255
   c2104:	00c00044 	movi	r3,1
   c2108:	10c21626 	beq	r2,r3,c2964 <___svfprintf_internal_r+0x1690>
   c210c:	00c00084 	movi	r3,2
   c2110:	10fe0e1e 	bne	r2,r3,c194c <_gp+0xfffdd16c>
   c2114:	003d4606 	br	c1630 <_gp+0xfffdce50>
   c2118:	d8c02017 	ldw	r3,128(sp)
   c211c:	003e7306 	br	c1aec <_gp+0xfffdd30c>
   c2120:	00801944 	movi	r2,101
   c2124:	14407c0e 	bge	r2,r17,c2318 <___svfprintf_internal_r+0x1044>
   c2128:	d9003617 	ldw	r4,216(sp)
   c212c:	d9403717 	ldw	r5,220(sp)
   c2130:	000d883a 	mov	r6,zero
   c2134:	000f883a 	mov	r7,zero
   c2138:	d8c03d15 	stw	r3,244(sp)
   c213c:	da003e15 	stw	r8,248(sp)
   c2140:	00d63b00 	call	d63b0 <__eqdf2>
   c2144:	d8c03d17 	ldw	r3,244(sp)
   c2148:	da003e17 	ldw	r8,248(sp)
   c214c:	1000f51e 	bne	r2,zero,c2524 <___svfprintf_internal_r+0x1250>
   c2150:	d8801f17 	ldw	r2,124(sp)
   c2154:	010003b4 	movhi	r4,14
   c2158:	21298204 	addi	r4,r4,-23032
   c215c:	18c00044 	addi	r3,r3,1
   c2160:	10800044 	addi	r2,r2,1
   c2164:	41000015 	stw	r4,0(r8)
   c2168:	01000044 	movi	r4,1
   c216c:	41000115 	stw	r4,4(r8)
   c2170:	d8c02015 	stw	r3,128(sp)
   c2174:	d8801f15 	stw	r2,124(sp)
   c2178:	010001c4 	movi	r4,7
   c217c:	20826616 	blt	r4,r2,c2b18 <___svfprintf_internal_r+0x1844>
   c2180:	42000204 	addi	r8,r8,8
   c2184:	d8802617 	ldw	r2,152(sp)
   c2188:	d9403317 	ldw	r5,204(sp)
   c218c:	11400216 	blt	r2,r5,c2198 <___svfprintf_internal_r+0xec4>
   c2190:	9080004c 	andi	r2,r18,1
   c2194:	103eb326 	beq	r2,zero,c1c64 <_gp+0xfffdd484>
   c2198:	d8803817 	ldw	r2,224(sp)
   c219c:	d9003417 	ldw	r4,208(sp)
   c21a0:	d9403817 	ldw	r5,224(sp)
   c21a4:	1887883a 	add	r3,r3,r2
   c21a8:	d8801f17 	ldw	r2,124(sp)
   c21ac:	41000015 	stw	r4,0(r8)
   c21b0:	41400115 	stw	r5,4(r8)
   c21b4:	10800044 	addi	r2,r2,1
   c21b8:	d8c02015 	stw	r3,128(sp)
   c21bc:	d8801f15 	stw	r2,124(sp)
   c21c0:	010001c4 	movi	r4,7
   c21c4:	2082af16 	blt	r4,r2,c2c84 <___svfprintf_internal_r+0x19b0>
   c21c8:	42000204 	addi	r8,r8,8
   c21cc:	d8803317 	ldw	r2,204(sp)
   c21d0:	143fffc4 	addi	r16,r2,-1
   c21d4:	043ea30e 	bge	zero,r16,c1c64 <_gp+0xfffdd484>
   c21d8:	04400404 	movi	r17,16
   c21dc:	d8801f17 	ldw	r2,124(sp)
   c21e0:	8c00860e 	bge	r17,r16,c23fc <___svfprintf_internal_r+0x1128>
   c21e4:	014003b4 	movhi	r5,14
   c21e8:	29698284 	addi	r5,r5,-23030
   c21ec:	d9402c15 	stw	r5,176(sp)
   c21f0:	058001c4 	movi	r22,7
   c21f4:	dd002d17 	ldw	r20,180(sp)
   c21f8:	00000306 	br	c2208 <___svfprintf_internal_r+0xf34>
   c21fc:	42000204 	addi	r8,r8,8
   c2200:	843ffc04 	addi	r16,r16,-16
   c2204:	8c00800e 	bge	r17,r16,c2408 <___svfprintf_internal_r+0x1134>
   c2208:	18c00404 	addi	r3,r3,16
   c220c:	10800044 	addi	r2,r2,1
   c2210:	45400015 	stw	r21,0(r8)
   c2214:	44400115 	stw	r17,4(r8)
   c2218:	d8c02015 	stw	r3,128(sp)
   c221c:	d8801f15 	stw	r2,124(sp)
   c2220:	b0bff60e 	bge	r22,r2,c21fc <_gp+0xfffdda1c>
   c2224:	d9801e04 	addi	r6,sp,120
   c2228:	a00b883a 	mov	r5,r20
   c222c:	9809883a 	mov	r4,r19
   c2230:	00ce9ec0 	call	ce9ec <__ssprint_r>
   c2234:	103d0e1e 	bne	r2,zero,c1670 <_gp+0xfffdce90>
   c2238:	d8c02017 	ldw	r3,128(sp)
   c223c:	d8801f17 	ldw	r2,124(sp)
   c2240:	da000404 	addi	r8,sp,16
   c2244:	003fee06 	br	c2200 <_gp+0xfffdda20>
   c2248:	d9403117 	ldw	r5,196(sp)
   c224c:	d8802917 	ldw	r2,164(sp)
   c2250:	28adc83a 	sub	r22,r5,r2
   c2254:	05be430e 	bge	zero,r22,c1b64 <_gp+0xfffdd384>
   c2258:	07000404 	movi	fp,16
   c225c:	d8801f17 	ldw	r2,124(sp)
   c2260:	e583a20e 	bge	fp,r22,c30ec <___svfprintf_internal_r+0x1e18>
   c2264:	014003b4 	movhi	r5,14
   c2268:	29698284 	addi	r5,r5,-23030
   c226c:	dc403015 	stw	r17,192(sp)
   c2270:	d9402c15 	stw	r5,176(sp)
   c2274:	b023883a 	mov	r17,r22
   c2278:	050001c4 	movi	r20,7
   c227c:	902d883a 	mov	r22,r18
   c2280:	8025883a 	mov	r18,r16
   c2284:	dc002d17 	ldw	r16,180(sp)
   c2288:	00000306 	br	c2298 <___svfprintf_internal_r+0xfc4>
   c228c:	8c7ffc04 	addi	r17,r17,-16
   c2290:	42000204 	addi	r8,r8,8
   c2294:	e440110e 	bge	fp,r17,c22dc <___svfprintf_internal_r+0x1008>
   c2298:	18c00404 	addi	r3,r3,16
   c229c:	10800044 	addi	r2,r2,1
   c22a0:	45400015 	stw	r21,0(r8)
   c22a4:	47000115 	stw	fp,4(r8)
   c22a8:	d8c02015 	stw	r3,128(sp)
   c22ac:	d8801f15 	stw	r2,124(sp)
   c22b0:	a0bff60e 	bge	r20,r2,c228c <_gp+0xfffddaac>
   c22b4:	d9801e04 	addi	r6,sp,120
   c22b8:	800b883a 	mov	r5,r16
   c22bc:	9809883a 	mov	r4,r19
   c22c0:	00ce9ec0 	call	ce9ec <__ssprint_r>
   c22c4:	103cea1e 	bne	r2,zero,c1670 <_gp+0xfffdce90>
   c22c8:	8c7ffc04 	addi	r17,r17,-16
   c22cc:	d8c02017 	ldw	r3,128(sp)
   c22d0:	d8801f17 	ldw	r2,124(sp)
   c22d4:	da000404 	addi	r8,sp,16
   c22d8:	e47fef16 	blt	fp,r17,c2298 <_gp+0xfffddab8>
   c22dc:	9021883a 	mov	r16,r18
   c22e0:	b025883a 	mov	r18,r22
   c22e4:	882d883a 	mov	r22,r17
   c22e8:	dc403017 	ldw	r17,192(sp)
   c22ec:	d9002c17 	ldw	r4,176(sp)
   c22f0:	1d87883a 	add	r3,r3,r22
   c22f4:	10800044 	addi	r2,r2,1
   c22f8:	41000015 	stw	r4,0(r8)
   c22fc:	45800115 	stw	r22,4(r8)
   c2300:	d8c02015 	stw	r3,128(sp)
   c2304:	d8801f15 	stw	r2,124(sp)
   c2308:	010001c4 	movi	r4,7
   c230c:	20819a16 	blt	r4,r2,c2978 <___svfprintf_internal_r+0x16a4>
   c2310:	42000204 	addi	r8,r8,8
   c2314:	003e1306 	br	c1b64 <_gp+0xfffdd384>
   c2318:	d9403317 	ldw	r5,204(sp)
   c231c:	00800044 	movi	r2,1
   c2320:	18c00044 	addi	r3,r3,1
   c2324:	1141710e 	bge	r2,r5,c28ec <___svfprintf_internal_r+0x1618>
   c2328:	dc401f17 	ldw	r17,124(sp)
   c232c:	00800044 	movi	r2,1
   c2330:	40800115 	stw	r2,4(r8)
   c2334:	8c400044 	addi	r17,r17,1
   c2338:	44000015 	stw	r16,0(r8)
   c233c:	d8c02015 	stw	r3,128(sp)
   c2340:	dc401f15 	stw	r17,124(sp)
   c2344:	008001c4 	movi	r2,7
   c2348:	14417416 	blt	r2,r17,c291c <___svfprintf_internal_r+0x1648>
   c234c:	42000204 	addi	r8,r8,8
   c2350:	d8803817 	ldw	r2,224(sp)
   c2354:	d9003417 	ldw	r4,208(sp)
   c2358:	8c400044 	addi	r17,r17,1
   c235c:	10c7883a 	add	r3,r2,r3
   c2360:	40800115 	stw	r2,4(r8)
   c2364:	41000015 	stw	r4,0(r8)
   c2368:	d8c02015 	stw	r3,128(sp)
   c236c:	dc401f15 	stw	r17,124(sp)
   c2370:	008001c4 	movi	r2,7
   c2374:	14417216 	blt	r2,r17,c2940 <___svfprintf_internal_r+0x166c>
   c2378:	45800204 	addi	r22,r8,8
   c237c:	d9003617 	ldw	r4,216(sp)
   c2380:	d9403717 	ldw	r5,220(sp)
   c2384:	000d883a 	mov	r6,zero
   c2388:	000f883a 	mov	r7,zero
   c238c:	d8c03d15 	stw	r3,244(sp)
   c2390:	00d63b00 	call	d63b0 <__eqdf2>
   c2394:	d8c03d17 	ldw	r3,244(sp)
   c2398:	1000b326 	beq	r2,zero,c2668 <___svfprintf_internal_r+0x1394>
   c239c:	d9403317 	ldw	r5,204(sp)
   c23a0:	84000044 	addi	r16,r16,1
   c23a4:	8c400044 	addi	r17,r17,1
   c23a8:	28bfffc4 	addi	r2,r5,-1
   c23ac:	1887883a 	add	r3,r3,r2
   c23b0:	b0800115 	stw	r2,4(r22)
   c23b4:	b4000015 	stw	r16,0(r22)
   c23b8:	d8c02015 	stw	r3,128(sp)
   c23bc:	dc401f15 	stw	r17,124(sp)
   c23c0:	008001c4 	movi	r2,7
   c23c4:	1440d216 	blt	r2,r17,c2710 <___svfprintf_internal_r+0x143c>
   c23c8:	b5800204 	addi	r22,r22,8
   c23cc:	d9003b17 	ldw	r4,236(sp)
   c23d0:	df0022c4 	addi	fp,sp,139
   c23d4:	8c400044 	addi	r17,r17,1
   c23d8:	20c7883a 	add	r3,r4,r3
   c23dc:	b7000015 	stw	fp,0(r22)
   c23e0:	b1000115 	stw	r4,4(r22)
   c23e4:	d8c02015 	stw	r3,128(sp)
   c23e8:	dc401f15 	stw	r17,124(sp)
   c23ec:	008001c4 	movi	r2,7
   c23f0:	14400e16 	blt	r2,r17,c242c <___svfprintf_internal_r+0x1158>
   c23f4:	b2000204 	addi	r8,r22,8
   c23f8:	003e1a06 	br	c1c64 <_gp+0xfffdd484>
   c23fc:	010003b4 	movhi	r4,14
   c2400:	21298284 	addi	r4,r4,-23030
   c2404:	d9002c15 	stw	r4,176(sp)
   c2408:	d9002c17 	ldw	r4,176(sp)
   c240c:	1c07883a 	add	r3,r3,r16
   c2410:	44000115 	stw	r16,4(r8)
   c2414:	41000015 	stw	r4,0(r8)
   c2418:	10800044 	addi	r2,r2,1
   c241c:	d8c02015 	stw	r3,128(sp)
   c2420:	d8801f15 	stw	r2,124(sp)
   c2424:	010001c4 	movi	r4,7
   c2428:	20be0d0e 	bge	r4,r2,c1c60 <_gp+0xfffdd480>
   c242c:	d9402d17 	ldw	r5,180(sp)
   c2430:	d9801e04 	addi	r6,sp,120
   c2434:	9809883a 	mov	r4,r19
   c2438:	00ce9ec0 	call	ce9ec <__ssprint_r>
   c243c:	103c8c1e 	bne	r2,zero,c1670 <_gp+0xfffdce90>
   c2440:	d8c02017 	ldw	r3,128(sp)
   c2444:	da000404 	addi	r8,sp,16
   c2448:	003e0606 	br	c1c64 <_gp+0xfffdd484>
   c244c:	d9402d17 	ldw	r5,180(sp)
   c2450:	d9801e04 	addi	r6,sp,120
   c2454:	9809883a 	mov	r4,r19
   c2458:	00ce9ec0 	call	ce9ec <__ssprint_r>
   c245c:	103e3d26 	beq	r2,zero,c1d54 <_gp+0xfffdd574>
   c2460:	003c8306 	br	c1670 <_gp+0xfffdce90>
   c2464:	d9402d17 	ldw	r5,180(sp)
   c2468:	d9801e04 	addi	r6,sp,120
   c246c:	9809883a 	mov	r4,r19
   c2470:	00ce9ec0 	call	ce9ec <__ssprint_r>
   c2474:	103c7e1e 	bne	r2,zero,c1670 <_gp+0xfffdce90>
   c2478:	d8c02017 	ldw	r3,128(sp)
   c247c:	da000404 	addi	r8,sp,16
   c2480:	003deb06 	br	c1c30 <_gp+0xfffdd450>
   c2484:	d9402d17 	ldw	r5,180(sp)
   c2488:	d9801e04 	addi	r6,sp,120
   c248c:	9809883a 	mov	r4,r19
   c2490:	00ce9ec0 	call	ce9ec <__ssprint_r>
   c2494:	103c761e 	bne	r2,zero,c1670 <_gp+0xfffdce90>
   c2498:	d8c02017 	ldw	r3,128(sp)
   c249c:	da000404 	addi	r8,sp,16
   c24a0:	003d9f06 	br	c1b20 <_gp+0xfffdd340>
   c24a4:	d9402d17 	ldw	r5,180(sp)
   c24a8:	d9801e04 	addi	r6,sp,120
   c24ac:	9809883a 	mov	r4,r19
   c24b0:	00ce9ec0 	call	ce9ec <__ssprint_r>
   c24b4:	103c6e1e 	bne	r2,zero,c1670 <_gp+0xfffdce90>
   c24b8:	d8c02017 	ldw	r3,128(sp)
   c24bc:	da000404 	addi	r8,sp,16
   c24c0:	003da506 	br	c1b58 <_gp+0xfffdd378>
   c24c4:	d9402a17 	ldw	r5,168(sp)
   c24c8:	d8002785 	stb	zero,158(sp)
   c24cc:	283f0816 	blt	r5,zero,c20f0 <_gp+0xfffdd910>
   c24d0:	00ffdfc4 	movi	r3,-129
   c24d4:	a584b03a 	or	r2,r20,r22
   c24d8:	90e4703a 	and	r18,r18,r3
   c24dc:	103c5126 	beq	r2,zero,c1624 <_gp+0xfffdce44>
   c24e0:	0039883a 	mov	fp,zero
   c24e4:	003e5a06 	br	c1e50 <_gp+0xfffdd670>
   c24e8:	9080040c 	andi	r2,r18,16
   c24ec:	10013d26 	beq	r2,zero,c29e4 <___svfprintf_internal_r+0x1710>
   c24f0:	d8c02e17 	ldw	r3,184(sp)
   c24f4:	d9002a17 	ldw	r4,168(sp)
   c24f8:	d8002785 	stb	zero,158(sp)
   c24fc:	18800104 	addi	r2,r3,4
   c2500:	1d000017 	ldw	r20,0(r3)
   c2504:	002d883a 	mov	r22,zero
   c2508:	20013f16 	blt	r4,zero,c2a08 <___svfprintf_internal_r+0x1734>
   c250c:	00ffdfc4 	movi	r3,-129
   c2510:	d8802e15 	stw	r2,184(sp)
   c2514:	90e4703a 	and	r18,r18,r3
   c2518:	a03d0926 	beq	r20,zero,c1940 <_gp+0xfffdd160>
   c251c:	0039883a 	mov	fp,zero
   c2520:	003d0c06 	br	c1954 <_gp+0xfffdd174>
   c2524:	dc402617 	ldw	r17,152(sp)
   c2528:	0441830e 	bge	zero,r17,c2b38 <___svfprintf_internal_r+0x1864>
   c252c:	dc403217 	ldw	r17,200(sp)
   c2530:	d8803317 	ldw	r2,204(sp)
   c2534:	1440010e 	bge	r2,r17,c253c <___svfprintf_internal_r+0x1268>
   c2538:	1023883a 	mov	r17,r2
   c253c:	04400a0e 	bge	zero,r17,c2568 <___svfprintf_internal_r+0x1294>
   c2540:	d8801f17 	ldw	r2,124(sp)
   c2544:	1c47883a 	add	r3,r3,r17
   c2548:	44000015 	stw	r16,0(r8)
   c254c:	10800044 	addi	r2,r2,1
   c2550:	44400115 	stw	r17,4(r8)
   c2554:	d8c02015 	stw	r3,128(sp)
   c2558:	d8801f15 	stw	r2,124(sp)
   c255c:	010001c4 	movi	r4,7
   c2560:	20827516 	blt	r4,r2,c2f38 <___svfprintf_internal_r+0x1c64>
   c2564:	42000204 	addi	r8,r8,8
   c2568:	88027b16 	blt	r17,zero,c2f58 <___svfprintf_internal_r+0x1c84>
   c256c:	d9003217 	ldw	r4,200(sp)
   c2570:	2463c83a 	sub	r17,r4,r17
   c2574:	0440990e 	bge	zero,r17,c27dc <___svfprintf_internal_r+0x1508>
   c2578:	05800404 	movi	r22,16
   c257c:	d8801f17 	ldw	r2,124(sp)
   c2580:	b441530e 	bge	r22,r17,c2ad0 <___svfprintf_internal_r+0x17fc>
   c2584:	010003b4 	movhi	r4,14
   c2588:	21298284 	addi	r4,r4,-23030
   c258c:	d9002c15 	stw	r4,176(sp)
   c2590:	070001c4 	movi	fp,7
   c2594:	dd002d17 	ldw	r20,180(sp)
   c2598:	00000306 	br	c25a8 <___svfprintf_internal_r+0x12d4>
   c259c:	42000204 	addi	r8,r8,8
   c25a0:	8c7ffc04 	addi	r17,r17,-16
   c25a4:	b4414d0e 	bge	r22,r17,c2adc <___svfprintf_internal_r+0x1808>
   c25a8:	18c00404 	addi	r3,r3,16
   c25ac:	10800044 	addi	r2,r2,1
   c25b0:	45400015 	stw	r21,0(r8)
   c25b4:	45800115 	stw	r22,4(r8)
   c25b8:	d8c02015 	stw	r3,128(sp)
   c25bc:	d8801f15 	stw	r2,124(sp)
   c25c0:	e0bff60e 	bge	fp,r2,c259c <_gp+0xfffdddbc>
   c25c4:	d9801e04 	addi	r6,sp,120
   c25c8:	a00b883a 	mov	r5,r20
   c25cc:	9809883a 	mov	r4,r19
   c25d0:	00ce9ec0 	call	ce9ec <__ssprint_r>
   c25d4:	103c261e 	bne	r2,zero,c1670 <_gp+0xfffdce90>
   c25d8:	d8c02017 	ldw	r3,128(sp)
   c25dc:	d8801f17 	ldw	r2,124(sp)
   c25e0:	da000404 	addi	r8,sp,16
   c25e4:	003fee06 	br	c25a0 <_gp+0xfffdddc0>
   c25e8:	d9402d17 	ldw	r5,180(sp)
   c25ec:	d9801e04 	addi	r6,sp,120
   c25f0:	9809883a 	mov	r4,r19
   c25f4:	00ce9ec0 	call	ce9ec <__ssprint_r>
   c25f8:	103c1d1e 	bne	r2,zero,c1670 <_gp+0xfffdce90>
   c25fc:	d8c02017 	ldw	r3,128(sp)
   c2600:	df002787 	ldb	fp,158(sp)
   c2604:	da000404 	addi	r8,sp,16
   c2608:	003d3806 	br	c1aec <_gp+0xfffdd30c>
   c260c:	9080040c 	andi	r2,r18,16
   c2610:	10005c26 	beq	r2,zero,c2784 <___svfprintf_internal_r+0x14b0>
   c2614:	d8c02e17 	ldw	r3,184(sp)
   c2618:	d9002a17 	ldw	r4,168(sp)
   c261c:	d8002785 	stb	zero,158(sp)
   c2620:	18800104 	addi	r2,r3,4
   c2624:	1d000017 	ldw	r20,0(r3)
   c2628:	002d883a 	mov	r22,zero
   c262c:	20005e16 	blt	r4,zero,c27a8 <___svfprintf_internal_r+0x14d4>
   c2630:	00ffdfc4 	movi	r3,-129
   c2634:	d8802e15 	stw	r2,184(sp)
   c2638:	90e4703a 	and	r18,r18,r3
   c263c:	0039883a 	mov	fp,zero
   c2640:	a03ddf26 	beq	r20,zero,c1dc0 <_gp+0xfffdd5e0>
   c2644:	00800244 	movi	r2,9
   c2648:	153c8e36 	bltu	r2,r20,c1884 <_gp+0xfffdd0a4>
   c264c:	a5000c04 	addi	r20,r20,48
   c2650:	dc001dc4 	addi	r16,sp,119
   c2654:	dd001dc5 	stb	r20,119(sp)
   c2658:	d8c02817 	ldw	r3,160(sp)
   c265c:	1c07c83a 	sub	r3,r3,r16
   c2660:	d8c02b15 	stw	r3,172(sp)
   c2664:	003cd306 	br	c19b4 <_gp+0xfffdd1d4>
   c2668:	d8803317 	ldw	r2,204(sp)
   c266c:	143fffc4 	addi	r16,r2,-1
   c2670:	043f560e 	bge	zero,r16,c23cc <_gp+0xfffddbec>
   c2674:	07000404 	movi	fp,16
   c2678:	e403530e 	bge	fp,r16,c33c8 <___svfprintf_internal_r+0x20f4>
   c267c:	014003b4 	movhi	r5,14
   c2680:	29698284 	addi	r5,r5,-23030
   c2684:	d9402c15 	stw	r5,176(sp)
   c2688:	01c001c4 	movi	r7,7
   c268c:	dd002d17 	ldw	r20,180(sp)
   c2690:	00000306 	br	c26a0 <___svfprintf_internal_r+0x13cc>
   c2694:	843ffc04 	addi	r16,r16,-16
   c2698:	b5800204 	addi	r22,r22,8
   c269c:	e400130e 	bge	fp,r16,c26ec <___svfprintf_internal_r+0x1418>
   c26a0:	18c00404 	addi	r3,r3,16
   c26a4:	8c400044 	addi	r17,r17,1
   c26a8:	b5400015 	stw	r21,0(r22)
   c26ac:	b7000115 	stw	fp,4(r22)
   c26b0:	d8c02015 	stw	r3,128(sp)
   c26b4:	dc401f15 	stw	r17,124(sp)
   c26b8:	3c7ff60e 	bge	r7,r17,c2694 <_gp+0xfffddeb4>
   c26bc:	d9801e04 	addi	r6,sp,120
   c26c0:	a00b883a 	mov	r5,r20
   c26c4:	9809883a 	mov	r4,r19
   c26c8:	d9c03d15 	stw	r7,244(sp)
   c26cc:	00ce9ec0 	call	ce9ec <__ssprint_r>
   c26d0:	d9c03d17 	ldw	r7,244(sp)
   c26d4:	103be61e 	bne	r2,zero,c1670 <_gp+0xfffdce90>
   c26d8:	843ffc04 	addi	r16,r16,-16
   c26dc:	d8c02017 	ldw	r3,128(sp)
   c26e0:	dc401f17 	ldw	r17,124(sp)
   c26e4:	dd800404 	addi	r22,sp,16
   c26e8:	e43fed16 	blt	fp,r16,c26a0 <_gp+0xfffddec0>
   c26ec:	d8802c17 	ldw	r2,176(sp)
   c26f0:	1c07883a 	add	r3,r3,r16
   c26f4:	8c400044 	addi	r17,r17,1
   c26f8:	b0800015 	stw	r2,0(r22)
   c26fc:	b4000115 	stw	r16,4(r22)
   c2700:	d8c02015 	stw	r3,128(sp)
   c2704:	dc401f15 	stw	r17,124(sp)
   c2708:	008001c4 	movi	r2,7
   c270c:	147f2e0e 	bge	r2,r17,c23c8 <_gp+0xfffddbe8>
   c2710:	d9402d17 	ldw	r5,180(sp)
   c2714:	d9801e04 	addi	r6,sp,120
   c2718:	9809883a 	mov	r4,r19
   c271c:	00ce9ec0 	call	ce9ec <__ssprint_r>
   c2720:	103bd31e 	bne	r2,zero,c1670 <_gp+0xfffdce90>
   c2724:	d8c02017 	ldw	r3,128(sp)
   c2728:	dc401f17 	ldw	r17,124(sp)
   c272c:	dd800404 	addi	r22,sp,16
   c2730:	003f2606 	br	c23cc <_gp+0xfffddbec>
   c2734:	9080040c 	andi	r2,r18,16
   c2738:	1000c326 	beq	r2,zero,c2a48 <___svfprintf_internal_r+0x1774>
   c273c:	d9402e17 	ldw	r5,184(sp)
   c2740:	2d000017 	ldw	r20,0(r5)
   c2744:	29400104 	addi	r5,r5,4
   c2748:	d9402e15 	stw	r5,184(sp)
   c274c:	a02dd7fa 	srai	r22,r20,31
   c2750:	b005883a 	mov	r2,r22
   c2754:	103c430e 	bge	r2,zero,c1864 <_gp+0xfffdd084>
   c2758:	d9402a17 	ldw	r5,168(sp)
   c275c:	0529c83a 	sub	r20,zero,r20
   c2760:	07000b44 	movi	fp,45
   c2764:	a004c03a 	cmpne	r2,r20,zero
   c2768:	05adc83a 	sub	r22,zero,r22
   c276c:	df002785 	stb	fp,158(sp)
   c2770:	b0adc83a 	sub	r22,r22,r2
   c2774:	28022e16 	blt	r5,zero,c3030 <___svfprintf_internal_r+0x1d5c>
   c2778:	00bfdfc4 	movi	r2,-129
   c277c:	90a4703a 	and	r18,r18,r2
   c2780:	003c3f06 	br	c1880 <_gp+0xfffdd0a0>
   c2784:	9080100c 	andi	r2,r18,64
   c2788:	d8002785 	stb	zero,158(sp)
   c278c:	10012526 	beq	r2,zero,c2c24 <___svfprintf_internal_r+0x1950>
   c2790:	d9402e17 	ldw	r5,184(sp)
   c2794:	d8c02a17 	ldw	r3,168(sp)
   c2798:	002d883a 	mov	r22,zero
   c279c:	28800104 	addi	r2,r5,4
   c27a0:	2d00000b 	ldhu	r20,0(r5)
   c27a4:	183fa20e 	bge	r3,zero,c2630 <_gp+0xfffdde50>
   c27a8:	d8802e15 	stw	r2,184(sp)
   c27ac:	0039883a 	mov	fp,zero
   c27b0:	a584b03a 	or	r2,r20,r22
   c27b4:	103c321e 	bne	r2,zero,c1880 <_gp+0xfffdd0a0>
   c27b8:	00800044 	movi	r2,1
   c27bc:	003e5006 	br	c2100 <_gp+0xfffdd920>
   c27c0:	d9402d17 	ldw	r5,180(sp)
   c27c4:	d9801e04 	addi	r6,sp,120
   c27c8:	9809883a 	mov	r4,r19
   c27cc:	00ce9ec0 	call	ce9ec <__ssprint_r>
   c27d0:	103ba71e 	bne	r2,zero,c1670 <_gp+0xfffdce90>
   c27d4:	d8c02017 	ldw	r3,128(sp)
   c27d8:	da000404 	addi	r8,sp,16
   c27dc:	d9003217 	ldw	r4,200(sp)
   c27e0:	d8802617 	ldw	r2,152(sp)
   c27e4:	d9403317 	ldw	r5,204(sp)
   c27e8:	8123883a 	add	r17,r16,r4
   c27ec:	11400216 	blt	r2,r5,c27f8 <___svfprintf_internal_r+0x1524>
   c27f0:	9100004c 	andi	r4,r18,1
   c27f4:	20000d26 	beq	r4,zero,c282c <___svfprintf_internal_r+0x1558>
   c27f8:	d9003817 	ldw	r4,224(sp)
   c27fc:	d9403417 	ldw	r5,208(sp)
   c2800:	1907883a 	add	r3,r3,r4
   c2804:	d9001f17 	ldw	r4,124(sp)
   c2808:	41400015 	stw	r5,0(r8)
   c280c:	d9403817 	ldw	r5,224(sp)
   c2810:	21000044 	addi	r4,r4,1
   c2814:	d8c02015 	stw	r3,128(sp)
   c2818:	41400115 	stw	r5,4(r8)
   c281c:	d9001f15 	stw	r4,124(sp)
   c2820:	014001c4 	movi	r5,7
   c2824:	2901dc16 	blt	r5,r4,c2f98 <___svfprintf_internal_r+0x1cc4>
   c2828:	42000204 	addi	r8,r8,8
   c282c:	d9003317 	ldw	r4,204(sp)
   c2830:	8121883a 	add	r16,r16,r4
   c2834:	2085c83a 	sub	r2,r4,r2
   c2838:	8461c83a 	sub	r16,r16,r17
   c283c:	1400010e 	bge	r2,r16,c2844 <___svfprintf_internal_r+0x1570>
   c2840:	1021883a 	mov	r16,r2
   c2844:	04000a0e 	bge	zero,r16,c2870 <___svfprintf_internal_r+0x159c>
   c2848:	d9001f17 	ldw	r4,124(sp)
   c284c:	1c07883a 	add	r3,r3,r16
   c2850:	44400015 	stw	r17,0(r8)
   c2854:	21000044 	addi	r4,r4,1
   c2858:	44000115 	stw	r16,4(r8)
   c285c:	d8c02015 	stw	r3,128(sp)
   c2860:	d9001f15 	stw	r4,124(sp)
   c2864:	014001c4 	movi	r5,7
   c2868:	2901e616 	blt	r5,r4,c3004 <___svfprintf_internal_r+0x1d30>
   c286c:	42000204 	addi	r8,r8,8
   c2870:	8001f616 	blt	r16,zero,c304c <___svfprintf_internal_r+0x1d78>
   c2874:	1421c83a 	sub	r16,r2,r16
   c2878:	043cfa0e 	bge	zero,r16,c1c64 <_gp+0xfffdd484>
   c287c:	04400404 	movi	r17,16
   c2880:	d8801f17 	ldw	r2,124(sp)
   c2884:	8c3edd0e 	bge	r17,r16,c23fc <_gp+0xfffddc1c>
   c2888:	014003b4 	movhi	r5,14
   c288c:	29698284 	addi	r5,r5,-23030
   c2890:	d9402c15 	stw	r5,176(sp)
   c2894:	058001c4 	movi	r22,7
   c2898:	dd002d17 	ldw	r20,180(sp)
   c289c:	00000306 	br	c28ac <___svfprintf_internal_r+0x15d8>
   c28a0:	42000204 	addi	r8,r8,8
   c28a4:	843ffc04 	addi	r16,r16,-16
   c28a8:	8c3ed70e 	bge	r17,r16,c2408 <_gp+0xfffddc28>
   c28ac:	18c00404 	addi	r3,r3,16
   c28b0:	10800044 	addi	r2,r2,1
   c28b4:	45400015 	stw	r21,0(r8)
   c28b8:	44400115 	stw	r17,4(r8)
   c28bc:	d8c02015 	stw	r3,128(sp)
   c28c0:	d8801f15 	stw	r2,124(sp)
   c28c4:	b0bff60e 	bge	r22,r2,c28a0 <_gp+0xfffde0c0>
   c28c8:	d9801e04 	addi	r6,sp,120
   c28cc:	a00b883a 	mov	r5,r20
   c28d0:	9809883a 	mov	r4,r19
   c28d4:	00ce9ec0 	call	ce9ec <__ssprint_r>
   c28d8:	103b651e 	bne	r2,zero,c1670 <_gp+0xfffdce90>
   c28dc:	d8c02017 	ldw	r3,128(sp)
   c28e0:	d8801f17 	ldw	r2,124(sp)
   c28e4:	da000404 	addi	r8,sp,16
   c28e8:	003fee06 	br	c28a4 <_gp+0xfffde0c4>
   c28ec:	9088703a 	and	r4,r18,r2
   c28f0:	203e8d1e 	bne	r4,zero,c2328 <_gp+0xfffddb48>
   c28f4:	dc401f17 	ldw	r17,124(sp)
   c28f8:	40800115 	stw	r2,4(r8)
   c28fc:	44000015 	stw	r16,0(r8)
   c2900:	8c400044 	addi	r17,r17,1
   c2904:	d8c02015 	stw	r3,128(sp)
   c2908:	dc401f15 	stw	r17,124(sp)
   c290c:	008001c4 	movi	r2,7
   c2910:	147f7f16 	blt	r2,r17,c2710 <_gp+0xfffddf30>
   c2914:	45800204 	addi	r22,r8,8
   c2918:	003eac06 	br	c23cc <_gp+0xfffddbec>
   c291c:	d9402d17 	ldw	r5,180(sp)
   c2920:	d9801e04 	addi	r6,sp,120
   c2924:	9809883a 	mov	r4,r19
   c2928:	00ce9ec0 	call	ce9ec <__ssprint_r>
   c292c:	103b501e 	bne	r2,zero,c1670 <_gp+0xfffdce90>
   c2930:	d8c02017 	ldw	r3,128(sp)
   c2934:	dc401f17 	ldw	r17,124(sp)
   c2938:	da000404 	addi	r8,sp,16
   c293c:	003e8406 	br	c2350 <_gp+0xfffddb70>
   c2940:	d9402d17 	ldw	r5,180(sp)
   c2944:	d9801e04 	addi	r6,sp,120
   c2948:	9809883a 	mov	r4,r19
   c294c:	00ce9ec0 	call	ce9ec <__ssprint_r>
   c2950:	103b471e 	bne	r2,zero,c1670 <_gp+0xfffdce90>
   c2954:	d8c02017 	ldw	r3,128(sp)
   c2958:	dc401f17 	ldw	r17,124(sp)
   c295c:	dd800404 	addi	r22,sp,16
   c2960:	003e8606 	br	c237c <_gp+0xfffddb9c>
   c2964:	0029883a 	mov	r20,zero
   c2968:	a5000c04 	addi	r20,r20,48
   c296c:	dc001dc4 	addi	r16,sp,119
   c2970:	dd001dc5 	stb	r20,119(sp)
   c2974:	003f3806 	br	c2658 <_gp+0xfffdde78>
   c2978:	d9402d17 	ldw	r5,180(sp)
   c297c:	d9801e04 	addi	r6,sp,120
   c2980:	9809883a 	mov	r4,r19
   c2984:	00ce9ec0 	call	ce9ec <__ssprint_r>
   c2988:	103b391e 	bne	r2,zero,c1670 <_gp+0xfffdce90>
   c298c:	d8c02017 	ldw	r3,128(sp)
   c2990:	da000404 	addi	r8,sp,16
   c2994:	003c7306 	br	c1b64 <_gp+0xfffdd384>
   c2998:	d9003617 	ldw	r4,216(sp)
   c299c:	d9403717 	ldw	r5,220(sp)
   c29a0:	da003e15 	stw	r8,248(sp)
   c29a4:	00cc5c00 	call	cc5c0 <__fpclassifyd>
   c29a8:	da003e17 	ldw	r8,248(sp)
   c29ac:	1000bd1e 	bne	r2,zero,c2ca4 <___svfprintf_internal_r+0x19d0>
   c29b0:	008011c4 	movi	r2,71
   c29b4:	14411e0e 	bge	r2,r17,c2e30 <___svfprintf_internal_r+0x1b5c>
   c29b8:	040003b4 	movhi	r16,14
   c29bc:	84297504 	addi	r16,r16,-23084
   c29c0:	00c000c4 	movi	r3,3
   c29c4:	00bfdfc4 	movi	r2,-129
   c29c8:	d8c02915 	stw	r3,164(sp)
   c29cc:	90a4703a 	and	r18,r18,r2
   c29d0:	df002783 	ldbu	fp,158(sp)
   c29d4:	d8c02b15 	stw	r3,172(sp)
   c29d8:	d8002a15 	stw	zero,168(sp)
   c29dc:	d8003215 	stw	zero,200(sp)
   c29e0:	003bfa06 	br	c19cc <_gp+0xfffdd1ec>
   c29e4:	9080100c 	andi	r2,r18,64
   c29e8:	d8002785 	stb	zero,158(sp)
   c29ec:	10009426 	beq	r2,zero,c2c40 <___svfprintf_internal_r+0x196c>
   c29f0:	d9402e17 	ldw	r5,184(sp)
   c29f4:	d8c02a17 	ldw	r3,168(sp)
   c29f8:	002d883a 	mov	r22,zero
   c29fc:	28800104 	addi	r2,r5,4
   c2a00:	2d00000b 	ldhu	r20,0(r5)
   c2a04:	183ec10e 	bge	r3,zero,c250c <_gp+0xfffddd2c>
   c2a08:	a586b03a 	or	r3,r20,r22
   c2a0c:	d8802e15 	stw	r2,184(sp)
   c2a10:	183ec21e 	bne	r3,zero,c251c <_gp+0xfffddd3c>
   c2a14:	0039883a 	mov	fp,zero
   c2a18:	0005883a 	mov	r2,zero
   c2a1c:	003db806 	br	c2100 <_gp+0xfffdd920>
   c2a20:	d8c02e17 	ldw	r3,184(sp)
   c2a24:	d9002e17 	ldw	r4,184(sp)
   c2a28:	d9402e17 	ldw	r5,184(sp)
   c2a2c:	18c00017 	ldw	r3,0(r3)
   c2a30:	21000117 	ldw	r4,4(r4)
   c2a34:	29400204 	addi	r5,r5,8
   c2a38:	d8c03615 	stw	r3,216(sp)
   c2a3c:	d9003715 	stw	r4,220(sp)
   c2a40:	d9402e15 	stw	r5,184(sp)
   c2a44:	003b5a06 	br	c17b0 <_gp+0xfffdcfd0>
   c2a48:	9080100c 	andi	r2,r18,64
   c2a4c:	10010726 	beq	r2,zero,c2e6c <___svfprintf_internal_r+0x1b98>
   c2a50:	d8802e17 	ldw	r2,184(sp)
   c2a54:	1500000f 	ldh	r20,0(r2)
   c2a58:	10800104 	addi	r2,r2,4
   c2a5c:	d8802e15 	stw	r2,184(sp)
   c2a60:	a02dd7fa 	srai	r22,r20,31
   c2a64:	b005883a 	mov	r2,r22
   c2a68:	003b7d06 	br	c1860 <_gp+0xfffdd080>
   c2a6c:	9080100c 	andi	r2,r18,64
   c2a70:	10010526 	beq	r2,zero,c2e88 <___svfprintf_internal_r+0x1bb4>
   c2a74:	d8c02e17 	ldw	r3,184(sp)
   c2a78:	002d883a 	mov	r22,zero
   c2a7c:	1d00000b 	ldhu	r20,0(r3)
   c2a80:	18c00104 	addi	r3,r3,4
   c2a84:	d8c02e15 	stw	r3,184(sp)
   c2a88:	003ce206 	br	c1e14 <_gp+0xfffdd634>
   c2a8c:	bc400007 	ldb	r17,0(r23)
   c2a90:	003a6506 	br	c1428 <_gp+0xfffdcc48>
   c2a94:	9080040c 	andi	r2,r18,16
   c2a98:	10010126 	beq	r2,zero,c2ea0 <___svfprintf_internal_r+0x1bcc>
   c2a9c:	d8c02e17 	ldw	r3,184(sp)
   c2aa0:	d9002f17 	ldw	r4,188(sp)
   c2aa4:	18800017 	ldw	r2,0(r3)
   c2aa8:	18c00104 	addi	r3,r3,4
   c2aac:	d8c02e15 	stw	r3,184(sp)
   c2ab0:	11000015 	stw	r4,0(r2)
   c2ab4:	003a3206 	br	c1380 <_gp+0xfffdcba0>
   c2ab8:	d9002a17 	ldw	r4,168(sp)
   c2abc:	d8002785 	stb	zero,158(sp)
   c2ac0:	203d8d16 	blt	r4,zero,c20f8 <_gp+0xfffdd918>
   c2ac4:	00bfdfc4 	movi	r2,-129
   c2ac8:	90a4703a 	and	r18,r18,r2
   c2acc:	003ad506 	br	c1624 <_gp+0xfffdce44>
   c2ad0:	014003b4 	movhi	r5,14
   c2ad4:	29698284 	addi	r5,r5,-23030
   c2ad8:	d9402c15 	stw	r5,176(sp)
   c2adc:	d9402c17 	ldw	r5,176(sp)
   c2ae0:	1c47883a 	add	r3,r3,r17
   c2ae4:	10800044 	addi	r2,r2,1
   c2ae8:	41400015 	stw	r5,0(r8)
   c2aec:	44400115 	stw	r17,4(r8)
   c2af0:	d8c02015 	stw	r3,128(sp)
   c2af4:	d8801f15 	stw	r2,124(sp)
   c2af8:	010001c4 	movi	r4,7
   c2afc:	20bf3016 	blt	r4,r2,c27c0 <_gp+0xfffddfe0>
   c2b00:	42000204 	addi	r8,r8,8
   c2b04:	003f3506 	br	c27dc <_gp+0xfffddffc>
   c2b08:	010003b4 	movhi	r4,14
   c2b0c:	21298284 	addi	r4,r4,-23030
   c2b10:	d9002c15 	stw	r4,176(sp)
   c2b14:	003c3c06 	br	c1c08 <_gp+0xfffdd428>
   c2b18:	d9402d17 	ldw	r5,180(sp)
   c2b1c:	d9801e04 	addi	r6,sp,120
   c2b20:	9809883a 	mov	r4,r19
   c2b24:	00ce9ec0 	call	ce9ec <__ssprint_r>
   c2b28:	103ad11e 	bne	r2,zero,c1670 <_gp+0xfffdce90>
   c2b2c:	d8c02017 	ldw	r3,128(sp)
   c2b30:	da000404 	addi	r8,sp,16
   c2b34:	003d9306 	br	c2184 <_gp+0xfffdd9a4>
   c2b38:	d8801f17 	ldw	r2,124(sp)
   c2b3c:	014003b4 	movhi	r5,14
   c2b40:	01000044 	movi	r4,1
   c2b44:	18c00044 	addi	r3,r3,1
   c2b48:	10800044 	addi	r2,r2,1
   c2b4c:	29698204 	addi	r5,r5,-23032
   c2b50:	41000115 	stw	r4,4(r8)
   c2b54:	41400015 	stw	r5,0(r8)
   c2b58:	d8c02015 	stw	r3,128(sp)
   c2b5c:	d8801f15 	stw	r2,124(sp)
   c2b60:	010001c4 	movi	r4,7
   c2b64:	2080b516 	blt	r4,r2,c2e3c <___svfprintf_internal_r+0x1b68>
   c2b68:	42000204 	addi	r8,r8,8
   c2b6c:	8800041e 	bne	r17,zero,c2b80 <___svfprintf_internal_r+0x18ac>
   c2b70:	d8803317 	ldw	r2,204(sp)
   c2b74:	1000021e 	bne	r2,zero,c2b80 <___svfprintf_internal_r+0x18ac>
   c2b78:	9080004c 	andi	r2,r18,1
   c2b7c:	103c3926 	beq	r2,zero,c1c64 <_gp+0xfffdd484>
   c2b80:	d9003817 	ldw	r4,224(sp)
   c2b84:	d8801f17 	ldw	r2,124(sp)
   c2b88:	d9403417 	ldw	r5,208(sp)
   c2b8c:	20c7883a 	add	r3,r4,r3
   c2b90:	10800044 	addi	r2,r2,1
   c2b94:	41000115 	stw	r4,4(r8)
   c2b98:	41400015 	stw	r5,0(r8)
   c2b9c:	d8c02015 	stw	r3,128(sp)
   c2ba0:	d8801f15 	stw	r2,124(sp)
   c2ba4:	010001c4 	movi	r4,7
   c2ba8:	20818016 	blt	r4,r2,c31ac <___svfprintf_internal_r+0x1ed8>
   c2bac:	42000204 	addi	r8,r8,8
   c2bb0:	0463c83a 	sub	r17,zero,r17
   c2bb4:	0440cb0e 	bge	zero,r17,c2ee4 <___svfprintf_internal_r+0x1c10>
   c2bb8:	05800404 	movi	r22,16
   c2bbc:	b440e80e 	bge	r22,r17,c2f60 <___svfprintf_internal_r+0x1c8c>
   c2bc0:	014003b4 	movhi	r5,14
   c2bc4:	29698284 	addi	r5,r5,-23030
   c2bc8:	d9402c15 	stw	r5,176(sp)
   c2bcc:	070001c4 	movi	fp,7
   c2bd0:	dd002d17 	ldw	r20,180(sp)
   c2bd4:	00000306 	br	c2be4 <___svfprintf_internal_r+0x1910>
   c2bd8:	42000204 	addi	r8,r8,8
   c2bdc:	8c7ffc04 	addi	r17,r17,-16
   c2be0:	b440e20e 	bge	r22,r17,c2f6c <___svfprintf_internal_r+0x1c98>
   c2be4:	18c00404 	addi	r3,r3,16
   c2be8:	10800044 	addi	r2,r2,1
   c2bec:	45400015 	stw	r21,0(r8)
   c2bf0:	45800115 	stw	r22,4(r8)
   c2bf4:	d8c02015 	stw	r3,128(sp)
   c2bf8:	d8801f15 	stw	r2,124(sp)
   c2bfc:	e0bff60e 	bge	fp,r2,c2bd8 <_gp+0xfffde3f8>
   c2c00:	d9801e04 	addi	r6,sp,120
   c2c04:	a00b883a 	mov	r5,r20
   c2c08:	9809883a 	mov	r4,r19
   c2c0c:	00ce9ec0 	call	ce9ec <__ssprint_r>
   c2c10:	103a971e 	bne	r2,zero,c1670 <_gp+0xfffdce90>
   c2c14:	d8c02017 	ldw	r3,128(sp)
   c2c18:	d8801f17 	ldw	r2,124(sp)
   c2c1c:	da000404 	addi	r8,sp,16
   c2c20:	003fee06 	br	c2bdc <_gp+0xfffde3fc>
   c2c24:	d9002e17 	ldw	r4,184(sp)
   c2c28:	d9402a17 	ldw	r5,168(sp)
   c2c2c:	002d883a 	mov	r22,zero
   c2c30:	20800104 	addi	r2,r4,4
   c2c34:	25000017 	ldw	r20,0(r4)
   c2c38:	283e7d0e 	bge	r5,zero,c2630 <_gp+0xfffdde50>
   c2c3c:	003eda06 	br	c27a8 <_gp+0xfffddfc8>
   c2c40:	d9002e17 	ldw	r4,184(sp)
   c2c44:	d9402a17 	ldw	r5,168(sp)
   c2c48:	002d883a 	mov	r22,zero
   c2c4c:	20800104 	addi	r2,r4,4
   c2c50:	25000017 	ldw	r20,0(r4)
   c2c54:	283e2d0e 	bge	r5,zero,c250c <_gp+0xfffddd2c>
   c2c58:	003f6b06 	br	c2a08 <_gp+0xfffde228>
   c2c5c:	d8c02e15 	stw	r3,184(sp)
   c2c60:	0039883a 	mov	fp,zero
   c2c64:	003ed206 	br	c27b0 <_gp+0xfffddfd0>
   c2c68:	bc400043 	ldbu	r17,1(r23)
   c2c6c:	84000814 	ori	r16,r16,32
   c2c70:	bdc00044 	addi	r23,r23,1
   c2c74:	8c403fcc 	andi	r17,r17,255
   c2c78:	8c40201c 	xori	r17,r17,128
   c2c7c:	8c7fe004 	addi	r17,r17,-128
   c2c80:	0039e906 	br	c1428 <_gp+0xfffdcc48>
   c2c84:	d9402d17 	ldw	r5,180(sp)
   c2c88:	d9801e04 	addi	r6,sp,120
   c2c8c:	9809883a 	mov	r4,r19
   c2c90:	00ce9ec0 	call	ce9ec <__ssprint_r>
   c2c94:	103a761e 	bne	r2,zero,c1670 <_gp+0xfffdce90>
   c2c98:	d8c02017 	ldw	r3,128(sp)
   c2c9c:	da000404 	addi	r8,sp,16
   c2ca0:	003d4a06 	br	c21cc <_gp+0xfffdd9ec>
   c2ca4:	d9002a17 	ldw	r4,168(sp)
   c2ca8:	05bff7c4 	movi	r22,-33
   c2cac:	00bfffc4 	movi	r2,-1
   c2cb0:	8dac703a 	and	r22,r17,r22
   c2cb4:	20806a26 	beq	r4,r2,c2e60 <___svfprintf_internal_r+0x1b8c>
   c2cb8:	008011c4 	movi	r2,71
   c2cbc:	b0813726 	beq	r22,r2,c319c <___svfprintf_internal_r+0x1ec8>
   c2cc0:	d9003717 	ldw	r4,220(sp)
   c2cc4:	90c04014 	ori	r3,r18,256
   c2cc8:	d8c02c15 	stw	r3,176(sp)
   c2ccc:	20015d16 	blt	r4,zero,c3244 <___svfprintf_internal_r+0x1f70>
   c2cd0:	dd003717 	ldw	r20,220(sp)
   c2cd4:	d8002905 	stb	zero,164(sp)
   c2cd8:	00801984 	movi	r2,102
   c2cdc:	88814026 	beq	r17,r2,c31e0 <___svfprintf_internal_r+0x1f0c>
   c2ce0:	00801184 	movi	r2,70
   c2ce4:	88817126 	beq	r17,r2,c32ac <___svfprintf_internal_r+0x1fd8>
   c2ce8:	00801144 	movi	r2,69
   c2cec:	b0816226 	beq	r22,r2,c3278 <___svfprintf_internal_r+0x1fa4>
   c2cf0:	d8c02a17 	ldw	r3,168(sp)
   c2cf4:	d8802104 	addi	r2,sp,132
   c2cf8:	d8800315 	stw	r2,12(sp)
   c2cfc:	d9403617 	ldw	r5,216(sp)
   c2d00:	d8802504 	addi	r2,sp,148
   c2d04:	d8800215 	stw	r2,8(sp)
   c2d08:	d8802604 	addi	r2,sp,152
   c2d0c:	d8c00015 	stw	r3,0(sp)
   c2d10:	d8800115 	stw	r2,4(sp)
   c2d14:	01c00084 	movi	r7,2
   c2d18:	a00d883a 	mov	r6,r20
   c2d1c:	9809883a 	mov	r4,r19
   c2d20:	d8c03d15 	stw	r3,244(sp)
   c2d24:	da003e15 	stw	r8,248(sp)
   c2d28:	00c77000 	call	c7700 <_dtoa_r>
   c2d2c:	1021883a 	mov	r16,r2
   c2d30:	008019c4 	movi	r2,103
   c2d34:	d8c03d17 	ldw	r3,244(sp)
   c2d38:	da003e17 	ldw	r8,248(sp)
   c2d3c:	8880e726 	beq	r17,r2,c30dc <___svfprintf_internal_r+0x1e08>
   c2d40:	008011c4 	movi	r2,71
   c2d44:	8880d426 	beq	r17,r2,c3098 <___svfprintf_internal_r+0x1dc4>
   c2d48:	80f9883a 	add	fp,r16,r3
   c2d4c:	d9003617 	ldw	r4,216(sp)
   c2d50:	000d883a 	mov	r6,zero
   c2d54:	000f883a 	mov	r7,zero
   c2d58:	a00b883a 	mov	r5,r20
   c2d5c:	da003e15 	stw	r8,248(sp)
   c2d60:	00d63b00 	call	d63b0 <__eqdf2>
   c2d64:	da003e17 	ldw	r8,248(sp)
   c2d68:	1000e426 	beq	r2,zero,c30fc <___svfprintf_internal_r+0x1e28>
   c2d6c:	d8802117 	ldw	r2,132(sp)
   c2d70:	1700062e 	bgeu	r2,fp,c2d8c <___svfprintf_internal_r+0x1ab8>
   c2d74:	01000c04 	movi	r4,48
   c2d78:	10c00044 	addi	r3,r2,1
   c2d7c:	d8c02115 	stw	r3,132(sp)
   c2d80:	11000005 	stb	r4,0(r2)
   c2d84:	d8802117 	ldw	r2,132(sp)
   c2d88:	173ffb36 	bltu	r2,fp,c2d78 <_gp+0xfffde598>
   c2d8c:	1405c83a 	sub	r2,r2,r16
   c2d90:	d8803315 	stw	r2,204(sp)
   c2d94:	008011c4 	movi	r2,71
   c2d98:	b080c526 	beq	r22,r2,c30b0 <___svfprintf_internal_r+0x1ddc>
   c2d9c:	00801944 	movi	r2,101
   c2da0:	1441d80e 	bge	r2,r17,c3504 <___svfprintf_internal_r+0x2230>
   c2da4:	d8c02617 	ldw	r3,152(sp)
   c2da8:	00801984 	movi	r2,102
   c2dac:	d8c03215 	stw	r3,200(sp)
   c2db0:	88813426 	beq	r17,r2,c3284 <___svfprintf_internal_r+0x1fb0>
   c2db4:	d8c03217 	ldw	r3,200(sp)
   c2db8:	d9003317 	ldw	r4,204(sp)
   c2dbc:	19012516 	blt	r3,r4,c3254 <___svfprintf_internal_r+0x1f80>
   c2dc0:	9480004c 	andi	r18,r18,1
   c2dc4:	9001841e 	bne	r18,zero,c33d8 <___svfprintf_internal_r+0x2104>
   c2dc8:	1805883a 	mov	r2,r3
   c2dcc:	1801cb16 	blt	r3,zero,c34fc <___svfprintf_internal_r+0x2228>
   c2dd0:	d8c03217 	ldw	r3,200(sp)
   c2dd4:	044019c4 	movi	r17,103
   c2dd8:	d8c02b15 	stw	r3,172(sp)
   c2ddc:	df002907 	ldb	fp,164(sp)
   c2de0:	e000a61e 	bne	fp,zero,c307c <___svfprintf_internal_r+0x1da8>
   c2de4:	df002783 	ldbu	fp,158(sp)
   c2de8:	d8802915 	stw	r2,164(sp)
   c2dec:	dc802c17 	ldw	r18,176(sp)
   c2df0:	d8002a15 	stw	zero,168(sp)
   c2df4:	003af506 	br	c19cc <_gp+0xfffdd1ec>
   c2df8:	040003b4 	movhi	r16,14
   c2dfc:	84297204 	addi	r16,r16,-23096
   c2e00:	003a7e06 	br	c17fc <_gp+0xfffdd01c>
   c2e04:	d9003917 	ldw	r4,228(sp)
   c2e08:	04001004 	movi	r16,64
   c2e0c:	800b883a 	mov	r5,r16
   c2e10:	00ca18c0 	call	ca18c <_malloc_r>
   c2e14:	d9002d17 	ldw	r4,180(sp)
   c2e18:	20800015 	stw	r2,0(r4)
   c2e1c:	20800415 	stw	r2,16(r4)
   c2e20:	1001d026 	beq	r2,zero,c3564 <___svfprintf_internal_r+0x2290>
   c2e24:	d8802d17 	ldw	r2,180(sp)
   c2e28:	14000515 	stw	r16,20(r2)
   c2e2c:	00394406 	br	c1340 <_gp+0xfffdcb60>
   c2e30:	040003b4 	movhi	r16,14
   c2e34:	84297404 	addi	r16,r16,-23088
   c2e38:	003ee106 	br	c29c0 <_gp+0xfffde1e0>
   c2e3c:	d9402d17 	ldw	r5,180(sp)
   c2e40:	d9801e04 	addi	r6,sp,120
   c2e44:	9809883a 	mov	r4,r19
   c2e48:	00ce9ec0 	call	ce9ec <__ssprint_r>
   c2e4c:	103a081e 	bne	r2,zero,c1670 <_gp+0xfffdce90>
   c2e50:	dc402617 	ldw	r17,152(sp)
   c2e54:	d8c02017 	ldw	r3,128(sp)
   c2e58:	da000404 	addi	r8,sp,16
   c2e5c:	003f4306 	br	c2b6c <_gp+0xfffde38c>
   c2e60:	01400184 	movi	r5,6
   c2e64:	d9402a15 	stw	r5,168(sp)
   c2e68:	003f9506 	br	c2cc0 <_gp+0xfffde4e0>
   c2e6c:	d8c02e17 	ldw	r3,184(sp)
   c2e70:	1d000017 	ldw	r20,0(r3)
   c2e74:	18c00104 	addi	r3,r3,4
   c2e78:	d8c02e15 	stw	r3,184(sp)
   c2e7c:	a02dd7fa 	srai	r22,r20,31
   c2e80:	b005883a 	mov	r2,r22
   c2e84:	003a7606 	br	c1860 <_gp+0xfffdd080>
   c2e88:	d9002e17 	ldw	r4,184(sp)
   c2e8c:	002d883a 	mov	r22,zero
   c2e90:	25000017 	ldw	r20,0(r4)
   c2e94:	21000104 	addi	r4,r4,4
   c2e98:	d9002e15 	stw	r4,184(sp)
   c2e9c:	003bdd06 	br	c1e14 <_gp+0xfffdd634>
   c2ea0:	9480100c 	andi	r18,r18,64
   c2ea4:	90006e26 	beq	r18,zero,c3060 <___svfprintf_internal_r+0x1d8c>
   c2ea8:	d9402e17 	ldw	r5,184(sp)
   c2eac:	d8c02f17 	ldw	r3,188(sp)
   c2eb0:	28800017 	ldw	r2,0(r5)
   c2eb4:	29400104 	addi	r5,r5,4
   c2eb8:	d9402e15 	stw	r5,184(sp)
   c2ebc:	10c0000d 	sth	r3,0(r2)
   c2ec0:	00392f06 	br	c1380 <_gp+0xfffdcba0>
   c2ec4:	d9402d17 	ldw	r5,180(sp)
   c2ec8:	d9801e04 	addi	r6,sp,120
   c2ecc:	9809883a 	mov	r4,r19
   c2ed0:	00ce9ec0 	call	ce9ec <__ssprint_r>
   c2ed4:	1039e61e 	bne	r2,zero,c1670 <_gp+0xfffdce90>
   c2ed8:	d8c02017 	ldw	r3,128(sp)
   c2edc:	d8801f17 	ldw	r2,124(sp)
   c2ee0:	da000404 	addi	r8,sp,16
   c2ee4:	d9403317 	ldw	r5,204(sp)
   c2ee8:	10800044 	addi	r2,r2,1
   c2eec:	44000015 	stw	r16,0(r8)
   c2ef0:	28c7883a 	add	r3,r5,r3
   c2ef4:	003b5506 	br	c1c4c <_gp+0xfffdd46c>
   c2ef8:	8009883a 	mov	r4,r16
   c2efc:	df003e15 	stw	fp,248(sp)
   c2f00:	00c10c80 	call	c10c8 <strlen>
   c2f04:	d8802b15 	stw	r2,172(sp)
   c2f08:	da003e17 	ldw	r8,248(sp)
   c2f0c:	103c160e 	bge	r2,zero,c1f68 <_gp+0xfffdd788>
   c2f10:	0005883a 	mov	r2,zero
   c2f14:	003c1406 	br	c1f68 <_gp+0xfffdd788>
   c2f18:	00bfffc4 	movi	r2,-1
   c2f1c:	0039d906 	br	c1684 <_gp+0xfffdcea4>
   c2f20:	010003b4 	movhi	r4,14
   c2f24:	21298684 	addi	r4,r4,-23014
   c2f28:	d9003515 	stw	r4,212(sp)
   c2f2c:	003ae406 	br	c1ac0 <_gp+0xfffdd2e0>
   c2f30:	013fffc4 	movi	r4,-1
   c2f34:	0039fa06 	br	c1720 <_gp+0xfffdcf40>
   c2f38:	d9402d17 	ldw	r5,180(sp)
   c2f3c:	d9801e04 	addi	r6,sp,120
   c2f40:	9809883a 	mov	r4,r19
   c2f44:	00ce9ec0 	call	ce9ec <__ssprint_r>
   c2f48:	1039c91e 	bne	r2,zero,c1670 <_gp+0xfffdce90>
   c2f4c:	d8c02017 	ldw	r3,128(sp)
   c2f50:	da000404 	addi	r8,sp,16
   c2f54:	003d8406 	br	c2568 <_gp+0xfffddd88>
   c2f58:	0023883a 	mov	r17,zero
   c2f5c:	003d8306 	br	c256c <_gp+0xfffddd8c>
   c2f60:	010003b4 	movhi	r4,14
   c2f64:	21298284 	addi	r4,r4,-23030
   c2f68:	d9002c15 	stw	r4,176(sp)
   c2f6c:	d9002c17 	ldw	r4,176(sp)
   c2f70:	1c47883a 	add	r3,r3,r17
   c2f74:	10800044 	addi	r2,r2,1
   c2f78:	41000015 	stw	r4,0(r8)
   c2f7c:	44400115 	stw	r17,4(r8)
   c2f80:	d8c02015 	stw	r3,128(sp)
   c2f84:	d8801f15 	stw	r2,124(sp)
   c2f88:	010001c4 	movi	r4,7
   c2f8c:	20bfcd16 	blt	r4,r2,c2ec4 <_gp+0xfffde6e4>
   c2f90:	42000204 	addi	r8,r8,8
   c2f94:	003fd306 	br	c2ee4 <_gp+0xfffde704>
   c2f98:	d9402d17 	ldw	r5,180(sp)
   c2f9c:	d9801e04 	addi	r6,sp,120
   c2fa0:	9809883a 	mov	r4,r19
   c2fa4:	00ce9ec0 	call	ce9ec <__ssprint_r>
   c2fa8:	1039b11e 	bne	r2,zero,c1670 <_gp+0xfffdce90>
   c2fac:	d8802617 	ldw	r2,152(sp)
   c2fb0:	d8c02017 	ldw	r3,128(sp)
   c2fb4:	da000404 	addi	r8,sp,16
   c2fb8:	003e1c06 	br	c282c <_gp+0xfffde04c>
   c2fbc:	d8802a17 	ldw	r2,168(sp)
   c2fc0:	00c00184 	movi	r3,6
   c2fc4:	1880012e 	bgeu	r3,r2,c2fcc <___svfprintf_internal_r+0x1cf8>
   c2fc8:	1805883a 	mov	r2,r3
   c2fcc:	d8802b15 	stw	r2,172(sp)
   c2fd0:	1000f316 	blt	r2,zero,c33a0 <___svfprintf_internal_r+0x20cc>
   c2fd4:	040003b4 	movhi	r16,14
   c2fd8:	d8802915 	stw	r2,164(sp)
   c2fdc:	dd002e15 	stw	r20,184(sp)
   c2fe0:	d8002a15 	stw	zero,168(sp)
   c2fe4:	d8003215 	stw	zero,200(sp)
   c2fe8:	84298004 	addi	r16,r16,-23040
   c2fec:	0039883a 	mov	fp,zero
   c2ff0:	003a7d06 	br	c19e8 <_gp+0xfffdd208>
   c2ff4:	010003b4 	movhi	r4,14
   c2ff8:	21298684 	addi	r4,r4,-23014
   c2ffc:	d9003515 	stw	r4,212(sp)
   c3000:	003b3d06 	br	c1cf8 <_gp+0xfffdd518>
   c3004:	d9402d17 	ldw	r5,180(sp)
   c3008:	d9801e04 	addi	r6,sp,120
   c300c:	9809883a 	mov	r4,r19
   c3010:	00ce9ec0 	call	ce9ec <__ssprint_r>
   c3014:	1039961e 	bne	r2,zero,c1670 <_gp+0xfffdce90>
   c3018:	d8802617 	ldw	r2,152(sp)
   c301c:	d9403317 	ldw	r5,204(sp)
   c3020:	d8c02017 	ldw	r3,128(sp)
   c3024:	da000404 	addi	r8,sp,16
   c3028:	2885c83a 	sub	r2,r5,r2
   c302c:	003e1006 	br	c2870 <_gp+0xfffde090>
   c3030:	00800044 	movi	r2,1
   c3034:	10803fcc 	andi	r2,r2,255
   c3038:	00c00044 	movi	r3,1
   c303c:	10fa1026 	beq	r2,r3,c1880 <_gp+0xfffdd0a0>
   c3040:	00c00084 	movi	r3,2
   c3044:	10fb8226 	beq	r2,r3,c1e50 <_gp+0xfffdd670>
   c3048:	003a4206 	br	c1954 <_gp+0xfffdd174>
   c304c:	0021883a 	mov	r16,zero
   c3050:	003e0806 	br	c2874 <_gp+0xfffde094>
   c3054:	07000b44 	movi	fp,45
   c3058:	df002785 	stb	fp,158(sp)
   c305c:	0039e306 	br	c17ec <_gp+0xfffdd00c>
   c3060:	d9002e17 	ldw	r4,184(sp)
   c3064:	d9402f17 	ldw	r5,188(sp)
   c3068:	20800017 	ldw	r2,0(r4)
   c306c:	21000104 	addi	r4,r4,4
   c3070:	d9002e15 	stw	r4,184(sp)
   c3074:	11400015 	stw	r5,0(r2)
   c3078:	0038c106 	br	c1380 <_gp+0xfffdcba0>
   c307c:	00c00b44 	movi	r3,45
   c3080:	d8c02785 	stb	r3,158(sp)
   c3084:	d8802915 	stw	r2,164(sp)
   c3088:	dc802c17 	ldw	r18,176(sp)
   c308c:	d8002a15 	stw	zero,168(sp)
   c3090:	07000b44 	movi	fp,45
   c3094:	003a5106 	br	c19dc <_gp+0xfffdd1fc>
   c3098:	9080004c 	andi	r2,r18,1
   c309c:	1000941e 	bne	r2,zero,c32f0 <___svfprintf_internal_r+0x201c>
   c30a0:	d8802117 	ldw	r2,132(sp)
   c30a4:	1405c83a 	sub	r2,r2,r16
   c30a8:	d8803315 	stw	r2,204(sp)
   c30ac:	b441151e 	bne	r22,r17,c3504 <___svfprintf_internal_r+0x2230>
   c30b0:	dd802617 	ldw	r22,152(sp)
   c30b4:	00bfff44 	movi	r2,-3
   c30b8:	b0801a16 	blt	r22,r2,c3124 <___svfprintf_internal_r+0x1e50>
   c30bc:	d9402a17 	ldw	r5,168(sp)
   c30c0:	2d801816 	blt	r5,r22,c3124 <___svfprintf_internal_r+0x1e50>
   c30c4:	dd803215 	stw	r22,200(sp)
   c30c8:	003f3a06 	br	c2db4 <_gp+0xfffde5d4>
   c30cc:	1025883a 	mov	r18,r2
   c30d0:	0039883a 	mov	fp,zero
   c30d4:	00800084 	movi	r2,2
   c30d8:	003fd606 	br	c3034 <_gp+0xfffde854>
   c30dc:	9080004c 	andi	r2,r18,1
   c30e0:	103f191e 	bne	r2,zero,c2d48 <_gp+0xfffde568>
   c30e4:	d8802117 	ldw	r2,132(sp)
   c30e8:	003f2806 	br	c2d8c <_gp+0xfffde5ac>
   c30ec:	010003b4 	movhi	r4,14
   c30f0:	21298284 	addi	r4,r4,-23030
   c30f4:	d9002c15 	stw	r4,176(sp)
   c30f8:	003c7c06 	br	c22ec <_gp+0xfffddb0c>
   c30fc:	e005883a 	mov	r2,fp
   c3100:	003f2206 	br	c2d8c <_gp+0xfffde5ac>
   c3104:	d9002a17 	ldw	r4,168(sp)
   c3108:	df002783 	ldbu	fp,158(sp)
   c310c:	dd002e15 	stw	r20,184(sp)
   c3110:	d9002915 	stw	r4,164(sp)
   c3114:	d9002b15 	stw	r4,172(sp)
   c3118:	d8002a15 	stw	zero,168(sp)
   c311c:	d8003215 	stw	zero,200(sp)
   c3120:	003a2a06 	br	c19cc <_gp+0xfffdd1ec>
   c3124:	8c7fff84 	addi	r17,r17,-2
   c3128:	b5bfffc4 	addi	r22,r22,-1
   c312c:	dd802615 	stw	r22,152(sp)
   c3130:	dc4022c5 	stb	r17,139(sp)
   c3134:	b000c316 	blt	r22,zero,c3444 <___svfprintf_internal_r+0x2170>
   c3138:	00800ac4 	movi	r2,43
   c313c:	d8802305 	stb	r2,140(sp)
   c3140:	00800244 	movi	r2,9
   c3144:	15806e16 	blt	r2,r22,c3300 <___svfprintf_internal_r+0x202c>
   c3148:	00800c04 	movi	r2,48
   c314c:	b5800c04 	addi	r22,r22,48
   c3150:	d8802345 	stb	r2,141(sp)
   c3154:	dd802385 	stb	r22,142(sp)
   c3158:	d88023c4 	addi	r2,sp,143
   c315c:	df0022c4 	addi	fp,sp,139
   c3160:	d8c03317 	ldw	r3,204(sp)
   c3164:	1739c83a 	sub	fp,r2,fp
   c3168:	d9003317 	ldw	r4,204(sp)
   c316c:	e0c7883a 	add	r3,fp,r3
   c3170:	df003b15 	stw	fp,236(sp)
   c3174:	d8c02b15 	stw	r3,172(sp)
   c3178:	00800044 	movi	r2,1
   c317c:	1100b70e 	bge	r2,r4,c345c <___svfprintf_internal_r+0x2188>
   c3180:	d8c02b17 	ldw	r3,172(sp)
   c3184:	18c00044 	addi	r3,r3,1
   c3188:	d8c02b15 	stw	r3,172(sp)
   c318c:	1805883a 	mov	r2,r3
   c3190:	1800b016 	blt	r3,zero,c3454 <___svfprintf_internal_r+0x2180>
   c3194:	d8003215 	stw	zero,200(sp)
   c3198:	003f1006 	br	c2ddc <_gp+0xfffde5fc>
   c319c:	d8802a17 	ldw	r2,168(sp)
   c31a0:	103ec71e 	bne	r2,zero,c2cc0 <_gp+0xfffde4e0>
   c31a4:	dc002a15 	stw	r16,168(sp)
   c31a8:	003ec506 	br	c2cc0 <_gp+0xfffde4e0>
   c31ac:	d9402d17 	ldw	r5,180(sp)
   c31b0:	d9801e04 	addi	r6,sp,120
   c31b4:	9809883a 	mov	r4,r19
   c31b8:	00ce9ec0 	call	ce9ec <__ssprint_r>
   c31bc:	10392c1e 	bne	r2,zero,c1670 <_gp+0xfffdce90>
   c31c0:	dc402617 	ldw	r17,152(sp)
   c31c4:	d8c02017 	ldw	r3,128(sp)
   c31c8:	d8801f17 	ldw	r2,124(sp)
   c31cc:	da000404 	addi	r8,sp,16
   c31d0:	003e7706 	br	c2bb0 <_gp+0xfffde3d0>
   c31d4:	182f883a 	mov	r23,r3
   c31d8:	d8002a15 	stw	zero,168(sp)
   c31dc:	00389306 	br	c142c <_gp+0xfffdcc4c>
   c31e0:	d8c02a17 	ldw	r3,168(sp)
   c31e4:	d8802104 	addi	r2,sp,132
   c31e8:	d8800315 	stw	r2,12(sp)
   c31ec:	d9403617 	ldw	r5,216(sp)
   c31f0:	d8802504 	addi	r2,sp,148
   c31f4:	d8800215 	stw	r2,8(sp)
   c31f8:	d8802604 	addi	r2,sp,152
   c31fc:	d8c00015 	stw	r3,0(sp)
   c3200:	9809883a 	mov	r4,r19
   c3204:	d8800115 	stw	r2,4(sp)
   c3208:	01c000c4 	movi	r7,3
   c320c:	a00d883a 	mov	r6,r20
   c3210:	da003e15 	stw	r8,248(sp)
   c3214:	00c77000 	call	c7700 <_dtoa_r>
   c3218:	d9002a17 	ldw	r4,168(sp)
   c321c:	da003e17 	ldw	r8,248(sp)
   c3220:	1021883a 	mov	r16,r2
   c3224:	1139883a 	add	fp,r2,r4
   c3228:	2007883a 	mov	r3,r4
   c322c:	81000007 	ldb	r4,0(r16)
   c3230:	00800c04 	movi	r2,48
   c3234:	20806f26 	beq	r4,r2,c33f4 <___svfprintf_internal_r+0x2120>
   c3238:	d8c02617 	ldw	r3,152(sp)
   c323c:	e0f9883a 	add	fp,fp,r3
   c3240:	003ec206 	br	c2d4c <_gp+0xfffde56c>
   c3244:	00c00b44 	movi	r3,45
   c3248:	2520003c 	xorhi	r20,r4,32768
   c324c:	d8c02905 	stb	r3,164(sp)
   c3250:	003ea106 	br	c2cd8 <_gp+0xfffde4f8>
   c3254:	d8c03217 	ldw	r3,200(sp)
   c3258:	00c0890e 	bge	zero,r3,c3480 <___svfprintf_internal_r+0x21ac>
   c325c:	00800044 	movi	r2,1
   c3260:	d9003317 	ldw	r4,204(sp)
   c3264:	1105883a 	add	r2,r2,r4
   c3268:	d8802b15 	stw	r2,172(sp)
   c326c:	10005f16 	blt	r2,zero,c33ec <___svfprintf_internal_r+0x2118>
   c3270:	044019c4 	movi	r17,103
   c3274:	003ed906 	br	c2ddc <_gp+0xfffde5fc>
   c3278:	d9002a17 	ldw	r4,168(sp)
   c327c:	20c00044 	addi	r3,r4,1
   c3280:	003e9c06 	br	c2cf4 <_gp+0xfffde514>
   c3284:	d9002a17 	ldw	r4,168(sp)
   c3288:	00c0680e 	bge	zero,r3,c342c <___svfprintf_internal_r+0x2158>
   c328c:	2000461e 	bne	r4,zero,c33a8 <___svfprintf_internal_r+0x20d4>
   c3290:	9480004c 	andi	r18,r18,1
   c3294:	9000441e 	bne	r18,zero,c33a8 <___svfprintf_internal_r+0x20d4>
   c3298:	1805883a 	mov	r2,r3
   c329c:	1800a116 	blt	r3,zero,c3524 <___svfprintf_internal_r+0x2250>
   c32a0:	d8c03217 	ldw	r3,200(sp)
   c32a4:	d8c02b15 	stw	r3,172(sp)
   c32a8:	003ecc06 	br	c2ddc <_gp+0xfffde5fc>
   c32ac:	d9402a17 	ldw	r5,168(sp)
   c32b0:	d8802104 	addi	r2,sp,132
   c32b4:	d8800315 	stw	r2,12(sp)
   c32b8:	d9400015 	stw	r5,0(sp)
   c32bc:	d8802504 	addi	r2,sp,148
   c32c0:	d9403617 	ldw	r5,216(sp)
   c32c4:	d8800215 	stw	r2,8(sp)
   c32c8:	d8802604 	addi	r2,sp,152
   c32cc:	d8800115 	stw	r2,4(sp)
   c32d0:	01c000c4 	movi	r7,3
   c32d4:	a00d883a 	mov	r6,r20
   c32d8:	9809883a 	mov	r4,r19
   c32dc:	da003e15 	stw	r8,248(sp)
   c32e0:	00c77000 	call	c7700 <_dtoa_r>
   c32e4:	d8c02a17 	ldw	r3,168(sp)
   c32e8:	da003e17 	ldw	r8,248(sp)
   c32ec:	1021883a 	mov	r16,r2
   c32f0:	00801184 	movi	r2,70
   c32f4:	80f9883a 	add	fp,r16,r3
   c32f8:	88bfcc26 	beq	r17,r2,c322c <_gp+0xfffdea4c>
   c32fc:	003e9306 	br	c2d4c <_gp+0xfffde56c>
   c3300:	df0022c4 	addi	fp,sp,139
   c3304:	dc002a15 	stw	r16,168(sp)
   c3308:	9829883a 	mov	r20,r19
   c330c:	e021883a 	mov	r16,fp
   c3310:	4027883a 	mov	r19,r8
   c3314:	b009883a 	mov	r4,r22
   c3318:	01400284 	movi	r5,10
   c331c:	00d4de00 	call	d4de0 <__modsi3>
   c3320:	10800c04 	addi	r2,r2,48
   c3324:	843fffc4 	addi	r16,r16,-1
   c3328:	b009883a 	mov	r4,r22
   c332c:	01400284 	movi	r5,10
   c3330:	80800005 	stb	r2,0(r16)
   c3334:	00d4d5c0 	call	d4d5c <__divsi3>
   c3338:	102d883a 	mov	r22,r2
   c333c:	00800244 	movi	r2,9
   c3340:	15bff416 	blt	r2,r22,c3314 <_gp+0xfffdeb34>
   c3344:	9811883a 	mov	r8,r19
   c3348:	b0800c04 	addi	r2,r22,48
   c334c:	a027883a 	mov	r19,r20
   c3350:	8029883a 	mov	r20,r16
   c3354:	a17fffc4 	addi	r5,r20,-1
   c3358:	a0bfffc5 	stb	r2,-1(r20)
   c335c:	dc002a17 	ldw	r16,168(sp)
   c3360:	2f00782e 	bgeu	r5,fp,c3544 <___svfprintf_internal_r+0x2270>
   c3364:	d9c02384 	addi	r7,sp,142
   c3368:	3d0fc83a 	sub	r7,r7,r20
   c336c:	d9002344 	addi	r4,sp,141
   c3370:	e1cf883a 	add	r7,fp,r7
   c3374:	00000106 	br	c337c <___svfprintf_internal_r+0x20a8>
   c3378:	28800003 	ldbu	r2,0(r5)
   c337c:	20800005 	stb	r2,0(r4)
   c3380:	21000044 	addi	r4,r4,1
   c3384:	29400044 	addi	r5,r5,1
   c3388:	21fffb1e 	bne	r4,r7,c3378 <_gp+0xfffdeb98>
   c338c:	d8802304 	addi	r2,sp,140
   c3390:	1505c83a 	sub	r2,r2,r20
   c3394:	d8c02344 	addi	r3,sp,141
   c3398:	1885883a 	add	r2,r3,r2
   c339c:	003f7006 	br	c3160 <_gp+0xfffde980>
   c33a0:	0005883a 	mov	r2,zero
   c33a4:	003f0b06 	br	c2fd4 <_gp+0xfffde7f4>
   c33a8:	d9002a17 	ldw	r4,168(sp)
   c33ac:	d8c03217 	ldw	r3,200(sp)
   c33b0:	20800044 	addi	r2,r4,1
   c33b4:	1885883a 	add	r2,r3,r2
   c33b8:	d8802b15 	stw	r2,172(sp)
   c33bc:	103e870e 	bge	r2,zero,c2ddc <_gp+0xfffde5fc>
   c33c0:	0005883a 	mov	r2,zero
   c33c4:	003e8506 	br	c2ddc <_gp+0xfffde5fc>
   c33c8:	010003b4 	movhi	r4,14
   c33cc:	21298284 	addi	r4,r4,-23030
   c33d0:	d9002c15 	stw	r4,176(sp)
   c33d4:	003cc506 	br	c26ec <_gp+0xfffddf0c>
   c33d8:	d8c03217 	ldw	r3,200(sp)
   c33dc:	18c00044 	addi	r3,r3,1
   c33e0:	d8c02b15 	stw	r3,172(sp)
   c33e4:	1805883a 	mov	r2,r3
   c33e8:	183fa10e 	bge	r3,zero,c3270 <_gp+0xfffdea90>
   c33ec:	0005883a 	mov	r2,zero
   c33f0:	003f9f06 	br	c3270 <_gp+0xfffdea90>
   c33f4:	d9003617 	ldw	r4,216(sp)
   c33f8:	000d883a 	mov	r6,zero
   c33fc:	000f883a 	mov	r7,zero
   c3400:	a00b883a 	mov	r5,r20
   c3404:	d8c03d15 	stw	r3,244(sp)
   c3408:	da003e15 	stw	r8,248(sp)
   c340c:	00d63b00 	call	d63b0 <__eqdf2>
   c3410:	d8c03d17 	ldw	r3,244(sp)
   c3414:	da003e17 	ldw	r8,248(sp)
   c3418:	103f8726 	beq	r2,zero,c3238 <_gp+0xfffdea58>
   c341c:	00800044 	movi	r2,1
   c3420:	10c7c83a 	sub	r3,r2,r3
   c3424:	d8c02615 	stw	r3,152(sp)
   c3428:	003f8406 	br	c323c <_gp+0xfffdea5c>
   c342c:	20000e1e 	bne	r4,zero,c3468 <___svfprintf_internal_r+0x2194>
   c3430:	9480004c 	andi	r18,r18,1
   c3434:	90000c1e 	bne	r18,zero,c3468 <___svfprintf_internal_r+0x2194>
   c3438:	00800044 	movi	r2,1
   c343c:	d8802b15 	stw	r2,172(sp)
   c3440:	003e6606 	br	c2ddc <_gp+0xfffde5fc>
   c3444:	00800b44 	movi	r2,45
   c3448:	05adc83a 	sub	r22,zero,r22
   c344c:	d8802305 	stb	r2,140(sp)
   c3450:	003f3b06 	br	c3140 <_gp+0xfffde960>
   c3454:	0005883a 	mov	r2,zero
   c3458:	003f4e06 	br	c3194 <_gp+0xfffde9b4>
   c345c:	90a4703a 	and	r18,r18,r2
   c3460:	903f4a26 	beq	r18,zero,c318c <_gp+0xfffde9ac>
   c3464:	003f4606 	br	c3180 <_gp+0xfffde9a0>
   c3468:	d8c02a17 	ldw	r3,168(sp)
   c346c:	18c00084 	addi	r3,r3,2
   c3470:	d8c02b15 	stw	r3,172(sp)
   c3474:	1805883a 	mov	r2,r3
   c3478:	183e580e 	bge	r3,zero,c2ddc <_gp+0xfffde5fc>
   c347c:	003fd006 	br	c33c0 <_gp+0xfffdebe0>
   c3480:	00800084 	movi	r2,2
   c3484:	10c5c83a 	sub	r2,r2,r3
   c3488:	003f7506 	br	c3260 <_gp+0xfffdea80>
   c348c:	d9402e17 	ldw	r5,184(sp)
   c3490:	d9002e17 	ldw	r4,184(sp)
   c3494:	bc400043 	ldbu	r17,1(r23)
   c3498:	29400017 	ldw	r5,0(r5)
   c349c:	20800104 	addi	r2,r4,4
   c34a0:	d8802e15 	stw	r2,184(sp)
   c34a4:	d9402a15 	stw	r5,168(sp)
   c34a8:	182f883a 	mov	r23,r3
   c34ac:	283df10e 	bge	r5,zero,c2c74 <_gp+0xfffde494>
   c34b0:	8c403fcc 	andi	r17,r17,255
   c34b4:	017fffc4 	movi	r5,-1
   c34b8:	8c40201c 	xori	r17,r17,128
   c34bc:	d9402a15 	stw	r5,168(sp)
   c34c0:	8c7fe004 	addi	r17,r17,-128
   c34c4:	0037d806 	br	c1428 <_gp+0xfffdcc48>
   c34c8:	9080004c 	andi	r2,r18,1
   c34cc:	0039883a 	mov	fp,zero
   c34d0:	10000726 	beq	r2,zero,c34f0 <___svfprintf_internal_r+0x221c>
   c34d4:	d8c02817 	ldw	r3,160(sp)
   c34d8:	dc001dc4 	addi	r16,sp,119
   c34dc:	00800c04 	movi	r2,48
   c34e0:	1c07c83a 	sub	r3,r3,r16
   c34e4:	d8801dc5 	stb	r2,119(sp)
   c34e8:	d8c02b15 	stw	r3,172(sp)
   c34ec:	00393106 	br	c19b4 <_gp+0xfffdd1d4>
   c34f0:	d8002b15 	stw	zero,172(sp)
   c34f4:	dc001e04 	addi	r16,sp,120
   c34f8:	00392e06 	br	c19b4 <_gp+0xfffdd1d4>
   c34fc:	0005883a 	mov	r2,zero
   c3500:	003e3306 	br	c2dd0 <_gp+0xfffde5f0>
   c3504:	dd802617 	ldw	r22,152(sp)
   c3508:	003f0706 	br	c3128 <_gp+0xfffde948>
   c350c:	d8c02b03 	ldbu	r3,172(sp)
   c3510:	d8c02785 	stb	r3,158(sp)
   c3514:	003a3506 	br	c1dec <_gp+0xfffdd60c>
   c3518:	d8c02b03 	ldbu	r3,172(sp)
   c351c:	d8c02785 	stb	r3,158(sp)
   c3520:	003a1706 	br	c1d80 <_gp+0xfffdd5a0>
   c3524:	0005883a 	mov	r2,zero
   c3528:	003f5d06 	br	c32a0 <_gp+0xfffdeac0>
   c352c:	d8c02b03 	ldbu	r3,172(sp)
   c3530:	d8c02785 	stb	r3,158(sp)
   c3534:	0038f306 	br	c1904 <_gp+0xfffdd124>
   c3538:	d8c02b03 	ldbu	r3,172(sp)
   c353c:	d8c02785 	stb	r3,158(sp)
   c3540:	0038be06 	br	c183c <_gp+0xfffdd05c>
   c3544:	d8802344 	addi	r2,sp,141
   c3548:	003f0506 	br	c3160 <_gp+0xfffde980>
   c354c:	d8c02b03 	ldbu	r3,172(sp)
   c3550:	d8c02785 	stb	r3,158(sp)
   c3554:	00388b06 	br	c1784 <_gp+0xfffdcfa4>
   c3558:	d8c02b03 	ldbu	r3,172(sp)
   c355c:	d8c02785 	stb	r3,158(sp)
   c3560:	003ad706 	br	c20c0 <_gp+0xfffdd8e0>
   c3564:	d9403917 	ldw	r5,228(sp)
   c3568:	00800304 	movi	r2,12
   c356c:	28800015 	stw	r2,0(r5)
   c3570:	00bfffc4 	movi	r2,-1
   c3574:	00384306 	br	c1684 <_gp+0xfffdcea4>
   c3578:	d8c02b03 	ldbu	r3,172(sp)
   c357c:	d8c02785 	stb	r3,158(sp)
   c3580:	003ab606 	br	c205c <_gp+0xfffdd87c>
   c3584:	d8c02b03 	ldbu	r3,172(sp)
   c3588:	d8c02785 	stb	r3,158(sp)
   c358c:	003a8906 	br	c1fb4 <_gp+0xfffdd7d4>

000c3590 <__ssvfscanf_r>:
   c3590:	2880030b 	ldhu	r2,12(r5)
   c3594:	deff4b04 	addi	sp,sp,-724
   c3598:	df00b315 	stw	fp,716(sp)
   c359c:	ddc0b215 	stw	r23,712(sp)
   c35a0:	dfc0b415 	stw	ra,720(sp)
   c35a4:	dd80b115 	stw	r22,708(sp)
   c35a8:	dd40b015 	stw	r21,704(sp)
   c35ac:	dd00af15 	stw	r20,700(sp)
   c35b0:	dcc0ae15 	stw	r19,696(sp)
   c35b4:	dc80ad15 	stw	r18,692(sp)
   c35b8:	dc40ac15 	stw	r17,688(sp)
   c35bc:	dc00ab15 	stw	r16,684(sp)
   c35c0:	10c8000c 	andi	r3,r2,8192
   c35c4:	d9c09c15 	stw	r7,624(sp)
   c35c8:	2839883a 	mov	fp,r5
   c35cc:	202f883a 	mov	r23,r4
   c35d0:	1800061e 	bne	r3,zero,c35ec <__ssvfscanf_r+0x5c>
   c35d4:	29001917 	ldw	r4,100(r5)
   c35d8:	00f7ffc4 	movi	r3,-8193
   c35dc:	10880014 	ori	r2,r2,8192
   c35e0:	20c6703a 	and	r3,r4,r3
   c35e4:	2880030d 	sth	r2,12(r5)
   c35e8:	28c01915 	stw	r3,100(r5)
   c35ec:	30800003 	ldbu	r2,0(r6)
   c35f0:	0021883a 	mov	r16,zero
   c35f4:	058003b4 	movhi	r22,14
   c35f8:	d800a115 	stw	zero,644(sp)
   c35fc:	d8009e15 	stw	zero,632(sp)
   c3600:	d800a015 	stw	zero,640(sp)
   c3604:	d8809b15 	stw	r2,620(sp)
   c3608:	b5b1f804 	addi	r22,r22,-14368
   c360c:	8025883a 	mov	r18,r16
   c3610:	e027883a 	mov	r19,fp
   c3614:	35000044 	addi	r20,r6,1
   c3618:	10001e26 	beq	r2,zero,c3694 <__ssvfscanf_r+0x104>
   c361c:	b4000017 	ldw	r16,0(r22)
   c3620:	8087883a 	add	r3,r16,r2
   c3624:	18c00043 	ldbu	r3,1(r3)
   c3628:	18c0020c 	andi	r3,r3,8
   c362c:	18001b26 	beq	r3,zero,c369c <__ssvfscanf_r+0x10c>
   c3630:	98800117 	ldw	r2,4(r19)
   c3634:	00800e0e 	bge	zero,r2,c3670 <__ssvfscanf_r+0xe0>
   c3638:	98c00017 	ldw	r3,0(r19)
   c363c:	b1000017 	ldw	r4,0(r22)
   c3640:	18800003 	ldbu	r2,0(r3)
   c3644:	2085883a 	add	r2,r4,r2
   c3648:	10800043 	ldbu	r2,1(r2)
   c364c:	1080020c 	andi	r2,r2,8
   c3650:	10000b26 	beq	r2,zero,c3680 <__ssvfscanf_r+0xf0>
   c3654:	98800117 	ldw	r2,4(r19)
   c3658:	18c00044 	addi	r3,r3,1
   c365c:	98c00015 	stw	r3,0(r19)
   c3660:	10bfffc4 	addi	r2,r2,-1
   c3664:	98800115 	stw	r2,4(r19)
   c3668:	94800044 	addi	r18,r18,1
   c366c:	00bff216 	blt	zero,r2,c3638 <_gp+0xfffdee58>
   c3670:	980b883a 	mov	r5,r19
   c3674:	b809883a 	mov	r4,r23
   c3678:	00d00640 	call	d0064 <__ssrefill_r>
   c367c:	103fee26 	beq	r2,zero,c3638 <_gp+0xfffdee58>
   c3680:	a00d883a 	mov	r6,r20
   c3684:	30800003 	ldbu	r2,0(r6)
   c3688:	35000044 	addi	r20,r6,1
   c368c:	d8809b15 	stw	r2,620(sp)
   c3690:	103fe21e 	bne	r2,zero,c361c <_gp+0xfffdee3c>
   c3694:	d880a017 	ldw	r2,640(sp)
   c3698:	00009a06 	br	c3904 <__ssvfscanf_r+0x374>
   c369c:	00c00944 	movi	r3,37
   c36a0:	10c0891e 	bne	r2,r3,c38c8 <__ssvfscanf_r+0x338>
   c36a4:	0039883a 	mov	fp,zero
   c36a8:	35400043 	ldbu	r21,1(r6)
   c36ac:	0023883a 	mov	r17,zero
   c36b0:	01801e04 	movi	r6,120
   c36b4:	00c01b04 	movi	r3,108
   c36b8:	e009883a 	mov	r4,fp
   c36bc:	a1c00044 	addi	r7,r20,1
   c36c0:	3540a236 	bltu	r6,r21,c394c <__ssvfscanf_r+0x3bc>
   c36c4:	a80490ba 	slli	r2,r21,2
   c36c8:	01400334 	movhi	r5,12
   c36cc:	294db704 	addi	r5,r5,14044
   c36d0:	1145883a 	add	r2,r2,r5
   c36d4:	10800017 	ldw	r2,0(r2)
   c36d8:	1000683a 	jmp	r2
   c36dc:	000c3900 	call	c390 <__alt_mem_onchip_memory2_0-0xb3c70>
   c36e0:	000c394c 	andi	zero,zero,12517
   c36e4:	000c394c 	andi	zero,zero,12517
   c36e8:	000c394c 	andi	zero,zero,12517
   c36ec:	000c394c 	andi	zero,zero,12517
   c36f0:	000c394c 	andi	zero,zero,12517
   c36f4:	000c394c 	andi	zero,zero,12517
   c36f8:	000c394c 	andi	zero,zero,12517
   c36fc:	000c394c 	andi	zero,zero,12517
   c3700:	000c394c 	andi	zero,zero,12517
   c3704:	000c394c 	andi	zero,zero,12517
   c3708:	000c394c 	andi	zero,zero,12517
   c370c:	000c394c 	andi	zero,zero,12517
   c3710:	000c394c 	andi	zero,zero,12517
   c3714:	000c394c 	andi	zero,zero,12517
   c3718:	000c394c 	andi	zero,zero,12517
   c371c:	000c394c 	andi	zero,zero,12517
   c3720:	000c394c 	andi	zero,zero,12517
   c3724:	000c394c 	andi	zero,zero,12517
   c3728:	000c394c 	andi	zero,zero,12517
   c372c:	000c394c 	andi	zero,zero,12517
   c3730:	000c394c 	andi	zero,zero,12517
   c3734:	000c394c 	andi	zero,zero,12517
   c3738:	000c394c 	andi	zero,zero,12517
   c373c:	000c394c 	andi	zero,zero,12517
   c3740:	000c394c 	andi	zero,zero,12517
   c3744:	000c394c 	andi	zero,zero,12517
   c3748:	000c394c 	andi	zero,zero,12517
   c374c:	000c394c 	andi	zero,zero,12517
   c3750:	000c394c 	andi	zero,zero,12517
   c3754:	000c394c 	andi	zero,zero,12517
   c3758:	000c394c 	andi	zero,zero,12517
   c375c:	000c394c 	andi	zero,zero,12517
   c3760:	000c394c 	andi	zero,zero,12517
   c3764:	000c394c 	andi	zero,zero,12517
   c3768:	000c394c 	andi	zero,zero,12517
   c376c:	000c394c 	andi	zero,zero,12517
   c3770:	000c38c0 	call	c38c <__alt_mem_onchip_memory2_0-0xb3c74>
   c3774:	000c394c 	andi	zero,zero,12517
   c3778:	000c394c 	andi	zero,zero,12517
   c377c:	000c394c 	andi	zero,zero,12517
   c3780:	000c394c 	andi	zero,zero,12517
   c3784:	000c3934 	movhi	zero,12516
   c3788:	000c394c 	andi	zero,zero,12517
   c378c:	000c394c 	andi	zero,zero,12517
   c3790:	000c394c 	andi	zero,zero,12517
   c3794:	000c394c 	andi	zero,zero,12517
   c3798:	000c394c 	andi	zero,zero,12517
   c379c:	000c3a94 	movui	zero,12522
   c37a0:	000c3a94 	movui	zero,12522
   c37a4:	000c3a94 	movui	zero,12522
   c37a8:	000c3a94 	movui	zero,12522
   c37ac:	000c3a94 	movui	zero,12522
   c37b0:	000c3a94 	movui	zero,12522
   c37b4:	000c3a94 	movui	zero,12522
   c37b8:	000c3a94 	movui	zero,12522
   c37bc:	000c3a94 	movui	zero,12522
   c37c0:	000c3a94 	movui	zero,12522
   c37c4:	000c394c 	andi	zero,zero,12517
   c37c8:	000c394c 	andi	zero,zero,12517
   c37cc:	000c394c 	andi	zero,zero,12517
   c37d0:	000c394c 	andi	zero,zero,12517
   c37d4:	000c394c 	andi	zero,zero,12517
   c37d8:	000c394c 	andi	zero,zero,12517
   c37dc:	000c394c 	andi	zero,zero,12517
   c37e0:	000c394c 	andi	zero,zero,12517
   c37e4:	000c394c 	andi	zero,zero,12517
   c37e8:	000c394c 	andi	zero,zero,12517
   c37ec:	000c3a64 	muli	zero,zero,12521
   c37f0:	000c3b40 	call	c3b4 <__alt_mem_onchip_memory2_0-0xb3c4c>
   c37f4:	000c394c 	andi	zero,zero,12517
   c37f8:	000c3b40 	call	c3b4 <__alt_mem_onchip_memory2_0-0xb3c4c>
   c37fc:	000c394c 	andi	zero,zero,12517
   c3800:	000c394c 	andi	zero,zero,12517
   c3804:	000c394c 	andi	zero,zero,12517
   c3808:	000c394c 	andi	zero,zero,12517
   c380c:	000c3b2c 	andhi	zero,zero,12524
   c3810:	000c394c 	andi	zero,zero,12517
   c3814:	000c394c 	andi	zero,zero,12517
   c3818:	000c3afc 	xorhi	zero,zero,12523
   c381c:	000c394c 	andi	zero,zero,12517
   c3820:	000c394c 	andi	zero,zero,12517
   c3824:	000c394c 	andi	zero,zero,12517
   c3828:	000c394c 	andi	zero,zero,12517
   c382c:	000c394c 	andi	zero,zero,12517
   c3830:	000c394c 	andi	zero,zero,12517
   c3834:	000c394c 	andi	zero,zero,12517
   c3838:	000c394c 	andi	zero,zero,12517
   c383c:	000c3acc 	andi	zero,zero,12523
   c3840:	000c394c 	andi	zero,zero,12517
   c3844:	000c394c 	andi	zero,zero,12517
   c3848:	000c3c88 	cmpgei	zero,zero,12530
   c384c:	000c394c 	andi	zero,zero,12517
   c3850:	000c394c 	andi	zero,zero,12517
   c3854:	000c394c 	andi	zero,zero,12517
   c3858:	000c394c 	andi	zero,zero,12517
   c385c:	000c394c 	andi	zero,zero,12517
   c3860:	000c394c 	andi	zero,zero,12517
   c3864:	000c394c 	andi	zero,zero,12517
   c3868:	000c3c08 	cmpgei	zero,zero,12528
   c386c:	000c3bdc 	xori	zero,zero,12527
   c3870:	000c3b40 	call	c3b4 <__alt_mem_onchip_memory2_0-0xb3c4c>
   c3874:	000c3b40 	call	c3b4 <__alt_mem_onchip_memory2_0-0xb3c4c>
   c3878:	000c3b40 	call	c3b4 <__alt_mem_onchip_memory2_0-0xb3c4c>
   c387c:	000c3bc8 	cmpgei	zero,zero,12527
   c3880:	000c3d18 	cmpnei	zero,zero,12532
   c3884:	000c394c 	andi	zero,zero,12517
   c3888:	000c394c 	andi	zero,zero,12517
   c388c:	000c3bb4 	movhi	zero,12526
   c3890:	000c394c 	andi	zero,zero,12517
   c3894:	000c3b84 	movi	zero,12526
   c3898:	000c3b58 	cmpnei	zero,zero,12525
   c389c:	000c3a34 	movhi	zero,12520
   c38a0:	000c394c 	andi	zero,zero,12517
   c38a4:	000c394c 	andi	zero,zero,12517
   c38a8:	000c3a1c 	xori	zero,zero,12520
   c38ac:	000c394c 	andi	zero,zero,12517
   c38b0:	000c39a0 	cmpeqi	zero,zero,12518
   c38b4:	000c394c 	andi	zero,zero,12517
   c38b8:	000c394c 	andi	zero,zero,12517
   c38bc:	000c3acc 	andi	zero,zero,12523
   c38c0:	d9c09d15 	stw	r7,628(sp)
   c38c4:	3829883a 	mov	r20,r7
   c38c8:	98800117 	ldw	r2,4(r19)
   c38cc:	0081c60e 	bge	zero,r2,c3fe8 <__ssvfscanf_r+0xa58>
   c38d0:	98800017 	ldw	r2,0(r19)
   c38d4:	a0ffffc3 	ldbu	r3,-1(r20)
   c38d8:	11000003 	ldbu	r4,0(r2)
   c38dc:	20ff6d1e 	bne	r4,r3,c3694 <_gp+0xfffdeeb4>
   c38e0:	98c00117 	ldw	r3,4(r19)
   c38e4:	10800044 	addi	r2,r2,1
   c38e8:	98800015 	stw	r2,0(r19)
   c38ec:	18bfffc4 	addi	r2,r3,-1
   c38f0:	98800115 	stw	r2,4(r19)
   c38f4:	94800044 	addi	r18,r18,1
   c38f8:	a00d883a 	mov	r6,r20
   c38fc:	003f6106 	br	c3684 <_gp+0xfffdeea4>
   c3900:	00bfffc4 	movi	r2,-1
   c3904:	dfc0b417 	ldw	ra,720(sp)
   c3908:	df00b317 	ldw	fp,716(sp)
   c390c:	ddc0b217 	ldw	r23,712(sp)
   c3910:	dd80b117 	ldw	r22,708(sp)
   c3914:	dd40b017 	ldw	r21,704(sp)
   c3918:	dd00af17 	ldw	r20,700(sp)
   c391c:	dcc0ae17 	ldw	r19,696(sp)
   c3920:	dc80ad17 	ldw	r18,692(sp)
   c3924:	dc40ac17 	ldw	r17,688(sp)
   c3928:	dc00ab17 	ldw	r16,684(sp)
   c392c:	dec0b504 	addi	sp,sp,724
   c3930:	f800283a 	ret
   c3934:	a1400043 	ldbu	r5,1(r20)
   c3938:	3829883a 	mov	r20,r7
   c393c:	8c400414 	ori	r17,r17,16
   c3940:	2d403fcc 	andi	r21,r5,255
   c3944:	a1c00044 	addi	r7,r20,1
   c3948:	357f5e2e 	bgeu	r6,r21,c36c4 <_gp+0xfffdeee4>
   c394c:	856b883a 	add	r21,r16,r21
   c3950:	a8800043 	ldbu	r2,1(r21)
   c3954:	d9c09d15 	stw	r7,628(sp)
   c3958:	00c00044 	movi	r3,1
   c395c:	108000cc 	andi	r2,r2,3
   c3960:	2039883a 	mov	fp,r4
   c3964:	10c1a526 	beq	r2,r3,c3ffc <__ssvfscanf_r+0xa6c>
   c3968:	98800117 	ldw	r2,4(r19)
   c396c:	00804216 	blt	zero,r2,c3a78 <__ssvfscanf_r+0x4e8>
   c3970:	980b883a 	mov	r5,r19
   c3974:	b809883a 	mov	r4,r23
   c3978:	00d00640 	call	d0064 <__ssrefill_r>
   c397c:	10015e1e 	bne	r2,zero,c3ef8 <__ssvfscanf_r+0x968>
   c3980:	01000374 	movhi	r4,13
   c3984:	2137b004 	addi	r4,r4,-8512
   c3988:	01400284 	movi	r5,10
   c398c:	b4000017 	ldw	r16,0(r22)
   c3990:	d900a115 	stw	r4,644(sp)
   c3994:	d9409e15 	stw	r5,632(sp)
   c3998:	050000c4 	movi	r20,3
   c399c:	00000a06 	br	c39c8 <__ssvfscanf_r+0x438>
   c39a0:	98800117 	ldw	r2,4(r19)
   c39a4:	d9c09d15 	stw	r7,628(sp)
   c39a8:	2039883a 	mov	fp,r4
   c39ac:	0081e20e 	bge	zero,r2,c4138 <__ssvfscanf_r+0xba8>
   c39b0:	00c00374 	movhi	r3,13
   c39b4:	18f90e04 	addi	r3,r3,-7112
   c39b8:	01000284 	movi	r4,10
   c39bc:	d8c0a115 	stw	r3,644(sp)
   c39c0:	d9009e15 	stw	r4,632(sp)
   c39c4:	050000c4 	movi	r20,3
   c39c8:	98c00017 	ldw	r3,0(r19)
   c39cc:	00000206 	br	c39d8 <__ssvfscanf_r+0x448>
   c39d0:	18c00044 	addi	r3,r3,1
   c39d4:	98c00015 	stw	r3,0(r19)
   c39d8:	19000003 	ldbu	r4,0(r3)
   c39dc:	20803fcc 	andi	r2,r4,255
   c39e0:	8085883a 	add	r2,r16,r2
   c39e4:	10800043 	ldbu	r2,1(r2)
   c39e8:	1140020c 	andi	r5,r2,8
   c39ec:	28020126 	beq	r5,zero,c41f4 <__ssvfscanf_r+0xc64>
   c39f0:	98800117 	ldw	r2,4(r19)
   c39f4:	94800044 	addi	r18,r18,1
   c39f8:	10bfffc4 	addi	r2,r2,-1
   c39fc:	98800115 	stw	r2,4(r19)
   c3a00:	00bff316 	blt	zero,r2,c39d0 <_gp+0xfffdf1f0>
   c3a04:	980b883a 	mov	r5,r19
   c3a08:	b809883a 	mov	r4,r23
   c3a0c:	00d00640 	call	d0064 <__ssrefill_r>
   c3a10:	1001391e 	bne	r2,zero,c3ef8 <__ssvfscanf_r+0x968>
   c3a14:	b4000017 	ldw	r16,0(r22)
   c3a18:	003feb06 	br	c39c8 <_gp+0xfffdf1e8>
   c3a1c:	98800117 	ldw	r2,4(r19)
   c3a20:	d9c09d15 	stw	r7,628(sp)
   c3a24:	2039883a 	mov	fp,r4
   c3a28:	0081aa0e 	bge	zero,r2,c40d4 <__ssvfscanf_r+0xb44>
   c3a2c:	05000084 	movi	r20,2
   c3a30:	003fe506 	br	c39c8 <_gp+0xfffdf1e8>
   c3a34:	98800117 	ldw	r2,4(r19)
   c3a38:	d9c09d15 	stw	r7,628(sp)
   c3a3c:	2039883a 	mov	fp,r4
   c3a40:	8c408814 	ori	r17,r17,544
   c3a44:	0081df0e 	bge	zero,r2,c41c4 <__ssvfscanf_r+0xc34>
   c3a48:	00c00374 	movhi	r3,13
   c3a4c:	18f90e04 	addi	r3,r3,-7112
   c3a50:	01000404 	movi	r4,16
   c3a54:	d8c0a115 	stw	r3,644(sp)
   c3a58:	d9009e15 	stw	r4,632(sp)
   c3a5c:	050000c4 	movi	r20,3
   c3a60:	003fd906 	br	c39c8 <_gp+0xfffdf1e8>
   c3a64:	98800117 	ldw	r2,4(r19)
   c3a68:	d9c09d15 	stw	r7,628(sp)
   c3a6c:	2039883a 	mov	fp,r4
   c3a70:	8c400054 	ori	r17,r17,1
   c3a74:	0081850e 	bge	zero,r2,c408c <__ssvfscanf_r+0xafc>
   c3a78:	00c00374 	movhi	r3,13
   c3a7c:	18f7b004 	addi	r3,r3,-8512
   c3a80:	01000284 	movi	r4,10
   c3a84:	d8c0a115 	stw	r3,644(sp)
   c3a88:	d9009e15 	stw	r4,632(sp)
   c3a8c:	050000c4 	movi	r20,3
   c3a90:	003fcd06 	br	c39c8 <_gp+0xfffdf1e8>
   c3a94:	01400284 	movi	r5,10
   c3a98:	d8c0a615 	stw	r3,664(sp)
   c3a9c:	d980a915 	stw	r6,676(sp)
   c3aa0:	d9c0aa15 	stw	r7,680(sp)
   c3aa4:	00d4f100 	call	d4f10 <__mulsi3>
   c3aa8:	a1400043 	ldbu	r5,1(r20)
   c3aac:	d9c0aa17 	ldw	r7,680(sp)
   c3ab0:	1545883a 	add	r2,r2,r21
   c3ab4:	113ff404 	addi	r4,r2,-48
   c3ab8:	3829883a 	mov	r20,r7
   c3abc:	2d403fcc 	andi	r21,r5,255
   c3ac0:	d8c0a617 	ldw	r3,664(sp)
   c3ac4:	d980a917 	ldw	r6,676(sp)
   c3ac8:	003efc06 	br	c36bc <_gp+0xfffdeedc>
   c3acc:	98800117 	ldw	r2,4(r19)
   c3ad0:	d9c09d15 	stw	r7,628(sp)
   c3ad4:	2039883a 	mov	fp,r4
   c3ad8:	8c408014 	ori	r17,r17,512
   c3adc:	0081710e 	bge	zero,r2,c40a4 <__ssvfscanf_r+0xb14>
   c3ae0:	01400374 	movhi	r5,13
   c3ae4:	29790e04 	addi	r5,r5,-7112
   c3ae8:	00800404 	movi	r2,16
   c3aec:	d940a115 	stw	r5,644(sp)
   c3af0:	d8809e15 	stw	r2,632(sp)
   c3af4:	050000c4 	movi	r20,3
   c3af8:	003fb306 	br	c39c8 <_gp+0xfffdf1e8>
   c3afc:	98800117 	ldw	r2,4(r19)
   c3b00:	d9c09d15 	stw	r7,628(sp)
   c3b04:	2039883a 	mov	fp,r4
   c3b08:	8c400054 	ori	r17,r17,1
   c3b0c:	0081840e 	bge	zero,r2,c4120 <__ssvfscanf_r+0xb90>
   c3b10:	01400374 	movhi	r5,13
   c3b14:	29790e04 	addi	r5,r5,-7112
   c3b18:	00800204 	movi	r2,8
   c3b1c:	d940a115 	stw	r5,644(sp)
   c3b20:	d8809e15 	stw	r2,632(sp)
   c3b24:	050000c4 	movi	r20,3
   c3b28:	003fa706 	br	c39c8 <_gp+0xfffdf1e8>
   c3b2c:	a1400043 	ldbu	r5,1(r20)
   c3b30:	8c400094 	ori	r17,r17,2
   c3b34:	3829883a 	mov	r20,r7
   c3b38:	2d403fcc 	andi	r21,r5,255
   c3b3c:	003edf06 	br	c36bc <_gp+0xfffdeedc>
   c3b40:	98800117 	ldw	r2,4(r19)
   c3b44:	d9c09d15 	stw	r7,628(sp)
   c3b48:	2039883a 	mov	fp,r4
   c3b4c:	00816d0e 	bge	zero,r2,c4104 <__ssvfscanf_r+0xb74>
   c3b50:	05000104 	movi	r20,4
   c3b54:	003f9c06 	br	c39c8 <_gp+0xfffdf1e8>
   c3b58:	98800117 	ldw	r2,4(r19)
   c3b5c:	d9c09d15 	stw	r7,628(sp)
   c3b60:	2039883a 	mov	fp,r4
   c3b64:	0081800e 	bge	zero,r2,c4168 <__ssvfscanf_r+0xbd8>
   c3b68:	01000374 	movhi	r4,13
   c3b6c:	21390e04 	addi	r4,r4,-7112
   c3b70:	01400204 	movi	r5,8
   c3b74:	d900a115 	stw	r4,644(sp)
   c3b78:	d9409e15 	stw	r5,632(sp)
   c3b7c:	050000c4 	movi	r20,3
   c3b80:	003f9106 	br	c39c8 <_gp+0xfffdf1e8>
   c3b84:	d9c09d15 	stw	r7,628(sp)
   c3b88:	8880040c 	andi	r2,r17,16
   c3b8c:	1000a01e 	bne	r2,zero,c3e10 <__ssvfscanf_r+0x880>
   c3b90:	8880010c 	andi	r2,r17,4
   c3b94:	10012826 	beq	r2,zero,c4038 <__ssvfscanf_r+0xaa8>
   c3b98:	d9009c17 	ldw	r4,624(sp)
   c3b9c:	3829883a 	mov	r20,r7
   c3ba0:	20800017 	ldw	r2,0(r4)
   c3ba4:	21000104 	addi	r4,r4,4
   c3ba8:	d9009c15 	stw	r4,624(sp)
   c3bac:	1480000d 	sth	r18,0(r2)
   c3bb0:	003eb306 	br	c3680 <_gp+0xfffdeea0>
   c3bb4:	a5400043 	ldbu	r21,1(r20)
   c3bb8:	a8c11a26 	beq	r21,r3,c4024 <__ssvfscanf_r+0xa94>
   c3bbc:	8c400054 	ori	r17,r17,1
   c3bc0:	3829883a 	mov	r20,r7
   c3bc4:	003ebd06 	br	c36bc <_gp+0xfffdeedc>
   c3bc8:	a1400043 	ldbu	r5,1(r20)
   c3bcc:	8c400114 	ori	r17,r17,4
   c3bd0:	3829883a 	mov	r20,r7
   c3bd4:	2d403fcc 	andi	r21,r5,255
   c3bd8:	003eb806 	br	c36bc <_gp+0xfffdeedc>
   c3bdc:	98800117 	ldw	r2,4(r19)
   c3be0:	d9c09d15 	stw	r7,628(sp)
   c3be4:	2039883a 	mov	fp,r4
   c3be8:	00bf610e 	bge	zero,r2,c3970 <_gp+0xfffdf190>
   c3bec:	00800374 	movhi	r2,13
   c3bf0:	10b7b004 	addi	r2,r2,-8512
   c3bf4:	00c00284 	movi	r3,10
   c3bf8:	d880a115 	stw	r2,644(sp)
   c3bfc:	d8c09e15 	stw	r3,632(sp)
   c3c00:	050000c4 	movi	r20,3
   c3c04:	003f7006 	br	c39c8 <_gp+0xfffdf1e8>
   c3c08:	98800117 	ldw	r2,4(r19)
   c3c0c:	d9c09d15 	stw	r7,628(sp)
   c3c10:	2039883a 	mov	fp,r4
   c3c14:	0080c60e 	bge	zero,r2,c3f30 <__ssvfscanf_r+0x9a0>
   c3c18:	e000011e 	bne	fp,zero,c3c20 <__ssvfscanf_r+0x690>
   c3c1c:	07000044 	movi	fp,1
   c3c20:	8880004c 	andi	r2,r17,1
   c3c24:	1000461e 	bne	r2,zero,c3d40 <__ssvfscanf_r+0x7b0>
   c3c28:	8c40040c 	andi	r17,r17,16
   c3c2c:	8800dc26 	beq	r17,zero,c3fa0 <__ssvfscanf_r+0xa10>
   c3c30:	0021883a 	mov	r16,zero
   c3c34:	00000806 	br	c3c58 <__ssvfscanf_r+0x6c8>
   c3c38:	1887883a 	add	r3,r3,r2
   c3c3c:	980b883a 	mov	r5,r19
   c3c40:	b809883a 	mov	r4,r23
   c3c44:	98c00015 	stw	r3,0(r19)
   c3c48:	80a1883a 	add	r16,r16,r2
   c3c4c:	e0b9c83a 	sub	fp,fp,r2
   c3c50:	00d00640 	call	d0064 <__ssrefill_r>
   c3c54:	1000cc1e 	bne	r2,zero,c3f88 <__ssvfscanf_r+0x9f8>
   c3c58:	98800117 	ldw	r2,4(r19)
   c3c5c:	98c00017 	ldw	r3,0(r19)
   c3c60:	173ff516 	blt	r2,fp,c3c38 <_gp+0xfffdf458>
   c3c64:	1705c83a 	sub	r2,r2,fp
   c3c68:	1f15883a 	add	r10,r3,fp
   c3c6c:	8721883a 	add	r16,r16,fp
   c3c70:	98800115 	stw	r2,4(r19)
   c3c74:	9a800015 	stw	r10,0(r19)
   c3c78:	dd009d17 	ldw	r20,628(sp)
   c3c7c:	9425883a 	add	r18,r18,r16
   c3c80:	a00d883a 	mov	r6,r20
   c3c84:	003e7f06 	br	c3684 <_gp+0xfffdeea4>
   c3c88:	2039883a 	mov	fp,r4
   c3c8c:	380b883a 	mov	r5,r7
   c3c90:	d9005884 	addi	r4,sp,354
   c3c94:	d9c09d15 	stw	r7,628(sp)
   c3c98:	00cc6880 	call	cc688 <__sccl>
   c3c9c:	1029883a 	mov	r20,r2
   c3ca0:	98800117 	ldw	r2,4(r19)
   c3ca4:	0081120e 	bge	zero,r2,c40f0 <__ssvfscanf_r+0xb60>
   c3ca8:	99000017 	ldw	r4,0(r19)
   c3cac:	20800003 	ldbu	r2,0(r4)
   c3cb0:	e0005a26 	beq	fp,zero,c3e1c <__ssvfscanf_r+0x88c>
   c3cb4:	8c40040c 	andi	r17,r17,16
   c3cb8:	88005b26 	beq	r17,zero,c3e28 <__ssvfscanf_r+0x898>
   c3cbc:	e023883a 	mov	r17,fp
   c3cc0:	0021883a 	mov	r16,zero
   c3cc4:	00000106 	br	c3ccc <__ssvfscanf_r+0x73c>
   c3cc8:	20800003 	ldbu	r2,0(r4)
   c3ccc:	10803fcc 	andi	r2,r2,255
   c3cd0:	d8c05884 	addi	r3,sp,354
   c3cd4:	1885883a 	add	r2,r3,r2
   c3cd8:	10800007 	ldb	r2,0(r2)
   c3cdc:	1000ae26 	beq	r2,zero,c3f98 <__ssvfscanf_r+0xa08>
   c3ce0:	98800117 	ldw	r2,4(r19)
   c3ce4:	21000044 	addi	r4,r4,1
   c3ce8:	84000044 	addi	r16,r16,1
   c3cec:	10bfffc4 	addi	r2,r2,-1
   c3cf0:	98800115 	stw	r2,4(r19)
   c3cf4:	99000015 	stw	r4,0(r19)
   c3cf8:	8700a126 	beq	r16,fp,c3f80 <__ssvfscanf_r+0x9f0>
   c3cfc:	00bff216 	blt	zero,r2,c3cc8 <_gp+0xfffdf4e8>
   c3d00:	980b883a 	mov	r5,r19
   c3d04:	b809883a 	mov	r4,r23
   c3d08:	00d00640 	call	d0064 <__ssrefill_r>
   c3d0c:	10009b1e 	bne	r2,zero,c3f7c <__ssvfscanf_r+0x9ec>
   c3d10:	99000017 	ldw	r4,0(r19)
   c3d14:	003fec06 	br	c3cc8 <_gp+0xfffdf4e8>
   c3d18:	98800117 	ldw	r2,4(r19)
   c3d1c:	d9c09d15 	stw	r7,628(sp)
   c3d20:	2039883a 	mov	fp,r4
   c3d24:	00811c0e 	bge	zero,r2,c4198 <__ssvfscanf_r+0xc08>
   c3d28:	01400374 	movhi	r5,13
   c3d2c:	2977b004 	addi	r5,r5,-8512
   c3d30:	d940a115 	stw	r5,644(sp)
   c3d34:	d8009e15 	stw	zero,632(sp)
   c3d38:	050000c4 	movi	r20,3
   c3d3c:	003f2206 	br	c39c8 <_gp+0xfffdf1e8>
   c3d40:	dd409904 	addi	r21,sp,612
   c3d44:	8c40040c 	andi	r17,r17,16
   c3d48:	01800204 	movi	r6,8
   c3d4c:	000b883a 	mov	r5,zero
   c3d50:	a809883a 	mov	r4,r21
   c3d54:	dc409f15 	stw	r17,636(sp)
   c3d58:	00c0a000 	call	c0a00 <memset>
   c3d5c:	dc409f17 	ldw	r17,636(sp)
   c3d60:	88006e26 	beq	r17,zero,c3f1c <__ssvfscanf_r+0x98c>
   c3d64:	0029883a 	mov	r20,zero
   c3d68:	0023883a 	mov	r17,zero
   c3d6c:	00c9f1c0 	call	c9f1c <__locale_mb_cur_max>
   c3d70:	14406126 	beq	r2,r17,c3ef8 <__ssvfscanf_r+0x968>
   c3d74:	98800017 	ldw	r2,0(r19)
   c3d78:	98c00117 	ldw	r3,4(r19)
   c3d7c:	d9000104 	addi	r4,sp,4
   c3d80:	12000003 	ldbu	r8,0(r2)
   c3d84:	18ffffc4 	addi	r3,r3,-1
   c3d88:	10800044 	addi	r2,r2,1
   c3d8c:	98c00115 	stw	r3,4(r19)
   c3d90:	98800015 	stw	r2,0(r19)
   c3d94:	8c000044 	addi	r16,r17,1
   c3d98:	dd400015 	stw	r21,0(sp)
   c3d9c:	2463883a 	add	r17,r4,r17
   c3da0:	200d883a 	mov	r6,r4
   c3da4:	a00b883a 	mov	r5,r20
   c3da8:	800f883a 	mov	r7,r16
   c3dac:	b809883a 	mov	r4,r23
   c3db0:	8a000005 	stb	r8,0(r17)
   c3db4:	00ca9980 	call	ca998 <_mbrtowc_r>
   c3db8:	017fffc4 	movi	r5,-1
   c3dbc:	11404e26 	beq	r2,r5,c3ef8 <__ssvfscanf_r+0x968>
   c3dc0:	1000601e 	bne	r2,zero,c3f44 <__ssvfscanf_r+0x9b4>
   c3dc4:	d8c09f17 	ldw	r3,636(sp)
   c3dc8:	1800641e 	bne	r3,zero,c3f5c <__ssvfscanf_r+0x9cc>
   c3dcc:	a0000015 	stw	zero,0(r20)
   c3dd0:	9425883a 	add	r18,r18,r16
   c3dd4:	e179883a 	add	fp,fp,r5
   c3dd8:	a5000104 	addi	r20,r20,4
   c3ddc:	98800117 	ldw	r2,4(r19)
   c3de0:	0023883a 	mov	r17,zero
   c3de4:	00804b16 	blt	zero,r2,c3f14 <__ssvfscanf_r+0x984>
   c3de8:	980b883a 	mov	r5,r19
   c3dec:	b809883a 	mov	r4,r23
   c3df0:	00d00640 	call	d0064 <__ssrefill_r>
   c3df4:	10004726 	beq	r2,zero,c3f14 <__ssvfscanf_r+0x984>
   c3df8:	88003f1e 	bne	r17,zero,c3ef8 <__ssvfscanf_r+0x968>
   c3dfc:	d8c09f17 	ldw	r3,636(sp)
   c3e00:	1800031e 	bne	r3,zero,c3e10 <__ssvfscanf_r+0x880>
   c3e04:	d900a017 	ldw	r4,640(sp)
   c3e08:	21000044 	addi	r4,r4,1
   c3e0c:	d900a015 	stw	r4,640(sp)
   c3e10:	dd009d17 	ldw	r20,628(sp)
   c3e14:	a00d883a 	mov	r6,r20
   c3e18:	003e1a06 	br	c3684 <_gp+0xfffdeea4>
   c3e1c:	8c40040c 	andi	r17,r17,16
   c3e20:	073fffc4 	movi	fp,-1
   c3e24:	883fa51e 	bne	r17,zero,c3cbc <_gp+0xfffdf4dc>
   c3e28:	d9409c17 	ldw	r5,624(sp)
   c3e2c:	e2bfffc4 	addi	r10,fp,-1
   c3e30:	2c000017 	ldw	r16,0(r5)
   c3e34:	2c400104 	addi	r17,r5,4
   c3e38:	8007883a 	mov	r3,r16
   c3e3c:	82ab883a 	add	r21,r16,r10
   c3e40:	00000306 	br	c3e50 <__ssvfscanf_r+0x8c0>
   c3e44:	99000017 	ldw	r4,0(r19)
   c3e48:	e007883a 	mov	r3,fp
   c3e4c:	20800003 	ldbu	r2,0(r4)
   c3e50:	10803fcc 	andi	r2,r2,255
   c3e54:	d9405884 	addi	r5,sp,354
   c3e58:	2885883a 	add	r2,r5,r2
   c3e5c:	10800007 	ldb	r2,0(r2)
   c3e60:	10004b26 	beq	r2,zero,c3f90 <__ssvfscanf_r+0xa00>
   c3e64:	98800117 	ldw	r2,4(r19)
   c3e68:	21400044 	addi	r5,r4,1
   c3e6c:	99400015 	stw	r5,0(r19)
   c3e70:	10bfffc4 	addi	r2,r2,-1
   c3e74:	98800115 	stw	r2,4(r19)
   c3e78:	20800003 	ldbu	r2,0(r4)
   c3e7c:	1f000044 	addi	fp,r3,1
   c3e80:	18800005 	stb	r2,0(r3)
   c3e84:	1d400726 	beq	r3,r21,c3ea4 <__ssvfscanf_r+0x914>
   c3e88:	98800117 	ldw	r2,4(r19)
   c3e8c:	00bfed16 	blt	zero,r2,c3e44 <_gp+0xfffdf664>
   c3e90:	980b883a 	mov	r5,r19
   c3e94:	b809883a 	mov	r4,r23
   c3e98:	00d00640 	call	d0064 <__ssrefill_r>
   c3e9c:	103fe926 	beq	r2,zero,c3e44 <_gp+0xfffdf664>
   c3ea0:	87001526 	beq	r16,fp,c3ef8 <__ssvfscanf_r+0x968>
   c3ea4:	e421c83a 	sub	r16,fp,r16
   c3ea8:	803dfa26 	beq	r16,zero,c3694 <_gp+0xfffdeeb4>
   c3eac:	d880a017 	ldw	r2,640(sp)
   c3eb0:	e0000005 	stb	zero,0(fp)
   c3eb4:	dc409c15 	stw	r17,624(sp)
   c3eb8:	10800044 	addi	r2,r2,1
   c3ebc:	d880a015 	stw	r2,640(sp)
   c3ec0:	9425883a 	add	r18,r18,r16
   c3ec4:	a00d883a 	mov	r6,r20
   c3ec8:	003dee06 	br	c3684 <_gp+0xfffdeea4>
   c3ecc:	013fff84 	movi	r4,-2
   c3ed0:	1103ed1e 	bne	r2,r4,c4e88 <__ssvfscanf_r+0x18f8>
   c3ed4:	8821883a 	mov	r16,r17
   c3ed8:	98800117 	ldw	r2,4(r19)
   c3edc:	00834116 	blt	zero,r2,c4be4 <__ssvfscanf_r+0x1654>
   c3ee0:	980b883a 	mov	r5,r19
   c3ee4:	b809883a 	mov	r4,r23
   c3ee8:	00d00640 	call	d0064 <__ssrefill_r>
   c3eec:	10033d26 	beq	r2,zero,c4be4 <__ssvfscanf_r+0x1654>
   c3ef0:	dc409f17 	ldw	r17,636(sp)
   c3ef4:	80034426 	beq	r16,zero,c4c08 <__ssvfscanf_r+0x1678>
   c3ef8:	d900a017 	ldw	r4,640(sp)
   c3efc:	203e8026 	beq	r4,zero,c3900 <_gp+0xfffdf120>
   c3f00:	9880030b 	ldhu	r2,12(r19)
   c3f04:	1080100c 	andi	r2,r2,64
   c3f08:	103e7d1e 	bne	r2,zero,c3900 <_gp+0xfffdf120>
   c3f0c:	2005883a 	mov	r2,r4
   c3f10:	003e7c06 	br	c3904 <_gp+0xfffdf124>
   c3f14:	e03f951e 	bne	fp,zero,c3d6c <_gp+0xfffdf58c>
   c3f18:	003fb806 	br	c3dfc <_gp+0xfffdf61c>
   c3f1c:	d8809c17 	ldw	r2,624(sp)
   c3f20:	15000017 	ldw	r20,0(r2)
   c3f24:	10800104 	addi	r2,r2,4
   c3f28:	d8809c15 	stw	r2,624(sp)
   c3f2c:	003f8e06 	br	c3d68 <_gp+0xfffdf588>
   c3f30:	980b883a 	mov	r5,r19
   c3f34:	b809883a 	mov	r4,r23
   c3f38:	00d00640 	call	d0064 <__ssrefill_r>
   c3f3c:	103f3626 	beq	r2,zero,c3c18 <_gp+0xfffdf438>
   c3f40:	003fed06 	br	c3ef8 <_gp+0xfffdf718>
   c3f44:	013fff84 	movi	r4,-2
   c3f48:	1100071e 	bne	r2,r4,c3f68 <__ssvfscanf_r+0x9d8>
   c3f4c:	98800117 	ldw	r2,4(r19)
   c3f50:	8023883a 	mov	r17,r16
   c3f54:	00bf8516 	blt	zero,r2,c3d6c <_gp+0xfffdf58c>
   c3f58:	003fa306 	br	c3de8 <_gp+0xfffdf608>
   c3f5c:	9425883a 	add	r18,r18,r16
   c3f60:	e73fffc4 	addi	fp,fp,-1
   c3f64:	003f9d06 	br	c3ddc <_gp+0xfffdf5fc>
   c3f68:	d8c09f17 	ldw	r3,636(sp)
   c3f6c:	9425883a 	add	r18,r18,r16
   c3f70:	e73fffc4 	addi	fp,fp,-1
   c3f74:	183f9826 	beq	r3,zero,c3dd8 <_gp+0xfffdf5f8>
   c3f78:	003f9806 	br	c3ddc <_gp+0xfffdf5fc>
   c3f7c:	8023883a 	mov	r17,r16
   c3f80:	8821883a 	mov	r16,r17
   c3f84:	003fce06 	br	c3ec0 <_gp+0xfffdf6e0>
   c3f88:	803f3b1e 	bne	r16,zero,c3c78 <_gp+0xfffdf498>
   c3f8c:	003fda06 	br	c3ef8 <_gp+0xfffdf718>
   c3f90:	1839883a 	mov	fp,r3
   c3f94:	003fc306 	br	c3ea4 <_gp+0xfffdf6c4>
   c3f98:	803fc91e 	bne	r16,zero,c3ec0 <_gp+0xfffdf6e0>
   c3f9c:	003dbd06 	br	c3694 <_gp+0xfffdeeb4>
   c3fa0:	d8809c17 	ldw	r2,624(sp)
   c3fa4:	dcc00015 	stw	r19,0(sp)
   c3fa8:	b809883a 	mov	r4,r23
   c3fac:	11400017 	ldw	r5,0(r2)
   c3fb0:	e00f883a 	mov	r7,fp
   c3fb4:	01800044 	movi	r6,1
   c3fb8:	00d00d40 	call	d00d4 <_sfread_r>
   c3fbc:	d9009c17 	ldw	r4,624(sp)
   c3fc0:	20c00104 	addi	r3,r4,4
   c3fc4:	103fcc26 	beq	r2,zero,c3ef8 <_gp+0xfffdf718>
   c3fc8:	d940a017 	ldw	r5,640(sp)
   c3fcc:	dd009d17 	ldw	r20,628(sp)
   c3fd0:	90a5883a 	add	r18,r18,r2
   c3fd4:	29400044 	addi	r5,r5,1
   c3fd8:	d940a015 	stw	r5,640(sp)
   c3fdc:	d8c09c15 	stw	r3,624(sp)
   c3fe0:	a00d883a 	mov	r6,r20
   c3fe4:	003da706 	br	c3684 <_gp+0xfffdeea4>
   c3fe8:	980b883a 	mov	r5,r19
   c3fec:	b809883a 	mov	r4,r23
   c3ff0:	00d00640 	call	d0064 <__ssrefill_r>
   c3ff4:	103e3626 	beq	r2,zero,c38d0 <_gp+0xfffdf0f0>
   c3ff8:	003fbf06 	br	c3ef8 <_gp+0xfffdf718>
   c3ffc:	98800117 	ldw	r2,4(r19)
   c4000:	88e2b03a 	or	r17,r17,r3
   c4004:	0080210e 	bge	zero,r2,c408c <__ssvfscanf_r+0xafc>
   c4008:	01400374 	movhi	r5,13
   c400c:	2977b004 	addi	r5,r5,-8512
   c4010:	00800284 	movi	r2,10
   c4014:	d940a115 	stw	r5,644(sp)
   c4018:	d8809e15 	stw	r2,632(sp)
   c401c:	050000c4 	movi	r20,3
   c4020:	003e6906 	br	c39c8 <_gp+0xfffdf1e8>
   c4024:	a1400083 	ldbu	r5,2(r20)
   c4028:	8c400094 	ori	r17,r17,2
   c402c:	a5000084 	addi	r20,r20,2
   c4030:	2d403fcc 	andi	r21,r5,255
   c4034:	003da106 	br	c36bc <_gp+0xfffdeedc>
   c4038:	8880004c 	andi	r2,r17,1
   c403c:	10000c1e 	bne	r2,zero,c4070 <__ssvfscanf_r+0xae0>
   c4040:	8c40008c 	andi	r17,r17,2
   c4044:	88000a26 	beq	r17,zero,c4070 <__ssvfscanf_r+0xae0>
   c4048:	d8c09c17 	ldw	r3,624(sp)
   c404c:	d9009c17 	ldw	r4,624(sp)
   c4050:	dd009d17 	ldw	r20,628(sp)
   c4054:	18800017 	ldw	r2,0(r3)
   c4058:	9007d7fa 	srai	r3,r18,31
   c405c:	21000104 	addi	r4,r4,4
   c4060:	14800015 	stw	r18,0(r2)
   c4064:	10c00115 	stw	r3,4(r2)
   c4068:	d9009c15 	stw	r4,624(sp)
   c406c:	003d8406 	br	c3680 <_gp+0xfffdeea0>
   c4070:	d9409c17 	ldw	r5,624(sp)
   c4074:	dd009d17 	ldw	r20,628(sp)
   c4078:	28800017 	ldw	r2,0(r5)
   c407c:	29400104 	addi	r5,r5,4
   c4080:	d9409c15 	stw	r5,624(sp)
   c4084:	14800015 	stw	r18,0(r2)
   c4088:	003d7d06 	br	c3680 <_gp+0xfffdeea0>
   c408c:	980b883a 	mov	r5,r19
   c4090:	b809883a 	mov	r4,r23
   c4094:	00d00640 	call	d0064 <__ssrefill_r>
   c4098:	103f971e 	bne	r2,zero,c3ef8 <_gp+0xfffdf718>
   c409c:	b4000017 	ldw	r16,0(r22)
   c40a0:	003ed206 	br	c3bec <_gp+0xfffdf40c>
   c40a4:	980b883a 	mov	r5,r19
   c40a8:	b809883a 	mov	r4,r23
   c40ac:	00d00640 	call	d0064 <__ssrefill_r>
   c40b0:	103f911e 	bne	r2,zero,c3ef8 <_gp+0xfffdf718>
   c40b4:	01000374 	movhi	r4,13
   c40b8:	21390e04 	addi	r4,r4,-7112
   c40bc:	01400404 	movi	r5,16
   c40c0:	b4000017 	ldw	r16,0(r22)
   c40c4:	d900a115 	stw	r4,644(sp)
   c40c8:	d9409e15 	stw	r5,632(sp)
   c40cc:	050000c4 	movi	r20,3
   c40d0:	003e3d06 	br	c39c8 <_gp+0xfffdf1e8>
   c40d4:	980b883a 	mov	r5,r19
   c40d8:	b809883a 	mov	r4,r23
   c40dc:	00d00640 	call	d0064 <__ssrefill_r>
   c40e0:	103f851e 	bne	r2,zero,c3ef8 <_gp+0xfffdf718>
   c40e4:	b4000017 	ldw	r16,0(r22)
   c40e8:	05000084 	movi	r20,2
   c40ec:	003e3606 	br	c39c8 <_gp+0xfffdf1e8>
   c40f0:	980b883a 	mov	r5,r19
   c40f4:	b809883a 	mov	r4,r23
   c40f8:	00d00640 	call	d0064 <__ssrefill_r>
   c40fc:	103eea26 	beq	r2,zero,c3ca8 <_gp+0xfffdf4c8>
   c4100:	003f7d06 	br	c3ef8 <_gp+0xfffdf718>
   c4104:	980b883a 	mov	r5,r19
   c4108:	b809883a 	mov	r4,r23
   c410c:	00d00640 	call	d0064 <__ssrefill_r>
   c4110:	103f791e 	bne	r2,zero,c3ef8 <_gp+0xfffdf718>
   c4114:	b4000017 	ldw	r16,0(r22)
   c4118:	05000104 	movi	r20,4
   c411c:	003e2a06 	br	c39c8 <_gp+0xfffdf1e8>
   c4120:	980b883a 	mov	r5,r19
   c4124:	b809883a 	mov	r4,r23
   c4128:	00d00640 	call	d0064 <__ssrefill_r>
   c412c:	103f721e 	bne	r2,zero,c3ef8 <_gp+0xfffdf718>
   c4130:	b4000017 	ldw	r16,0(r22)
   c4134:	003e8c06 	br	c3b68 <_gp+0xfffdf388>
   c4138:	980b883a 	mov	r5,r19
   c413c:	b809883a 	mov	r4,r23
   c4140:	00d00640 	call	d0064 <__ssrefill_r>
   c4144:	103f6c1e 	bne	r2,zero,c3ef8 <_gp+0xfffdf718>
   c4148:	00800374 	movhi	r2,13
   c414c:	10b90e04 	addi	r2,r2,-7112
   c4150:	00c00284 	movi	r3,10
   c4154:	b4000017 	ldw	r16,0(r22)
   c4158:	d880a115 	stw	r2,644(sp)
   c415c:	d8c09e15 	stw	r3,632(sp)
   c4160:	050000c4 	movi	r20,3
   c4164:	003e1806 	br	c39c8 <_gp+0xfffdf1e8>
   c4168:	980b883a 	mov	r5,r19
   c416c:	b809883a 	mov	r4,r23
   c4170:	00d00640 	call	d0064 <__ssrefill_r>
   c4174:	103f601e 	bne	r2,zero,c3ef8 <_gp+0xfffdf718>
   c4178:	00800374 	movhi	r2,13
   c417c:	10b90e04 	addi	r2,r2,-7112
   c4180:	00c00204 	movi	r3,8
   c4184:	b4000017 	ldw	r16,0(r22)
   c4188:	d880a115 	stw	r2,644(sp)
   c418c:	d8c09e15 	stw	r3,632(sp)
   c4190:	050000c4 	movi	r20,3
   c4194:	003e0c06 	br	c39c8 <_gp+0xfffdf1e8>
   c4198:	980b883a 	mov	r5,r19
   c419c:	b809883a 	mov	r4,r23
   c41a0:	00d00640 	call	d0064 <__ssrefill_r>
   c41a4:	103f541e 	bne	r2,zero,c3ef8 <_gp+0xfffdf718>
   c41a8:	00800374 	movhi	r2,13
   c41ac:	10b7b004 	addi	r2,r2,-8512
   c41b0:	b4000017 	ldw	r16,0(r22)
   c41b4:	d880a115 	stw	r2,644(sp)
   c41b8:	d8009e15 	stw	zero,632(sp)
   c41bc:	050000c4 	movi	r20,3
   c41c0:	003e0106 	br	c39c8 <_gp+0xfffdf1e8>
   c41c4:	980b883a 	mov	r5,r19
   c41c8:	b809883a 	mov	r4,r23
   c41cc:	00d00640 	call	d0064 <__ssrefill_r>
   c41d0:	103f491e 	bne	r2,zero,c3ef8 <_gp+0xfffdf718>
   c41d4:	00800374 	movhi	r2,13
   c41d8:	10b90e04 	addi	r2,r2,-7112
   c41dc:	00c00404 	movi	r3,16
   c41e0:	b4000017 	ldw	r16,0(r22)
   c41e4:	d880a115 	stw	r2,644(sp)
   c41e8:	d8c09e15 	stw	r3,632(sp)
   c41ec:	050000c4 	movi	r20,3
   c41f0:	003df506 	br	c39c8 <_gp+0xfffdf1e8>
   c41f4:	014000c4 	movi	r5,3
   c41f8:	a1416726 	beq	r20,r5,c4798 <__ssvfscanf_r+0x1208>
   c41fc:	01000104 	movi	r4,4
   c4200:	a101491e 	bne	r20,r4,c4728 <__ssvfscanf_r+0x1198>
   c4204:	b809883a 	mov	r4,r23
   c4208:	00c9f400 	call	c9f40 <_localeconv_r>
   c420c:	10800017 	ldw	r2,0(r2)
   c4210:	e0ffffc4 	addi	r3,fp,-1
   c4214:	d880a315 	stw	r2,652(sp)
   c4218:	00805704 	movi	r2,348
   c421c:	10c21e2e 	bgeu	r2,r3,c4a98 <__ssvfscanf_r+0x1508>
   c4220:	e73fa8c4 	addi	fp,fp,-349
   c4224:	df00a215 	stw	fp,648(sp)
   c4228:	07005744 	movi	fp,349
   c422c:	8d01e014 	ori	r20,r17,1920
   c4230:	0023883a 	mov	r17,zero
   c4234:	dc000104 	addi	r16,sp,4
   c4238:	002b883a 	mov	r21,zero
   c423c:	8805883a 	mov	r2,r17
   c4240:	0007883a 	mov	r3,zero
   c4244:	8023883a 	mov	r17,r16
   c4248:	b80d883a 	mov	r6,r23
   c424c:	e021883a 	mov	r16,fp
   c4250:	a82f883a 	mov	r23,r21
   c4254:	d800a515 	stw	zero,660(sp)
   c4258:	d800a415 	stw	zero,656(sp)
   c425c:	d8009f15 	stw	zero,636(sp)
   c4260:	01c01384 	movi	r7,78
   c4264:	182b883a 	mov	r21,r3
   c4268:	1039883a 	mov	fp,r2
   c426c:	99000017 	ldw	r4,0(r19)
   c4270:	21400003 	ldbu	r5,0(r4)
   c4274:	28bff544 	addi	r2,r5,-43
   c4278:	10803fcc 	andi	r2,r2,255
   c427c:	38810e36 	bltu	r7,r2,c46b8 <__ssvfscanf_r+0x1128>
   c4280:	100490ba 	slli	r2,r2,2
   c4284:	00c00334 	movhi	r3,12
   c4288:	18d0a604 	addi	r3,r3,17048
   c428c:	10c5883a 	add	r2,r2,r3
   c4290:	10800017 	ldw	r2,0(r2)
   c4294:	1000683a 	jmp	r2
   c4298:	000c458c 	andi	zero,zero,12566
   c429c:	000c46b8 	rdprs	zero,zero,12570
   c42a0:	000c458c 	andi	zero,zero,12566
   c42a4:	000c46b8 	rdprs	zero,zero,12570
   c42a8:	000c46b8 	rdprs	zero,zero,12570
   c42ac:	000c4560 	cmpeqi	zero,zero,12565
   c42b0:	000c43d4 	movui	zero,12559
   c42b4:	000c43d4 	movui	zero,12559
   c42b8:	000c43d4 	movui	zero,12559
   c42bc:	000c43d4 	movui	zero,12559
   c42c0:	000c43d4 	movui	zero,12559
   c42c4:	000c43d4 	movui	zero,12559
   c42c8:	000c43d4 	movui	zero,12559
   c42cc:	000c43d4 	movui	zero,12559
   c42d0:	000c43d4 	movui	zero,12559
   c42d4:	000c46b8 	rdprs	zero,zero,12570
   c42d8:	000c46b8 	rdprs	zero,zero,12570
   c42dc:	000c46b8 	rdprs	zero,zero,12570
   c42e0:	000c46b8 	rdprs	zero,zero,12570
   c42e4:	000c46b8 	rdprs	zero,zero,12570
   c42e8:	000c46b8 	rdprs	zero,zero,12570
   c42ec:	000c46b8 	rdprs	zero,zero,12570
   c42f0:	000c46a8 	cmpgeui	zero,zero,12570
   c42f4:	000c46b8 	rdprs	zero,zero,12570
   c42f8:	000c46b8 	rdprs	zero,zero,12570
   c42fc:	000c46b8 	rdprs	zero,zero,12570
   c4300:	000c4664 	muli	zero,zero,12569
   c4304:	000c4648 	cmpgei	zero,zero,12569
   c4308:	000c46b8 	rdprs	zero,zero,12570
   c430c:	000c46b8 	rdprs	zero,zero,12570
   c4310:	000c4610 	cmplti	zero,zero,12568
   c4314:	000c46b8 	rdprs	zero,zero,12570
   c4318:	000c46b8 	rdprs	zero,zero,12570
   c431c:	000c46b8 	rdprs	zero,zero,12570
   c4320:	000c46b8 	rdprs	zero,zero,12570
   c4324:	000c45d8 	cmpnei	zero,zero,12567
   c4328:	000c46b8 	rdprs	zero,zero,12570
   c432c:	000c46b8 	rdprs	zero,zero,12570
   c4330:	000c46b8 	rdprs	zero,zero,12570
   c4334:	000c46b8 	rdprs	zero,zero,12570
   c4338:	000c46b8 	rdprs	zero,zero,12570
   c433c:	000c45bc 	xorhi	zero,zero,12566
   c4340:	000c46b8 	rdprs	zero,zero,12570
   c4344:	000c46b8 	rdprs	zero,zero,12570
   c4348:	000c46b8 	rdprs	zero,zero,12570
   c434c:	000c46b8 	rdprs	zero,zero,12570
   c4350:	000c45a0 	cmpeqi	zero,zero,12566
   c4354:	000c46b8 	rdprs	zero,zero,12570
   c4358:	000c46b8 	rdprs	zero,zero,12570
   c435c:	000c46b8 	rdprs	zero,zero,12570
   c4360:	000c46b8 	rdprs	zero,zero,12570
   c4364:	000c46b8 	rdprs	zero,zero,12570
   c4368:	000c46b8 	rdprs	zero,zero,12570
   c436c:	000c46b8 	rdprs	zero,zero,12570
   c4370:	000c46a8 	cmpgeui	zero,zero,12570
   c4374:	000c46b8 	rdprs	zero,zero,12570
   c4378:	000c46b8 	rdprs	zero,zero,12570
   c437c:	000c46b8 	rdprs	zero,zero,12570
   c4380:	000c4664 	muli	zero,zero,12569
   c4384:	000c4648 	cmpgei	zero,zero,12569
   c4388:	000c46b8 	rdprs	zero,zero,12570
   c438c:	000c46b8 	rdprs	zero,zero,12570
   c4390:	000c4610 	cmplti	zero,zero,12568
   c4394:	000c46b8 	rdprs	zero,zero,12570
   c4398:	000c46b8 	rdprs	zero,zero,12570
   c439c:	000c46b8 	rdprs	zero,zero,12570
   c43a0:	000c46b8 	rdprs	zero,zero,12570
   c43a4:	000c45d8 	cmpnei	zero,zero,12567
   c43a8:	000c46b8 	rdprs	zero,zero,12570
   c43ac:	000c46b8 	rdprs	zero,zero,12570
   c43b0:	000c46b8 	rdprs	zero,zero,12570
   c43b4:	000c46b8 	rdprs	zero,zero,12570
   c43b8:	000c46b8 	rdprs	zero,zero,12570
   c43bc:	000c45bc 	xorhi	zero,zero,12566
   c43c0:	000c46b8 	rdprs	zero,zero,12570
   c43c4:	000c46b8 	rdprs	zero,zero,12570
   c43c8:	000c46b8 	rdprs	zero,zero,12570
   c43cc:	000c46b8 	rdprs	zero,zero,12570
   c43d0:	000c45a0 	cmpeqi	zero,zero,12566
   c43d4:	a8803fcc 	andi	r2,r21,255
   c43d8:	1080201c 	xori	r2,r2,128
   c43dc:	10bfe004 	addi	r2,r2,-128
   c43e0:	b885883a 	add	r2,r23,r2
   c43e4:	10000d1e 	bne	r2,zero,c441c <__ssvfscanf_r+0xe8c>
   c43e8:	00bf9fc4 	movi	r2,-385
   c43ec:	a0a8703a 	and	r20,r20,r2
   c43f0:	89400005 	stb	r5,0(r17)
   c43f4:	8c400044 	addi	r17,r17,1
   c43f8:	98800117 	ldw	r2,4(r19)
   c43fc:	843fffc4 	addi	r16,r16,-1
   c4400:	94800044 	addi	r18,r18,1
   c4404:	10bfffc4 	addi	r2,r2,-1
   c4408:	98800115 	stw	r2,4(r19)
   c440c:	0080b40e 	bge	zero,r2,c46e0 <__ssvfscanf_r+0x1150>
   c4410:	21000044 	addi	r4,r4,1
   c4414:	99000015 	stw	r4,0(r19)
   c4418:	803f941e 	bne	r16,zero,c426c <_gp+0xfffdfa8c>
   c441c:	8821883a 	mov	r16,r17
   c4420:	a807883a 	mov	r3,r21
   c4424:	e023883a 	mov	r17,fp
   c4428:	b82b883a 	mov	r21,r23
   c442c:	302f883a 	mov	r23,r6
   c4430:	e001961e 	bne	fp,zero,c4a8c <__ssvfscanf_r+0x14fc>
   c4434:	ab3fffc4 	addi	r12,r21,-1
   c4438:	00800044 	movi	r2,1
   c443c:	1302a22e 	bgeu	r2,r12,c4ec8 <__ssvfscanf_r+0x1938>
   c4440:	18803fcc 	andi	r2,r3,255
   c4444:	1080201c 	xori	r2,r2,128
   c4448:	10bfe004 	addi	r2,r2,-128
   c444c:	113fffc4 	addi	r4,r2,-1
   c4450:	01400184 	movi	r5,6
   c4454:	29001136 	bltu	r5,r4,c449c <__ssvfscanf_r+0xf0c>
   c4458:	01000084 	movi	r4,2
   c445c:	2082770e 	bge	r4,r2,c4e3c <__ssvfscanf_r+0x18ac>
   c4460:	054000c4 	movi	r21,3
   c4464:	1839883a 	mov	fp,r3
   c4468:	15400c26 	beq	r2,r21,c449c <__ssvfscanf_r+0xf0c>
   c446c:	9425c83a 	sub	r18,r18,r16
   c4470:	843fffc4 	addi	r16,r16,-1
   c4474:	81400007 	ldb	r5,0(r16)
   c4478:	980d883a 	mov	r6,r19
   c447c:	b809883a 	mov	r4,r23
   c4480:	00cff5c0 	call	cff5c <_sungetc_r>
   c4484:	e0bfffc4 	addi	r2,fp,-1
   c4488:	10c03fcc 	andi	r3,r2,255
   c448c:	8493883a 	add	r9,r16,r18
   c4490:	1039883a 	mov	fp,r2
   c4494:	a8fff636 	bltu	r21,r3,c4470 <_gp+0xfffdfc90>
   c4498:	4825883a 	mov	r18,r9
   c449c:	a080400c 	andi	r2,r20,256
   c44a0:	10001426 	beq	r2,zero,c44f4 <__ssvfscanf_r+0xf64>
   c44a4:	a081000c 	andi	r2,r20,1024
   c44a8:	10027b1e 	bne	r2,zero,c4e98 <__ssvfscanf_r+0x1908>
   c44ac:	817fffc7 	ldb	r5,-1(r16)
   c44b0:	00801944 	movi	r2,101
   c44b4:	873fffc4 	addi	fp,r16,-1
   c44b8:	957fffc4 	addi	r21,r18,-1
   c44bc:	28800826 	beq	r5,r2,c44e0 <__ssvfscanf_r+0xf50>
   c44c0:	00801144 	movi	r2,69
   c44c4:	28800626 	beq	r5,r2,c44e0 <__ssvfscanf_r+0xf50>
   c44c8:	980d883a 	mov	r6,r19
   c44cc:	b809883a 	mov	r4,r23
   c44d0:	00cff5c0 	call	cff5c <_sungetc_r>
   c44d4:	817fff87 	ldb	r5,-2(r16)
   c44d8:	873fff84 	addi	fp,r16,-2
   c44dc:	957fff84 	addi	r21,r18,-2
   c44e0:	980d883a 	mov	r6,r19
   c44e4:	b809883a 	mov	r4,r23
   c44e8:	00cff5c0 	call	cff5c <_sungetc_r>
   c44ec:	a825883a 	mov	r18,r21
   c44f0:	e021883a 	mov	r16,fp
   c44f4:	a080040c 	andi	r2,r20,16
   c44f8:	103e451e 	bne	r2,zero,c3e10 <_gp+0xfffdf630>
   c44fc:	80000005 	stb	zero,0(r16)
   c4500:	a081800c 	andi	r2,r20,1536
   c4504:	01010004 	movi	r4,1024
   c4508:	1101ea26 	beq	r2,r4,c4cb4 <__ssvfscanf_r+0x1724>
   c450c:	d8c0a417 	ldw	r3,656(sp)
   c4510:	1801f41e 	bne	r3,zero,c4ce4 <__ssvfscanf_r+0x1754>
   c4514:	000d883a 	mov	r6,zero
   c4518:	d9400104 	addi	r5,sp,4
   c451c:	b809883a 	mov	r4,r23
   c4520:	00cc7c40 	call	cc7c4 <_strtod_r>
   c4524:	1021883a 	mov	r16,r2
   c4528:	a080004c 	andi	r2,r20,1
   c452c:	1001b926 	beq	r2,zero,c4c14 <__ssvfscanf_r+0x1684>
   c4530:	d9009c17 	ldw	r4,624(sp)
   c4534:	20800017 	ldw	r2,0(r4)
   c4538:	21000104 	addi	r4,r4,4
   c453c:	d9009c15 	stw	r4,624(sp)
   c4540:	14000015 	stw	r16,0(r2)
   c4544:	10c00115 	stw	r3,4(r2)
   c4548:	d8c0a017 	ldw	r3,640(sp)
   c454c:	dd009d17 	ldw	r20,628(sp)
   c4550:	18c00044 	addi	r3,r3,1
   c4554:	d8c0a015 	stw	r3,640(sp)
   c4558:	a00d883a 	mov	r6,r20
   c455c:	003c4906 	br	c3684 <_gp+0xfffdeea4>
   c4560:	a080400c 	andi	r2,r20,256
   c4564:	103f9b26 	beq	r2,zero,c43d4 <_gp+0xfffdfbf4>
   c4568:	d8c0a217 	ldw	r3,648(sp)
   c456c:	00bfdfc4 	movi	r2,-129
   c4570:	a0a8703a 	and	r20,r20,r2
   c4574:	e7000044 	addi	fp,fp,1
   c4578:	183f9f26 	beq	r3,zero,c43f8 <_gp+0xfffdfc18>
   c457c:	18ffffc4 	addi	r3,r3,-1
   c4580:	d8c0a215 	stw	r3,648(sp)
   c4584:	84000044 	addi	r16,r16,1
   c4588:	003f9b06 	br	c43f8 <_gp+0xfffdfc18>
   c458c:	a080200c 	andi	r2,r20,128
   c4590:	103fa226 	beq	r2,zero,c441c <_gp+0xfffdfc3c>
   c4594:	00bfdfc4 	movi	r2,-129
   c4598:	a0a8703a 	and	r20,r20,r2
   c459c:	003f9406 	br	c43f0 <_gp+0xfffdfc10>
   c45a0:	a8803fcc 	andi	r2,r21,255
   c45a4:	1080201c 	xori	r2,r2,128
   c45a8:	10bfe004 	addi	r2,r2,-128
   c45ac:	00c001c4 	movi	r3,7
   c45b0:	10ff9a1e 	bne	r2,r3,c441c <_gp+0xfffdfc3c>
   c45b4:	05400204 	movi	r21,8
   c45b8:	003f8d06 	br	c43f0 <_gp+0xfffdfc10>
   c45bc:	a8803fcc 	andi	r2,r21,255
   c45c0:	1080201c 	xori	r2,r2,128
   c45c4:	10bfe004 	addi	r2,r2,-128
   c45c8:	02000184 	movi	r8,6
   c45cc:	123f931e 	bne	r2,r8,c441c <_gp+0xfffdfc3c>
   c45d0:	054001c4 	movi	r21,7
   c45d4:	003f8606 	br	c43f0 <_gp+0xfffdfc10>
   c45d8:	b8004f1e 	bne	r23,zero,c4718 <__ssvfscanf_r+0x1188>
   c45dc:	e000031e 	bne	fp,zero,c45ec <__ssvfscanf_r+0x105c>
   c45e0:	a081c00c 	andi	r2,r20,1792
   c45e4:	0201c004 	movi	r8,1792
   c45e8:	1201a226 	beq	r2,r8,c4c74 <__ssvfscanf_r+0x16e4>
   c45ec:	a8803fcc 	andi	r2,r21,255
   c45f0:	1080201c 	xori	r2,r2,128
   c45f4:	10bfe004 	addi	r2,r2,-128
   c45f8:	02000044 	movi	r8,1
   c45fc:	12000226 	beq	r2,r8,c4608 <__ssvfscanf_r+0x1078>
   c4600:	02000104 	movi	r8,4
   c4604:	123f851e 	bne	r2,r8,c441c <_gp+0xfffdfc3c>
   c4608:	ad400044 	addi	r21,r21,1
   c460c:	003f7806 	br	c43f0 <_gp+0xfffdfc10>
   c4610:	a8803fcc 	andi	r2,r21,255
   c4614:	1080201c 	xori	r2,r2,128
   c4618:	10bfe004 	addi	r2,r2,-128
   c461c:	1000391e 	bne	r2,zero,c4704 <__ssvfscanf_r+0x1174>
   c4620:	e001151e 	bne	fp,zero,c4a78 <__ssvfscanf_r+0x14e8>
   c4624:	a081c00c 	andi	r2,r20,1792
   c4628:	0201c004 	movi	r8,1792
   c462c:	12019b26 	beq	r2,r8,c4c9c <__ssvfscanf_r+0x170c>
   c4630:	8821883a 	mov	r16,r17
   c4634:	a807883a 	mov	r3,r21
   c4638:	e023883a 	mov	r17,fp
   c463c:	b82b883a 	mov	r21,r23
   c4640:	302f883a 	mov	r23,r6
   c4644:	003f7b06 	br	c4434 <_gp+0xfffdfc54>
   c4648:	a8803fcc 	andi	r2,r21,255
   c464c:	1080201c 	xori	r2,r2,128
   c4650:	10bfe004 	addi	r2,r2,-128
   c4654:	02000084 	movi	r8,2
   c4658:	123f701e 	bne	r2,r8,c441c <_gp+0xfffdfc3c>
   c465c:	054000c4 	movi	r21,3
   c4660:	003f6306 	br	c43f0 <_gp+0xfffdfc10>
   c4664:	a081400c 	andi	r2,r20,1280
   c4668:	00c10004 	movi	r3,1024
   c466c:	10c00326 	beq	r2,r3,c467c <__ssvfscanf_r+0x10ec>
   c4670:	a0c4703a 	and	r2,r20,r3
   c4674:	103f6926 	beq	r2,zero,c441c <_gp+0xfffdfc3c>
   c4678:	e03fed26 	beq	fp,zero,c4630 <_gp+0xfffdfe50>
   c467c:	a080800c 	andi	r2,r20,512
   c4680:	1000041e 	bne	r2,zero,c4694 <__ssvfscanf_r+0x1104>
   c4684:	d8c09f17 	ldw	r3,636(sp)
   c4688:	dc40a515 	stw	r17,660(sp)
   c468c:	e0f9c83a 	sub	fp,fp,r3
   c4690:	df00a415 	stw	fp,656(sp)
   c4694:	00be1fc4 	movi	r2,-1921
   c4698:	a0a8703a 	and	r20,r20,r2
   c469c:	a5006014 	ori	r20,r20,384
   c46a0:	0039883a 	mov	fp,zero
   c46a4:	003f5206 	br	c43f0 <_gp+0xfffdfc10>
   c46a8:	00800044 	movi	r2,1
   c46ac:	b8bf5b1e 	bne	r23,r2,c441c <_gp+0xfffdfc3c>
   c46b0:	05c00084 	movi	r23,2
   c46b4:	003f4e06 	br	c43f0 <_gp+0xfffdfc10>
   c46b8:	d8c0a317 	ldw	r3,652(sp)
   c46bc:	2a003fcc 	andi	r8,r5,255
   c46c0:	18800003 	ldbu	r2,0(r3)
   c46c4:	40bf551e 	bne	r8,r2,c441c <_gp+0xfffdfc3c>
   c46c8:	a080800c 	andi	r2,r20,512
   c46cc:	103f5326 	beq	r2,zero,c441c <_gp+0xfffdfc3c>
   c46d0:	00bf5fc4 	movi	r2,-641
   c46d4:	a0a8703a 	and	r20,r20,r2
   c46d8:	df009f15 	stw	fp,636(sp)
   c46dc:	003f4406 	br	c43f0 <_gp+0xfffdfc10>
   c46e0:	3009883a 	mov	r4,r6
   c46e4:	980b883a 	mov	r5,r19
   c46e8:	d980a915 	stw	r6,676(sp)
   c46ec:	d9c0aa15 	stw	r7,680(sp)
   c46f0:	00d00640 	call	d0064 <__ssrefill_r>
   c46f4:	d980a917 	ldw	r6,676(sp)
   c46f8:	d9c0aa17 	ldw	r7,680(sp)
   c46fc:	103f4626 	beq	r2,zero,c4418 <_gp+0xfffdfc38>
   c4700:	003f4606 	br	c441c <_gp+0xfffdfc3c>
   c4704:	020000c4 	movi	r8,3
   c4708:	123fbf26 	beq	r2,r8,c4608 <_gp+0xfffdfe28>
   c470c:	02000144 	movi	r8,5
   c4710:	123fbd26 	beq	r2,r8,c4608 <_gp+0xfffdfe28>
   c4714:	003f4106 	br	c441c <_gp+0xfffdfc3c>
   c4718:	00800084 	movi	r2,2
   c471c:	b8bfb31e 	bne	r23,r2,c45ec <_gp+0xfffdfe0c>
   c4720:	05c000c4 	movi	r23,3
   c4724:	003f3206 	br	c43f0 <_gp+0xfffdfc10>
   c4728:	e000011e 	bne	fp,zero,c4730 <__ssvfscanf_r+0x11a0>
   c472c:	073fffc4 	movi	fp,-1
   c4730:	8900004c 	andi	r4,r17,1
   c4734:	20011d1e 	bne	r4,zero,c4bac <__ssvfscanf_r+0x161c>
   c4738:	8c40040c 	andi	r17,r17,16
   c473c:	8800da26 	beq	r17,zero,c4aa8 <__ssvfscanf_r+0x1518>
   c4740:	0023883a 	mov	r17,zero
   c4744:	00000306 	br	c4754 <__ssvfscanf_r+0x11c4>
   c4748:	18800003 	ldbu	r2,0(r3)
   c474c:	8085883a 	add	r2,r16,r2
   c4750:	10800043 	ldbu	r2,1(r2)
   c4754:	1080020c 	andi	r2,r2,8
   c4758:	1000fc1e 	bne	r2,zero,c4b4c <__ssvfscanf_r+0x15bc>
   c475c:	98800117 	ldw	r2,4(r19)
   c4760:	18c00044 	addi	r3,r3,1
   c4764:	8c400044 	addi	r17,r17,1
   c4768:	10bfffc4 	addi	r2,r2,-1
   c476c:	98800115 	stw	r2,4(r19)
   c4770:	98c00015 	stw	r3,0(r19)
   c4774:	8f00f526 	beq	r17,fp,c4b4c <__ssvfscanf_r+0x15bc>
   c4778:	00bff316 	blt	zero,r2,c4748 <_gp+0xfffdff68>
   c477c:	980b883a 	mov	r5,r19
   c4780:	b809883a 	mov	r4,r23
   c4784:	00d00640 	call	d0064 <__ssrefill_r>
   c4788:	1000f01e 	bne	r2,zero,c4b4c <__ssvfscanf_r+0x15bc>
   c478c:	b4000017 	ldw	r16,0(r22)
   c4790:	98c00017 	ldw	r3,0(r19)
   c4794:	003fec06 	br	c4748 <_gp+0xfffdff68>
   c4798:	e0bfffc4 	addi	r2,fp,-1
   c479c:	01405704 	movi	r5,348
   c47a0:	2880bf2e 	bgeu	r5,r2,c4aa0 <__ssvfscanf_r+0x1510>
   c47a4:	e1ffa8c4 	addi	r7,fp,-349
   c47a8:	07005744 	movi	fp,349
   c47ac:	8c436014 	ori	r17,r17,3456
   c47b0:	9013883a 	mov	r9,r18
   c47b4:	8825883a 	mov	r18,r17
   c47b8:	dc409e17 	ldw	r17,632(sp)
   c47bc:	0029883a 	mov	r20,zero
   c47c0:	dc000104 	addi	r16,sp,4
   c47c4:	05401344 	movi	r21,77
   c47c8:	02c08004 	movi	r11,512
   c47cc:	01bf7fc4 	movi	r6,-513
   c47d0:	023fdfc4 	movi	r8,-129
   c47d4:	20bff544 	addi	r2,r4,-43
   c47d8:	10803fcc 	andi	r2,r2,255
   c47dc:	a8807236 	bltu	r21,r2,c49a8 <__ssvfscanf_r+0x1418>
   c47e0:	100490ba 	slli	r2,r2,2
   c47e4:	01400334 	movhi	r5,12
   c47e8:	2951fe04 	addi	r5,r5,18424
   c47ec:	1145883a 	add	r2,r2,r5
   c47f0:	10800017 	ldw	r2,0(r2)
   c47f4:	1000683a 	jmp	r2
   c47f8:	000c4a2c 	andhi	zero,zero,12584
   c47fc:	000c49a8 	cmpgeui	zero,zero,12582
   c4800:	000c4a2c 	andhi	zero,zero,12584
   c4804:	000c49a8 	cmpgeui	zero,zero,12582
   c4808:	000c49a8 	cmpgeui	zero,zero,12582
   c480c:	000c4a04 	movi	zero,12584
   c4810:	000c49e4 	muli	zero,zero,12583
   c4814:	000c49e4 	muli	zero,zero,12583
   c4818:	000c49e4 	muli	zero,zero,12583
   c481c:	000c49e4 	muli	zero,zero,12583
   c4820:	000c49e4 	muli	zero,zero,12583
   c4824:	000c49e4 	muli	zero,zero,12583
   c4828:	000c49e4 	muli	zero,zero,12583
   c482c:	000c498c 	andi	zero,zero,12582
   c4830:	000c498c 	andi	zero,zero,12582
   c4834:	000c49a8 	cmpgeui	zero,zero,12582
   c4838:	000c49a8 	cmpgeui	zero,zero,12582
   c483c:	000c49a8 	cmpgeui	zero,zero,12582
   c4840:	000c49a8 	cmpgeui	zero,zero,12582
   c4844:	000c49a8 	cmpgeui	zero,zero,12582
   c4848:	000c49a8 	cmpgeui	zero,zero,12582
   c484c:	000c49a8 	cmpgeui	zero,zero,12582
   c4850:	000c4978 	rdprs	zero,zero,12581
   c4854:	000c4978 	rdprs	zero,zero,12581
   c4858:	000c4978 	rdprs	zero,zero,12581
   c485c:	000c4978 	rdprs	zero,zero,12581
   c4860:	000c4978 	rdprs	zero,zero,12581
   c4864:	000c4978 	rdprs	zero,zero,12581
   c4868:	000c49a8 	cmpgeui	zero,zero,12582
   c486c:	000c49a8 	cmpgeui	zero,zero,12582
   c4870:	000c49a8 	cmpgeui	zero,zero,12582
   c4874:	000c49a8 	cmpgeui	zero,zero,12582
   c4878:	000c49a8 	cmpgeui	zero,zero,12582
   c487c:	000c49a8 	cmpgeui	zero,zero,12582
   c4880:	000c49a8 	cmpgeui	zero,zero,12582
   c4884:	000c49a8 	cmpgeui	zero,zero,12582
   c4888:	000c49a8 	cmpgeui	zero,zero,12582
   c488c:	000c49a8 	cmpgeui	zero,zero,12582
   c4890:	000c49a8 	cmpgeui	zero,zero,12582
   c4894:	000c49a8 	cmpgeui	zero,zero,12582
   c4898:	000c49a8 	cmpgeui	zero,zero,12582
   c489c:	000c49a8 	cmpgeui	zero,zero,12582
   c48a0:	000c49a8 	cmpgeui	zero,zero,12582
   c48a4:	000c49a8 	cmpgeui	zero,zero,12582
   c48a8:	000c49a8 	cmpgeui	zero,zero,12582
   c48ac:	000c4930 	cmpltui	zero,zero,12580
   c48b0:	000c49a8 	cmpgeui	zero,zero,12582
   c48b4:	000c49a8 	cmpgeui	zero,zero,12582
   c48b8:	000c49a8 	cmpgeui	zero,zero,12582
   c48bc:	000c49a8 	cmpgeui	zero,zero,12582
   c48c0:	000c49a8 	cmpgeui	zero,zero,12582
   c48c4:	000c49a8 	cmpgeui	zero,zero,12582
   c48c8:	000c49a8 	cmpgeui	zero,zero,12582
   c48cc:	000c49a8 	cmpgeui	zero,zero,12582
   c48d0:	000c4978 	rdprs	zero,zero,12581
   c48d4:	000c4978 	rdprs	zero,zero,12581
   c48d8:	000c4978 	rdprs	zero,zero,12581
   c48dc:	000c4978 	rdprs	zero,zero,12581
   c48e0:	000c4978 	rdprs	zero,zero,12581
   c48e4:	000c4978 	rdprs	zero,zero,12581
   c48e8:	000c49a8 	cmpgeui	zero,zero,12582
   c48ec:	000c49a8 	cmpgeui	zero,zero,12582
   c48f0:	000c49a8 	cmpgeui	zero,zero,12582
   c48f4:	000c49a8 	cmpgeui	zero,zero,12582
   c48f8:	000c49a8 	cmpgeui	zero,zero,12582
   c48fc:	000c49a8 	cmpgeui	zero,zero,12582
   c4900:	000c49a8 	cmpgeui	zero,zero,12582
   c4904:	000c49a8 	cmpgeui	zero,zero,12582
   c4908:	000c49a8 	cmpgeui	zero,zero,12582
   c490c:	000c49a8 	cmpgeui	zero,zero,12582
   c4910:	000c49a8 	cmpgeui	zero,zero,12582
   c4914:	000c49a8 	cmpgeui	zero,zero,12582
   c4918:	000c49a8 	cmpgeui	zero,zero,12582
   c491c:	000c49a8 	cmpgeui	zero,zero,12582
   c4920:	000c49a8 	cmpgeui	zero,zero,12582
   c4924:	000c49a8 	cmpgeui	zero,zero,12582
   c4928:	000c49a8 	cmpgeui	zero,zero,12582
   c492c:	000c4930 	cmpltui	zero,zero,12580
   c4930:	9081800c 	andi	r2,r18,1536
   c4934:	12c01c1e 	bne	r2,r11,c49a8 <__ssvfscanf_r+0x1418>
   c4938:	91a4703a 	and	r18,r18,r6
   c493c:	94814014 	ori	r18,r18,1280
   c4940:	04400404 	movi	r17,16
   c4944:	81000005 	stb	r4,0(r16)
   c4948:	84000044 	addi	r16,r16,1
   c494c:	98800117 	ldw	r2,4(r19)
   c4950:	10bfffc4 	addi	r2,r2,-1
   c4954:	98800115 	stw	r2,4(r19)
   c4958:	0080380e 	bge	zero,r2,c4a3c <__ssvfscanf_r+0x14ac>
   c495c:	18c00044 	addi	r3,r3,1
   c4960:	98c00015 	stw	r3,0(r19)
   c4964:	e73fffc4 	addi	fp,fp,-1
   c4968:	e0000f26 	beq	fp,zero,c49a8 <__ssvfscanf_r+0x1418>
   c496c:	98c00017 	ldw	r3,0(r19)
   c4970:	19000003 	ldbu	r4,0(r3)
   c4974:	003f9706 	br	c47d4 <_gp+0xfffdfff4>
   c4978:	00800284 	movi	r2,10
   c497c:	14400a0e 	bge	r2,r17,c49a8 <__ssvfscanf_r+0x1418>
   c4980:	00bd1fc4 	movi	r2,-2945
   c4984:	90a4703a 	and	r18,r18,r2
   c4988:	003fee06 	br	c4944 <_gp+0xfffe0164>
   c498c:	014003b4 	movhi	r5,14
   c4990:	8c63883a 	add	r17,r17,r17
   c4994:	29698c84 	addi	r5,r5,-22990
   c4998:	2c45883a 	add	r2,r5,r17
   c499c:	1440000f 	ldh	r17,0(r2)
   c49a0:	00800204 	movi	r2,8
   c49a4:	147ff616 	blt	r2,r17,c4980 <_gp+0xfffe01a0>
   c49a8:	dc409e15 	stw	r17,632(sp)
   c49ac:	9023883a 	mov	r17,r18
   c49b0:	8880400c 	andi	r2,r17,256
   c49b4:	4825883a 	mov	r18,r9
   c49b8:	10000426 	beq	r2,zero,c49cc <__ssvfscanf_r+0x143c>
   c49bc:	d8800104 	addi	r2,sp,4
   c49c0:	1400b036 	bltu	r2,r16,c4c84 <__ssvfscanf_r+0x16f4>
   c49c4:	d8c00104 	addi	r3,sp,4
   c49c8:	1c3b3226 	beq	r3,r16,c3694 <_gp+0xfffdeeb4>
   c49cc:	8880040c 	andi	r2,r17,16
   c49d0:	10006226 	beq	r2,zero,c4b5c <__ssvfscanf_r+0x15cc>
   c49d4:	d8800104 	addi	r2,sp,4
   c49d8:	80a1c83a 	sub	r16,r16,r2
   c49dc:	8521883a 	add	r16,r16,r20
   c49e0:	003ca506 	br	c3c78 <_gp+0xfffdf498>
   c49e4:	014003b4 	movhi	r5,14
   c49e8:	8c63883a 	add	r17,r17,r17
   c49ec:	29698c84 	addi	r5,r5,-22990
   c49f0:	2c45883a 	add	r2,r5,r17
   c49f4:	1440000f 	ldh	r17,0(r2)
   c49f8:	00bd1fc4 	movi	r2,-2945
   c49fc:	90a4703a 	and	r18,r18,r2
   c4a00:	003fd006 	br	c4944 <_gp+0xfffe0164>
   c4a04:	9082000c 	andi	r2,r18,2048
   c4a08:	103fce26 	beq	r2,zero,c4944 <_gp+0xfffe0164>
   c4a0c:	8800021e 	bne	r17,zero,c4a18 <__ssvfscanf_r+0x1488>
   c4a10:	94808014 	ori	r18,r18,512
   c4a14:	04400204 	movi	r17,8
   c4a18:	9081000c 	andi	r2,r18,1024
   c4a1c:	10008626 	beq	r2,zero,c4c38 <__ssvfscanf_r+0x16a8>
   c4a20:	00be9fc4 	movi	r2,-1409
   c4a24:	90a4703a 	and	r18,r18,r2
   c4a28:	003fc606 	br	c4944 <_gp+0xfffe0164>
   c4a2c:	9080200c 	andi	r2,r18,128
   c4a30:	103fdd26 	beq	r2,zero,c49a8 <_gp+0xfffe01c8>
   c4a34:	9224703a 	and	r18,r18,r8
   c4a38:	003fc206 	br	c4944 <_gp+0xfffe0164>
   c4a3c:	980b883a 	mov	r5,r19
   c4a40:	b809883a 	mov	r4,r23
   c4a44:	d980a915 	stw	r6,676(sp)
   c4a48:	d9c0aa15 	stw	r7,680(sp)
   c4a4c:	da00a715 	stw	r8,668(sp)
   c4a50:	da40a815 	stw	r9,672(sp)
   c4a54:	dac0a615 	stw	r11,664(sp)
   c4a58:	00d00640 	call	d0064 <__ssrefill_r>
   c4a5c:	d980a917 	ldw	r6,676(sp)
   c4a60:	d9c0aa17 	ldw	r7,680(sp)
   c4a64:	da00a717 	ldw	r8,668(sp)
   c4a68:	da40a817 	ldw	r9,672(sp)
   c4a6c:	dac0a617 	ldw	r11,664(sp)
   c4a70:	103fbc26 	beq	r2,zero,c4964 <_gp+0xfffe0184>
   c4a74:	003fcc06 	br	c49a8 <_gp+0xfffe01c8>
   c4a78:	8821883a 	mov	r16,r17
   c4a7c:	a807883a 	mov	r3,r21
   c4a80:	e023883a 	mov	r17,fp
   c4a84:	b82b883a 	mov	r21,r23
   c4a88:	302f883a 	mov	r23,r6
   c4a8c:	00bfbfc4 	movi	r2,-257
   c4a90:	a0a8703a 	and	r20,r20,r2
   c4a94:	003e6706 	br	c4434 <_gp+0xfffdfc54>
   c4a98:	d800a215 	stw	zero,648(sp)
   c4a9c:	003de306 	br	c422c <_gp+0xfffdfa4c>
   c4aa0:	000f883a 	mov	r7,zero
   c4aa4:	003f4106 	br	c47ac <_gp+0xfffdffcc>
   c4aa8:	d9409c17 	ldw	r5,624(sp)
   c4aac:	e2bfffc4 	addi	r10,fp,-1
   c4ab0:	2c400017 	ldw	r17,0(r5)
   c4ab4:	2c000104 	addi	r16,r5,4
   c4ab8:	8aa9883a 	add	r20,r17,r10
   c4abc:	880b883a 	mov	r5,r17
   c4ac0:	00000606 	br	c4adc <__ssvfscanf_r+0x154c>
   c4ac4:	98c00017 	ldw	r3,0(r19)
   c4ac8:	b1000017 	ldw	r4,0(r22)
   c4acc:	a80b883a 	mov	r5,r21
   c4ad0:	18800003 	ldbu	r2,0(r3)
   c4ad4:	2085883a 	add	r2,r4,r2
   c4ad8:	10800043 	ldbu	r2,1(r2)
   c4adc:	1080020c 	andi	r2,r2,8
   c4ae0:	1000621e 	bne	r2,zero,c4c6c <__ssvfscanf_r+0x16dc>
   c4ae4:	98800117 	ldw	r2,4(r19)
   c4ae8:	19000044 	addi	r4,r3,1
   c4aec:	99000015 	stw	r4,0(r19)
   c4af0:	10bfffc4 	addi	r2,r2,-1
   c4af4:	98800115 	stw	r2,4(r19)
   c4af8:	18800003 	ldbu	r2,0(r3)
   c4afc:	2d400044 	addi	r21,r5,1
   c4b00:	a839883a 	mov	fp,r21
   c4b04:	28800005 	stb	r2,0(r5)
   c4b08:	2d000626 	beq	r5,r20,c4b24 <__ssvfscanf_r+0x1594>
   c4b0c:	98800117 	ldw	r2,4(r19)
   c4b10:	00bfec16 	blt	zero,r2,c4ac4 <_gp+0xfffe02e4>
   c4b14:	980b883a 	mov	r5,r19
   c4b18:	b809883a 	mov	r4,r23
   c4b1c:	00d00640 	call	d0064 <__ssrefill_r>
   c4b20:	103fe826 	beq	r2,zero,c4ac4 <_gp+0xfffe02e4>
   c4b24:	d880a017 	ldw	r2,640(sp)
   c4b28:	dd009d17 	ldw	r20,628(sp)
   c4b2c:	e463c83a 	sub	r17,fp,r17
   c4b30:	10800044 	addi	r2,r2,1
   c4b34:	e0000005 	stb	zero,0(fp)
   c4b38:	9465883a 	add	r18,r18,r17
   c4b3c:	d880a015 	stw	r2,640(sp)
   c4b40:	dc009c15 	stw	r16,624(sp)
   c4b44:	a00d883a 	mov	r6,r20
   c4b48:	003ace06 	br	c3684 <_gp+0xfffdeea4>
   c4b4c:	dd009d17 	ldw	r20,628(sp)
   c4b50:	9465883a 	add	r18,r18,r17
   c4b54:	a00d883a 	mov	r6,r20
   c4b58:	003aca06 	br	c3684 <_gp+0xfffdeea4>
   c4b5c:	d8c0a117 	ldw	r3,644(sp)
   c4b60:	d9c09e17 	ldw	r7,632(sp)
   c4b64:	000d883a 	mov	r6,zero
   c4b68:	d9400104 	addi	r5,sp,4
   c4b6c:	b809883a 	mov	r4,r23
   c4b70:	80000005 	stb	zero,0(r16)
   c4b74:	183ee83a 	callr	r3
   c4b78:	88c0080c 	andi	r3,r17,32
   c4b7c:	1800351e 	bne	r3,zero,c4c54 <__ssvfscanf_r+0x16c4>
   c4b80:	88c0010c 	andi	r3,r17,4
   c4b84:	18007026 	beq	r3,zero,c4d48 <__ssvfscanf_r+0x17b8>
   c4b88:	d9409c17 	ldw	r5,624(sp)
   c4b8c:	28c00017 	ldw	r3,0(r5)
   c4b90:	29400104 	addi	r5,r5,4
   c4b94:	d9409c15 	stw	r5,624(sp)
   c4b98:	1880000d 	sth	r2,0(r3)
   c4b9c:	d940a017 	ldw	r5,640(sp)
   c4ba0:	29400044 	addi	r5,r5,1
   c4ba4:	d940a015 	stw	r5,640(sp)
   c4ba8:	003f8a06 	br	c49d4 <_gp+0xfffe01f4>
   c4bac:	dd409904 	addi	r21,sp,612
   c4bb0:	8c40040c 	andi	r17,r17,16
   c4bb4:	01800204 	movi	r6,8
   c4bb8:	000b883a 	mov	r5,zero
   c4bbc:	a809883a 	mov	r4,r21
   c4bc0:	00c0a000 	call	c0a00 <memset>
   c4bc4:	8800391e 	bne	r17,zero,c4cac <__ssvfscanf_r+0x171c>
   c4bc8:	d8c09c17 	ldw	r3,624(sp)
   c4bcc:	1d000017 	ldw	r20,0(r3)
   c4bd0:	18c00104 	addi	r3,r3,4
   c4bd4:	d8c09c15 	stw	r3,624(sp)
   c4bd8:	000d883a 	mov	r6,zero
   c4bdc:	3021883a 	mov	r16,r6
   c4be0:	dc409f15 	stw	r17,636(sp)
   c4be4:	98800017 	ldw	r2,0(r19)
   c4be8:	b0c00017 	ldw	r3,0(r22)
   c4bec:	10800003 	ldbu	r2,0(r2)
   c4bf0:	1885883a 	add	r2,r3,r2
   c4bf4:	10800043 	ldbu	r2,1(r2)
   c4bf8:	1080020c 	andi	r2,r2,8
   c4bfc:	1000011e 	bne	r2,zero,c4c04 <__ssvfscanf_r+0x1674>
   c4c00:	e000651e 	bne	fp,zero,c4d98 <__ssvfscanf_r+0x1808>
   c4c04:	dc409f17 	ldw	r17,636(sp)
   c4c08:	883c811e 	bne	r17,zero,c3e10 <_gp+0xfffdf630>
   c4c0c:	a0000015 	stw	zero,0(r20)
   c4c10:	003c7c06 	br	c3e04 <_gp+0xfffdf624>
   c4c14:	a2c0008c 	andi	r11,r20,2
   c4c18:	58003c26 	beq	r11,zero,c4d0c <__ssvfscanf_r+0x177c>
   c4c1c:	d9409c17 	ldw	r5,624(sp)
   c4c20:	28800017 	ldw	r2,0(r5)
   c4c24:	29400104 	addi	r5,r5,4
   c4c28:	d9409c15 	stw	r5,624(sp)
   c4c2c:	14000015 	stw	r16,0(r2)
   c4c30:	10c00115 	stw	r3,4(r2)
   c4c34:	003e4406 	br	c4548 <_gp+0xfffdfd68>
   c4c38:	00bf1fc4 	movi	r2,-897
   c4c3c:	90a4703a 	and	r18,r18,r2
   c4c40:	38000226 	beq	r7,zero,c4c4c <__ssvfscanf_r+0x16bc>
   c4c44:	39ffffc4 	addi	r7,r7,-1
   c4c48:	e7000044 	addi	fp,fp,1
   c4c4c:	a5000044 	addi	r20,r20,1
   c4c50:	003f3e06 	br	c494c <_gp+0xfffe016c>
   c4c54:	d9009c17 	ldw	r4,624(sp)
   c4c58:	20c00017 	ldw	r3,0(r4)
   c4c5c:	21000104 	addi	r4,r4,4
   c4c60:	d9009c15 	stw	r4,624(sp)
   c4c64:	18800015 	stw	r2,0(r3)
   c4c68:	003fcc06 	br	c4b9c <_gp+0xfffe03bc>
   c4c6c:	2839883a 	mov	fp,r5
   c4c70:	003fac06 	br	c4b24 <_gp+0xfffe0344>
   c4c74:	00be1fc4 	movi	r2,-1921
   c4c78:	a0a8703a 	and	r20,r20,r2
   c4c7c:	05c00044 	movi	r23,1
   c4c80:	003ddb06 	br	c43f0 <_gp+0xfffdfc10>
   c4c84:	817fffc7 	ldb	r5,-1(r16)
   c4c88:	980d883a 	mov	r6,r19
   c4c8c:	b809883a 	mov	r4,r23
   c4c90:	843fffc4 	addi	r16,r16,-1
   c4c94:	00cff5c0 	call	cff5c <_sungetc_r>
   c4c98:	003f4a06 	br	c49c4 <_gp+0xfffe01e4>
   c4c9c:	00fe1fc4 	movi	r3,-1921
   c4ca0:	a0e8703a 	and	r20,r20,r3
   c4ca4:	05400044 	movi	r21,1
   c4ca8:	003dd106 	br	c43f0 <_gp+0xfffdfc10>
   c4cac:	dd009b04 	addi	r20,sp,620
   c4cb0:	003fc906 	br	c4bd8 <_gp+0xfffe03f8>
   c4cb4:	d8c09f17 	ldw	r3,636(sp)
   c4cb8:	88e3c83a 	sub	r17,r17,r3
   c4cbc:	044dc83a 	sub	r6,zero,r17
   c4cc0:	883e1426 	beq	r17,zero,c4514 <_gp+0xfffdfd34>
   c4cc4:	d88055c4 	addi	r2,sp,343
   c4cc8:	80800136 	bltu	r16,r2,c4cd0 <__ssvfscanf_r+0x1740>
   c4ccc:	dc005584 	addi	r16,sp,342
   c4cd0:	014003b4 	movhi	r5,14
   c4cd4:	29698b04 	addi	r5,r5,-22996
   c4cd8:	8009883a 	mov	r4,r16
   c4cdc:	00c0cc00 	call	c0cc0 <sprintf>
   c4ce0:	003e0c06 	br	c4514 <_gp+0xfffdfd34>
   c4ce4:	d8c0a517 	ldw	r3,660(sp)
   c4ce8:	000d883a 	mov	r6,zero
   c4cec:	01c00284 	movi	r7,10
   c4cf0:	19400044 	addi	r5,r3,1
   c4cf4:	b809883a 	mov	r4,r23
   c4cf8:	00cdec00 	call	cdec0 <_strtol_r>
   c4cfc:	d8c0a417 	ldw	r3,656(sp)
   c4d00:	dc00a517 	ldw	r16,660(sp)
   c4d04:	10cdc83a 	sub	r6,r2,r3
   c4d08:	003fee06 	br	c4cc4 <_gp+0xfffe04e4>
   c4d0c:	d8809c17 	ldw	r2,624(sp)
   c4d10:	180b883a 	mov	r5,r3
   c4d14:	8009883a 	mov	r4,r16
   c4d18:	15000017 	ldw	r20,0(r2)
   c4d1c:	14400104 	addi	r17,r2,4
   c4d20:	d8c0a615 	stw	r3,664(sp)
   c4d24:	00cc5c00 	call	cc5c0 <__fpclassifyd>
   c4d28:	d8c0a617 	ldw	r3,664(sp)
   c4d2c:	10007226 	beq	r2,zero,c4ef8 <__ssvfscanf_r+0x1968>
   c4d30:	8009883a 	mov	r4,r16
   c4d34:	180b883a 	mov	r5,r3
   c4d38:	00d79740 	call	d7974 <__truncdfsf2>
   c4d3c:	a0800015 	stw	r2,0(r20)
   c4d40:	dc409c15 	stw	r17,624(sp)
   c4d44:	003e0006 	br	c4548 <_gp+0xfffdfd68>
   c4d48:	88c0004c 	andi	r3,r17,1
   c4d4c:	183fc11e 	bne	r3,zero,c4c54 <_gp+0xfffe0474>
   c4d50:	8c40008c 	andi	r17,r17,2
   c4d54:	883fbf26 	beq	r17,zero,c4c54 <_gp+0xfffe0474>
   c4d58:	d940a117 	ldw	r5,644(sp)
   c4d5c:	00800374 	movhi	r2,13
   c4d60:	10b90e04 	addi	r2,r2,-7112
   c4d64:	d9c09e17 	ldw	r7,632(sp)
   c4d68:	000d883a 	mov	r6,zero
   c4d6c:	28806726 	beq	r5,r2,c4f0c <__ssvfscanf_r+0x197c>
   c4d70:	d9400104 	addi	r5,sp,4
   c4d74:	b809883a 	mov	r4,r23
   c4d78:	00ce1340 	call	ce134 <_strtoll_r>
   c4d7c:	d9409c17 	ldw	r5,624(sp)
   c4d80:	29000017 	ldw	r4,0(r5)
   c4d84:	29400104 	addi	r5,r5,4
   c4d88:	d9409c15 	stw	r5,624(sp)
   c4d8c:	20800015 	stw	r2,0(r4)
   c4d90:	20c00115 	stw	r3,4(r4)
   c4d94:	003f8106 	br	c4b9c <_gp+0xfffe03bc>
   c4d98:	00c9f1c0 	call	c9f1c <__locale_mb_cur_max>
   c4d9c:	80bc5626 	beq	r16,r2,c3ef8 <_gp+0xfffdf718>
   c4da0:	98800017 	ldw	r2,0(r19)
   c4da4:	99000117 	ldw	r4,4(r19)
   c4da8:	d9400104 	addi	r5,sp,4
   c4dac:	12000003 	ldbu	r8,0(r2)
   c4db0:	213fffc4 	addi	r4,r4,-1
   c4db4:	10800044 	addi	r2,r2,1
   c4db8:	99000115 	stw	r4,4(r19)
   c4dbc:	98800015 	stw	r2,0(r19)
   c4dc0:	84400044 	addi	r17,r16,1
   c4dc4:	dd400015 	stw	r21,0(sp)
   c4dc8:	2c21883a 	add	r16,r5,r16
   c4dcc:	280d883a 	mov	r6,r5
   c4dd0:	880f883a 	mov	r7,r17
   c4dd4:	a00b883a 	mov	r5,r20
   c4dd8:	b809883a 	mov	r4,r23
   c4ddc:	82000005 	stb	r8,0(r16)
   c4de0:	00ca9980 	call	ca998 <_mbrtowc_r>
   c4de4:	00ffffc4 	movi	r3,-1
   c4de8:	10fc4326 	beq	r2,r3,c3ef8 <_gp+0xfffdf718>
   c4dec:	103c371e 	bne	r2,zero,c3ecc <_gp+0xfffdf6ec>
   c4df0:	a0000015 	stw	zero,0(r20)
   c4df4:	0009883a 	mov	r4,zero
   c4df8:	00c9e640 	call	c9e64 <iswspace>
   c4dfc:	10001b26 	beq	r2,zero,c4e6c <__ssvfscanf_r+0x18dc>
   c4e00:	8821883a 	mov	r16,r17
   c4e04:	dc409f17 	ldw	r17,636(sp)
   c4e08:	803f7f26 	beq	r16,zero,c4c08 <_gp+0xfffe0428>
   c4e0c:	843fffc4 	addi	r16,r16,-1
   c4e10:	d9400104 	addi	r5,sp,4
   c4e14:	2c2b883a 	add	r21,r5,r16
   c4e18:	00000106 	br	c4e20 <__ssvfscanf_r+0x1890>
   c4e1c:	843fffc4 	addi	r16,r16,-1
   c4e20:	a9400003 	ldbu	r5,0(r21)
   c4e24:	980d883a 	mov	r6,r19
   c4e28:	b809883a 	mov	r4,r23
   c4e2c:	00cff5c0 	call	cff5c <_sungetc_r>
   c4e30:	ad7fffc4 	addi	r21,r21,-1
   c4e34:	803ff91e 	bne	r16,zero,c4e1c <_gp+0xfffe063c>
   c4e38:	003f7306 	br	c4c08 <_gp+0xfffe0428>
   c4e3c:	d9400104 	addi	r5,sp,4
   c4e40:	802b883a 	mov	r21,r16
   c4e44:	9839883a 	mov	fp,r19
   c4e48:	2c3a122e 	bgeu	r5,r16,c3694 <_gp+0xfffdeeb4>
   c4e4c:	ad7fffc4 	addi	r21,r21,-1
   c4e50:	a9400007 	ldb	r5,0(r21)
   c4e54:	e00d883a 	mov	r6,fp
   c4e58:	b809883a 	mov	r4,r23
   c4e5c:	00cff5c0 	call	cff5c <_sungetc_r>
   c4e60:	d8800104 	addi	r2,sp,4
   c4e64:	157ff91e 	bne	r2,r21,c4e4c <_gp+0xfffe066c>
   c4e68:	003a0a06 	br	c3694 <_gp+0xfffdeeb4>
   c4e6c:	d8c09f17 	ldw	r3,636(sp)
   c4e70:	9465883a 	add	r18,r18,r17
   c4e74:	e73fffc4 	addi	fp,fp,-1
   c4e78:	1800051e 	bne	r3,zero,c4e90 <__ssvfscanf_r+0x1900>
   c4e7c:	a5000104 	addi	r20,r20,4
   c4e80:	0021883a 	mov	r16,zero
   c4e84:	003c1406 	br	c3ed8 <_gp+0xfffdf6f8>
   c4e88:	a1000017 	ldw	r4,0(r20)
   c4e8c:	003fda06 	br	c4df8 <_gp+0xfffe0618>
   c4e90:	0021883a 	mov	r16,zero
   c4e94:	003c1006 	br	c3ed8 <_gp+0xfffdf6f8>
   c4e98:	d8c00104 	addi	r3,sp,4
   c4e9c:	802b883a 	mov	r21,r16
   c4ea0:	9839883a 	mov	fp,r19
   c4ea4:	1c39fb2e 	bgeu	r3,r16,c3694 <_gp+0xfffdeeb4>
   c4ea8:	ad7fffc4 	addi	r21,r21,-1
   c4eac:	a9400007 	ldb	r5,0(r21)
   c4eb0:	b809883a 	mov	r4,r23
   c4eb4:	e00d883a 	mov	r6,fp
   c4eb8:	00cff5c0 	call	cff5c <_sungetc_r>
   c4ebc:	d9000104 	addi	r4,sp,4
   c4ec0:	257ff91e 	bne	r4,r21,c4ea8 <_gp+0xfffe06c8>
   c4ec4:	0039f306 	br	c3694 <_gp+0xfffdeeb4>
   c4ec8:	d8c00104 	addi	r3,sp,4
   c4ecc:	802b883a 	mov	r21,r16
   c4ed0:	9839883a 	mov	fp,r19
   c4ed4:	1c39ef2e 	bgeu	r3,r16,c3694 <_gp+0xfffdeeb4>
   c4ed8:	ad7fffc4 	addi	r21,r21,-1
   c4edc:	a9400007 	ldb	r5,0(r21)
   c4ee0:	b809883a 	mov	r4,r23
   c4ee4:	e00d883a 	mov	r6,fp
   c4ee8:	00cff5c0 	call	cff5c <_sungetc_r>
   c4eec:	d9000104 	addi	r4,sp,4
   c4ef0:	257ff91e 	bne	r4,r21,c4ed8 <_gp+0xfffe06f8>
   c4ef4:	0039e706 	br	c3694 <_gp+0xfffdeeb4>
   c4ef8:	0009883a 	mov	r4,zero
   c4efc:	00cc7580 	call	cc758 <nanf>
   c4f00:	a0800015 	stw	r2,0(r20)
   c4f04:	dc409c15 	stw	r17,624(sp)
   c4f08:	003d8f06 	br	c4548 <_gp+0xfffdfd68>
   c4f0c:	d9400104 	addi	r5,sp,4
   c4f10:	b809883a 	mov	r4,r23
   c4f14:	00ce6cc0 	call	ce6cc <_strtoull_r>
   c4f18:	003f9806 	br	c4d7c <_gp+0xfffe059c>

000c4f1c <___vfprintf_internal_r>:
   c4f1c:	deffb804 	addi	sp,sp,-288
   c4f20:	dfc04715 	stw	ra,284(sp)
   c4f24:	ddc04515 	stw	r23,276(sp)
   c4f28:	dd404315 	stw	r21,268(sp)
   c4f2c:	d9002d15 	stw	r4,180(sp)
   c4f30:	282f883a 	mov	r23,r5
   c4f34:	302b883a 	mov	r21,r6
   c4f38:	d9c02e15 	stw	r7,184(sp)
   c4f3c:	df004615 	stw	fp,280(sp)
   c4f40:	dd804415 	stw	r22,272(sp)
   c4f44:	dd004215 	stw	r20,264(sp)
   c4f48:	dcc04115 	stw	r19,260(sp)
   c4f4c:	dc804015 	stw	r18,256(sp)
   c4f50:	dc403f15 	stw	r17,252(sp)
   c4f54:	dc003e15 	stw	r16,248(sp)
   c4f58:	00c9f400 	call	c9f40 <_localeconv_r>
   c4f5c:	10800017 	ldw	r2,0(r2)
   c4f60:	1009883a 	mov	r4,r2
   c4f64:	d8803415 	stw	r2,208(sp)
   c4f68:	00c10c80 	call	c10c8 <strlen>
   c4f6c:	d8803715 	stw	r2,220(sp)
   c4f70:	d8802d17 	ldw	r2,180(sp)
   c4f74:	10000226 	beq	r2,zero,c4f80 <___vfprintf_internal_r+0x64>
   c4f78:	10800e17 	ldw	r2,56(r2)
   c4f7c:	1000fb26 	beq	r2,zero,c536c <___vfprintf_internal_r+0x450>
   c4f80:	b880030b 	ldhu	r2,12(r23)
   c4f84:	10c8000c 	andi	r3,r2,8192
   c4f88:	1800061e 	bne	r3,zero,c4fa4 <___vfprintf_internal_r+0x88>
   c4f8c:	b9001917 	ldw	r4,100(r23)
   c4f90:	00f7ffc4 	movi	r3,-8193
   c4f94:	10880014 	ori	r2,r2,8192
   c4f98:	20c6703a 	and	r3,r4,r3
   c4f9c:	b880030d 	sth	r2,12(r23)
   c4fa0:	b8c01915 	stw	r3,100(r23)
   c4fa4:	10c0020c 	andi	r3,r2,8
   c4fa8:	1800c326 	beq	r3,zero,c52b8 <___vfprintf_internal_r+0x39c>
   c4fac:	b8c00417 	ldw	r3,16(r23)
   c4fb0:	1800c126 	beq	r3,zero,c52b8 <___vfprintf_internal_r+0x39c>
   c4fb4:	1080068c 	andi	r2,r2,26
   c4fb8:	00c00284 	movi	r3,10
   c4fbc:	10c0c626 	beq	r2,r3,c52d8 <___vfprintf_internal_r+0x3bc>
   c4fc0:	d8c00404 	addi	r3,sp,16
   c4fc4:	050003b4 	movhi	r20,14
   c4fc8:	d9001e04 	addi	r4,sp,120
   c4fcc:	a5299504 	addi	r20,r20,-22956
   c4fd0:	d8c01e15 	stw	r3,120(sp)
   c4fd4:	d8002015 	stw	zero,128(sp)
   c4fd8:	d8001f15 	stw	zero,124(sp)
   c4fdc:	d8003315 	stw	zero,204(sp)
   c4fe0:	d8003615 	stw	zero,216(sp)
   c4fe4:	d8003815 	stw	zero,224(sp)
   c4fe8:	1811883a 	mov	r8,r3
   c4fec:	d8003915 	stw	zero,228(sp)
   c4ff0:	d8003a15 	stw	zero,232(sp)
